
a.out:	file format Mach-O 64-bit x86-64

Disassembly of section __TEXT,__text:
__text:
1000011e0:	55 	pushq	%rbp
1000011e1:	48 89 e5 	movq	%rsp, %rbp
1000011e4:	41 56 	pushq	%r14
1000011e6:	53 	pushq	%rbx
1000011e7:	48 83 ec 10 	subq	$16, %rsp
1000011eb:	48 8d 3d ba 4a 00 00 	leaq	19130(%rip), %rdi
1000011f2:	e8 f5 3f 00 00 	callq	16373
1000011f7:	48 8b 3d 22 4e 00 00 	movq	20002(%rip), %rdi
1000011fe:	48 8d 35 ad 4a 00 00 	leaq	19117(%rip), %rsi
100001205:	ba 1d 00 00 00 	movl	$29, %edx
10000120a:	e8 c1 02 00 00 	callq	705 <__ZNSt3__124__put_character_sequenceIcNS_11char_traitsIcEEEERNS_13basic_ostreamIT_T0_EES7_PKS4_m>
10000120f:	48 89 c3 	movq	%rax, %rbx
100001212:	48 8b 03 	movq	(%rbx), %rax
100001215:	48 8b 70 e8 	movq	-24(%rax), %rsi
100001219:	48 01 de 	addq	%rbx, %rsi
10000121c:	4c 8d 75 e8 	leaq	-24(%rbp), %r14
100001220:	4c 89 f7 	movq	%r14, %rdi
100001223:	e8 b0 3e 00 00 	callq	16048
100001228:	48 8b 35 f9 4d 00 00 	movq	19961(%rip), %rsi
10000122f:	4c 89 f7 	movq	%r14, %rdi
100001232:	e8 9b 3e 00 00 	callq	16027
100001237:	48 8b 08 	movq	(%rax), %rcx
10000123a:	be 0a 00 00 00 	movl	$10, %esi
10000123f:	48 89 c7 	movq	%rax, %rdi
100001242:	ff 51 38 	callq	*56(%rcx)
100001245:	41 89 c6 	movl	%eax, %r14d
100001248:	48 8d 7d e8 	leaq	-24(%rbp), %rdi
10000124c:	e8 e1 3e 00 00 	callq	16097
100001251:	41 0f be f6 	movsbl	%r14b, %esi
100001255:	48 89 df 	movq	%rbx, %rdi
100001258:	e8 a5 3e 00 00 	callq	16037
10000125d:	48 89 df 	movq	%rbx, %rdi
100001260:	e8 a3 3e 00 00 	callq	16035
100001265:	bf 80 00 00 00 	movl	$128, %edi
10000126a:	e8 ff 3e 00 00 	callq	16127
10000126f:	48 89 c3 	movq	%rax, %rbx
100001272:	48 89 df 	movq	%rbx, %rdi
100001275:	e8 16 0e 00 00 	callq	3606 <__ZN2SEC1Ev>
10000127a:	48 89 df 	movq	%rbx, %rdi
10000127d:	e8 4e 12 00 00 	callq	4686 <__ZN2SE9get_inputEv>
100001282:	48 89 df 	movq	%rbx, %rdi
100001285:	e8 16 14 00 00 	callq	5142 <__ZN2SE11search_dictEv>
10000128a:	48 89 df 	movq	%rbx, %rdi
10000128d:	e8 9e 17 00 00 	callq	6046 <__ZN2SE14display_resultEv>
100001292:	48 89 df 	movq	%rbx, %rdi
100001295:	e8 96 0f 00 00 	callq	3990 <__ZN2SED1Ev>
10000129a:	48 89 df 	movq	%rbx, %rdi
10000129d:	e8 c0 3e 00 00 	callq	16064
1000012a2:	48 83 c4 10 	addq	$16, %rsp
1000012a6:	5b 	popq	%rbx
1000012a7:	41 5e 	popq	%r14
1000012a9:	5d 	popq	%rbp
1000012aa:	c3 	retq
1000012ab:	eb 00 	jmp	0 <__Z6searchv+0xcd>
1000012ad:	49 89 c6 	movq	%rax, %r14
1000012b0:	48 89 df 	movq	%rbx, %rdi
1000012b3:	e8 aa 3e 00 00 	callq	16042
1000012b8:	eb 0c 	jmp	12 <__Z6searchv+0xe6>
1000012ba:	49 89 c6 	movq	%rax, %r14
1000012bd:	48 8d 7d e8 	leaq	-24(%rbp), %rdi
1000012c1:	e8 6c 3e 00 00 	callq	15980
1000012c6:	4c 89 f7 	movq	%r14, %rdi
1000012c9:	e8 f2 3d 00 00 	callq	15858
1000012ce:	0f 0b 	ud2
1000012d0:	48 89 c7 	movq	%rax, %rdi
1000012d3:	e8 b8 04 00 00 	callq	1208 <___clang_call_terminate>
1000012d8:	0f 1f 84 00 00 00 00 00 	nopl	(%rax,%rax)
1000012e0:	55 	pushq	%rbp
1000012e1:	48 89 e5 	movq	%rsp, %rbp
1000012e4:	41 57 	pushq	%r15
1000012e6:	41 56 	pushq	%r14
1000012e8:	41 55 	pushq	%r13
1000012ea:	41 54 	pushq	%r12
1000012ec:	53 	pushq	%rbx
1000012ed:	48 83 ec 18 	subq	$24, %rsp
1000012f1:	4c 8b 3d 28 4d 00 00 	movq	19752(%rip), %r15
1000012f8:	4c 8d 75 d0 	leaq	-48(%rbp), %r14
1000012fc:	4c 8b 25 25 4d 00 00 	movq	19749(%rip), %r12
100001303:	eb 10 	jmp	16 <_main+0x35>
100001305:	66 66 2e 0f 1f 84 00 00 00 00 00 	nopw	%cs:(%rax,%rax)
100001310:	e8 cb fe ff ff 	callq	-309 <__Z6searchv>
100001315:	ba 1e 00 00 00 	movl	$30, %edx
10000131a:	4c 89 ff 	movq	%r15, %rdi
10000131d:	48 8d 35 ac 49 00 00 	leaq	18860(%rip), %rsi
100001324:	e8 a7 01 00 00 	callq	423 <__ZNSt3__124__put_character_sequenceIcNS_11char_traitsIcEEEERNS_13basic_ostreamIT_T0_EES7_PKS4_m>
100001329:	49 89 c5 	movq	%rax, %r13
10000132c:	49 8b 45 00 	movq	(%r13), %rax
100001330:	48 8b 70 e8 	movq	-24(%rax), %rsi
100001334:	4c 01 ee 	addq	%r13, %rsi
100001337:	4c 89 f7 	movq	%r14, %rdi
10000133a:	e8 99 3d 00 00 	callq	15769
10000133f:	4c 89 f7 	movq	%r14, %rdi
100001342:	4c 89 e6 	movq	%r12, %rsi
100001345:	e8 88 3d 00 00 	callq	15752
10000134a:	48 8b 08 	movq	(%rax), %rcx
10000134d:	be 0a 00 00 00 	movl	$10, %esi
100001352:	48 89 c7 	movq	%rax, %rdi
100001355:	ff 51 38 	callq	*56(%rcx)
100001358:	89 c3 	movl	%eax, %ebx
10000135a:	4c 89 f7 	movq	%r14, %rdi
10000135d:	e8 d0 3d 00 00 	callq	15824
100001362:	0f be f3 	movsbl	%bl, %esi
100001365:	4c 89 ef 	movq	%r13, %rdi
100001368:	e8 95 3d 00 00 	callq	15765
10000136d:	4c 89 ef 	movq	%r13, %rdi
100001370:	e8 93 3d 00 00 	callq	15763
100001375:	48 8b 3d 9c 4c 00 00 	movq	19612(%rip), %rdi
10000137c:	48 8d 75 cc 	leaq	-52(%rbp), %rsi
100001380:	e8 77 3d 00 00 	callq	15735
100001385:	8b 45 cc 	movl	-52(%rbp), %eax
100001388:	83 f8 01 	cmpl	$1, %eax
10000138b:	74 83 	je	-125 <_main+0x30>
10000138d:	83 f8 02 	cmpl	$2, %eax
100001390:	74 65 	je	101 <_main+0x117>
100001392:	ba 0e 00 00 00 	movl	$14, %edx
100001397:	4c 89 ff 	movq	%r15, %rdi
10000139a:	48 8d 35 4e 49 00 00 	leaq	18766(%rip), %rsi
1000013a1:	e8 2a 01 00 00 	callq	298 <__ZNSt3__124__put_character_sequenceIcNS_11char_traitsIcEEEERNS_13basic_ostreamIT_T0_EES7_PKS4_m>
1000013a6:	49 89 c5 	movq	%rax, %r13
1000013a9:	49 8b 45 00 	movq	(%r13), %rax
1000013ad:	48 8b 70 e8 	movq	-24(%rax), %rsi
1000013b1:	4c 01 ee 	addq	%r13, %rsi
1000013b4:	4c 89 f7 	movq	%r14, %rdi
1000013b7:	e8 1c 3d 00 00 	callq	15644
1000013bc:	4c 89 f7 	movq	%r14, %rdi
1000013bf:	4c 89 e6 	movq	%r12, %rsi
1000013c2:	e8 0b 3d 00 00 	callq	15627
1000013c7:	48 8b 08 	movq	(%rax), %rcx
1000013ca:	be 0a 00 00 00 	movl	$10, %esi
1000013cf:	48 89 c7 	movq	%rax, %rdi
1000013d2:	ff 51 38 	callq	*56(%rcx)
1000013d5:	89 c3 	movl	%eax, %ebx
1000013d7:	4c 89 f7 	movq	%r14, %rdi
1000013da:	e8 53 3d 00 00 	callq	15699
1000013df:	0f be f3 	movsbl	%bl, %esi
1000013e2:	4c 89 ef 	movq	%r13, %rdi
1000013e5:	e8 18 3d 00 00 	callq	15640
1000013ea:	4c 89 ef 	movq	%r13, %rdi
1000013ed:	e8 16 3d 00 00 	callq	15638
1000013f2:	e9 1e ff ff ff 	jmp	-226 <_main+0x35>
1000013f7:	48 8d 3d ae 48 00 00 	leaq	18606(%rip), %rdi
1000013fe:	e8 e9 3d 00 00 	callq	15849
100001403:	48 8b 3d 16 4c 00 00 	movq	19478(%rip), %rdi
10000140a:	48 8d 35 ed 48 00 00 	leaq	18669(%rip), %rsi
100001411:	ba 10 00 00 00 	movl	$16, %edx
100001416:	e8 b5 00 00 00 	callq	181 <__ZNSt3__124__put_character_sequenceIcNS_11char_traitsIcEEEERNS_13basic_ostreamIT_T0_EES7_PKS4_m>
10000141b:	48 89 c3 	movq	%rax, %rbx
10000141e:	48 8b 03 	movq	(%rbx), %rax
100001421:	48 8b 70 e8 	movq	-24(%rax), %rsi
100001425:	48 01 de 	addq	%rbx, %rsi
100001428:	4c 8d 75 d0 	leaq	-48(%rbp), %r14
10000142c:	4c 89 f7 	movq	%r14, %rdi
10000142f:	e8 a4 3c 00 00 	callq	15524
100001434:	48 8b 35 ed 4b 00 00 	movq	19437(%rip), %rsi
10000143b:	4c 89 f7 	movq	%r14, %rdi
10000143e:	e8 8f 3c 00 00 	callq	15503
100001443:	48 8b 08 	movq	(%rax), %rcx
100001446:	be 0a 00 00 00 	movl	$10, %esi
10000144b:	48 89 c7 	movq	%rax, %rdi
10000144e:	ff 51 38 	callq	*56(%rcx)
100001451:	41 89 c6 	movl	%eax, %r14d
100001454:	48 8d 7d d0 	leaq	-48(%rbp), %rdi
100001458:	e8 d5 3c 00 00 	callq	15573
10000145d:	41 0f be f6 	movsbl	%r14b, %esi
100001461:	48 89 df 	movq	%rbx, %rdi
100001464:	e8 99 3c 00 00 	callq	15513
100001469:	48 89 df 	movq	%rbx, %rdi
10000146c:	e8 97 3c 00 00 	callq	15511
100001471:	31 c0 	xorl	%eax, %eax
100001473:	48 83 c4 18 	addq	$24, %rsp
100001477:	5b 	popq	%rbx
100001478:	41 5c 	popq	%r12
10000147a:	41 5d 	popq	%r13
10000147c:	41 5e 	popq	%r14
10000147e:	41 5f 	popq	%r15
100001480:	5d 	popq	%rbp
100001481:	c3 	retq
100001482:	48 89 c3 	movq	%rax, %rbx
100001485:	48 8d 7d d0 	leaq	-48(%rbp), %rdi
100001489:	e8 a4 3c 00 00 	callq	15524
10000148e:	eb 2a 	jmp	42 <_main+0x1da>
100001490:	48 89 c7 	movq	%rax, %rdi
100001493:	e8 f8 02 00 00 	callq	760 <___clang_call_terminate>
100001498:	48 89 c3 	movq	%rax, %rbx
10000149b:	48 8d 7d d0 	leaq	-48(%rbp), %rdi
10000149f:	e8 8e 3c 00 00 	callq	15502
1000014a4:	eb 14 	jmp	20 <_main+0x1da>
1000014a6:	48 89 c7 	movq	%rax, %rdi
1000014a9:	e8 e2 02 00 00 	callq	738 <___clang_call_terminate>
1000014ae:	48 89 c3 	movq	%rax, %rbx
1000014b1:	48 8d 7d d0 	leaq	-48(%rbp), %rdi
1000014b5:	e8 78 3c 00 00 	callq	15480
1000014ba:	48 89 df 	movq	%rbx, %rdi
1000014bd:	e8 fe 3b 00 00 	callq	15358
1000014c2:	0f 0b 	ud2
1000014c4:	48 89 c7 	movq	%rax, %rdi
1000014c7:	e8 c4 02 00 00 	callq	708 <___clang_call_terminate>
1000014cc:	0f 1f 40 00 	nopl	(%rax)
1000014d0:	55 	pushq	%rbp
1000014d1:	48 89 e5 	movq	%rsp, %rbp
1000014d4:	41 57 	pushq	%r15
1000014d6:	41 56 	pushq	%r14
1000014d8:	41 55 	pushq	%r13
1000014da:	41 54 	pushq	%r12
1000014dc:	53 	pushq	%rbx
1000014dd:	48 83 ec 28 	subq	$40, %rsp
1000014e1:	49 89 d6 	movq	%rdx, %r14
1000014e4:	49 89 f7 	movq	%rsi, %r15
1000014e7:	48 89 fb 	movq	%rdi, %rbx
1000014ea:	48 8d 7d b0 	leaq	-80(%rbp), %rdi
1000014ee:	48 89 de 	movq	%rbx, %rsi
1000014f1:	e8 18 3c 00 00 	callq	15384
1000014f6:	80 7d b0 00 	cmpb	$0, -80(%rbp)
1000014fa:	0f 84 ae 00 00 00 	je	174 <__ZNSt3__124__put_character_sequenceIcNS_11char_traitsIcEEEERNS_13basic_ostreamIT_T0_EES7_PKS4_m+0xde>
100001500:	48 8b 03 	movq	(%rbx), %rax
100001503:	48 8b 40 e8 	movq	-24(%rax), %rax
100001507:	4c 8d 24 03 	leaq	(%rbx,%rax), %r12
10000150b:	48 8b 7c 03 28 	movq	40(%rbx,%rax), %rdi
100001510:	44 8b 6c 03 08 	movl	8(%rbx,%rax), %r13d
100001515:	8b 84 03 90 00 00 00 	movl	144(%rbx,%rax), %eax
10000151c:	83 f8 ff 	cmpl	$-1, %eax
10000151f:	75 4a 	jne	74 <__ZNSt3__124__put_character_sequenceIcNS_11char_traitsIcEEEERNS_13basic_ostreamIT_T0_EES7_PKS4_m+0x9b>
100001521:	48 89 7d c0 	movq	%rdi, -64(%rbp)
100001525:	48 8d 7d c8 	leaq	-56(%rbp), %rdi
100001529:	4c 89 e6 	movq	%r12, %rsi
10000152c:	e8 a7 3b 00 00 	callq	15271
100001531:	48 8b 35 f0 4a 00 00 	movq	19184(%rip), %rsi
100001538:	48 8d 7d c8 	leaq	-56(%rbp), %rdi
10000153c:	e8 91 3b 00 00 	callq	15249
100001541:	48 8b 08 	movq	(%rax), %rcx
100001544:	be 20 00 00 00 	movl	$32, %esi
100001549:	48 89 c7 	movq	%rax, %rdi
10000154c:	ff 51 38 	callq	*56(%rcx)
10000154f:	88 45 d7 	movb	%al, -41(%rbp)
100001552:	48 8d 7d c8 	leaq	-56(%rbp), %rdi
100001556:	e8 d7 3b 00 00 	callq	15319
10000155b:	0f be 45 d7 	movsbl	-41(%rbp), %eax
10000155f:	41 89 84 24 90 00 00 00 	movl	%eax, 144(%r12)
100001567:	48 8b 7d c0 	movq	-64(%rbp), %rdi
10000156b:	4d 01 fe 	addq	%r15, %r14
10000156e:	41 81 e5 b0 00 00 00 	andl	$176, %r13d
100001575:	41 83 fd 20 	cmpl	$32, %r13d
100001579:	4c 89 fa 	movq	%r15, %rdx
10000157c:	49 0f 44 d6 	cmoveq	%r14, %rdx
100001580:	44 0f be c8 	movsbl	%al, %r9d
100001584:	4c 89 fe 	movq	%r15, %rsi
100001587:	4c 89 f1 	movq	%r14, %rcx
10000158a:	4d 89 e0 	movq	%r12, %r8
10000158d:	e8 9e 00 00 00 	callq	158 <__ZNSt3__116__pad_and_outputIcNS_11char_traitsIcEEEENS_19ostreambuf_iteratorIT_T0_EES6_PKS4_S8_S8_RNS_8ios_baseES4_>
100001592:	48 85 c0 	testq	%rax, %rax
100001595:	75 17 	jne	23 <__ZNSt3__124__put_character_sequenceIcNS_11char_traitsIcEEEERNS_13basic_ostreamIT_T0_EES7_PKS4_m+0xde>
100001597:	48 8b 03 	movq	(%rbx), %rax
10000159a:	48 8b 40 e8 	movq	-24(%rax), %rax
10000159e:	48 8d 3c 03 	leaq	(%rbx,%rax), %rdi
1000015a2:	8b 74 03 20 	movl	32(%rbx,%rax), %esi
1000015a6:	83 ce 05 	orl	$5, %esi
1000015a9:	e8 96 3b 00 00 	callq	15254
1000015ae:	48 8d 7d b0 	leaq	-80(%rbp), %rdi
1000015b2:	e8 5d 3b 00 00 	callq	15197
1000015b7:	48 89 d8 	movq	%rbx, %rax
1000015ba:	48 83 c4 28 	addq	$40, %rsp
1000015be:	5b 	popq	%rbx
1000015bf:	41 5c 	popq	%r12
1000015c1:	41 5d 	popq	%r13
1000015c3:	41 5e 	popq	%r14
1000015c5:	41 5f 	popq	%r15
1000015c7:	5d 	popq	%rbp
1000015c8:	c3 	retq
1000015c9:	49 89 c6 	movq	%rax, %r14
1000015cc:	48 8d 7d c8 	leaq	-56(%rbp), %rdi
1000015d0:	e8 5d 3b 00 00 	callq	15197
1000015d5:	eb 0b 	jmp	11 <__ZNSt3__124__put_character_sequenceIcNS_11char_traitsIcEEEERNS_13basic_ostreamIT_T0_EES7_PKS4_m+0x112>
1000015d7:	48 89 c7 	movq	%rax, %rdi
1000015da:	e8 b1 01 00 00 	callq	433 <___clang_call_terminate>
1000015df:	49 89 c6 	movq	%rax, %r14
1000015e2:	48 8d 7d b0 	leaq	-80(%rbp), %rdi
1000015e6:	e8 29 3b 00 00 	callq	15145
1000015eb:	eb 03 	jmp	3 <__ZNSt3__124__put_character_sequenceIcNS_11char_traitsIcEEEERNS_13basic_ostreamIT_T0_EES7_PKS4_m+0x120>
1000015ed:	49 89 c6 	movq	%rax, %r14
1000015f0:	4c 89 f7 	movq	%r14, %rdi
1000015f3:	e8 88 3b 00 00 	callq	15240
1000015f8:	48 8b 03 	movq	(%rbx), %rax
1000015fb:	48 89 df 	movq	%rbx, %rdi
1000015fe:	48 03 78 e8 	addq	-24(%rax), %rdi
100001602:	e8 31 3b 00 00 	callq	15153
100001607:	e8 80 3b 00 00 	callq	15232
10000160c:	eb a9 	jmp	-87 <__ZNSt3__124__put_character_sequenceIcNS_11char_traitsIcEEEERNS_13basic_ostreamIT_T0_EES7_PKS4_m+0xe7>
10000160e:	48 89 c3 	movq	%rax, %rbx
100001611:	e8 76 3b 00 00 	callq	15222
100001616:	48 89 df 	movq	%rbx, %rdi
100001619:	e8 a2 3a 00 00 	callq	15010
10000161e:	0f 0b 	ud2
100001620:	48 89 c7 	movq	%rax, %rdi
100001623:	e8 68 01 00 00 	callq	360 <___clang_call_terminate>
100001628:	0f 1f 84 00 00 00 00 00 	nopl	(%rax,%rax)
100001630:	55 	pushq	%rbp
100001631:	48 89 e5 	movq	%rsp, %rbp
100001634:	41 57 	pushq	%r15
100001636:	41 56 	pushq	%r14
100001638:	41 55 	pushq	%r13
10000163a:	41 54 	pushq	%r12
10000163c:	53 	pushq	%rbx
10000163d:	48 83 ec 38 	subq	$56, %rsp
100001641:	4d 89 c4 	movq	%r8, %r12
100001644:	49 89 cf 	movq	%rcx, %r15
100001647:	49 89 fd 	movq	%rdi, %r13
10000164a:	4d 85 ed 	testq	%r13, %r13
10000164d:	0f 84 0a 01 00 00 	je	266 <__ZNSt3__116__pad_and_outputIcNS_11char_traitsIcEEEENS_19ostreambuf_iteratorIT_T0_EES6_PKS4_S8_S8_RNS_8ios_baseES4_+0x12d>
100001653:	44 89 4d bc 	movl	%r9d, -68(%rbp)
100001657:	4c 89 f8 	movq	%r15, %rax
10000165a:	48 29 f0 	subq	%rsi, %rax
10000165d:	49 8b 4c 24 18 	movq	24(%r12), %rcx
100001662:	45 31 f6 	xorl	%r14d, %r14d
100001665:	48 29 c1 	subq	%rax, %rcx
100001668:	4c 0f 4f f1 	cmovgq	%rcx, %r14
10000166c:	48 89 55 a8 	movq	%rdx, -88(%rbp)
100001670:	48 89 d3 	movq	%rdx, %rbx
100001673:	48 29 f3 	subq	%rsi, %rbx
100001676:	48 85 db 	testq	%rbx, %rbx
100001679:	7e 16 	jle	22 <__ZNSt3__116__pad_and_outputIcNS_11char_traitsIcEEEENS_19ostreambuf_iteratorIT_T0_EES6_PKS4_S8_S8_RNS_8ios_baseES4_+0x61>
10000167b:	49 8b 45 00 	movq	(%r13), %rax
10000167f:	4c 89 ef 	movq	%r13, %rdi
100001682:	48 89 da 	movq	%rbx, %rdx
100001685:	ff 50 60 	callq	*96(%rax)
100001688:	48 39 d8 	cmpq	%rbx, %rax
10000168b:	0f 85 cc 00 00 00 	jne	204 <__ZNSt3__116__pad_and_outputIcNS_11char_traitsIcEEEENS_19ostreambuf_iteratorIT_T0_EES6_PKS4_S8_S8_RNS_8ios_baseES4_+0x12d>
100001691:	4d 85 f6 	testq	%r14, %r14
100001694:	0f 8e 9a 00 00 00 	jle	154 <__ZNSt3__116__pad_and_outputIcNS_11char_traitsIcEEEENS_19ostreambuf_iteratorIT_T0_EES6_PKS4_S8_S8_RNS_8ios_baseES4_+0x104>
10000169a:	4c 89 65 b0 	movq	%r12, -80(%rbp)
10000169e:	0f 57 c0 	xorps	%xmm0, %xmm0
1000016a1:	0f 29 45 c0 	movaps	%xmm0, -64(%rbp)
1000016a5:	48 c7 45 d0 00 00 00 00 	movq	$0, -48(%rbp)
1000016ad:	49 83 fe 17 	cmpq	$23, %r14
1000016b1:	73 11 	jae	17 <__ZNSt3__116__pad_and_outputIcNS_11char_traitsIcEEEENS_19ostreambuf_iteratorIT_T0_EES6_PKS4_S8_S8_RNS_8ios_baseES4_+0x94>
1000016b3:	44 89 f0 	movl	%r14d, %eax
1000016b6:	00 c0 	addb	%al, %al
1000016b8:	88 45 c0 	movb	%al, -64(%rbp)
1000016bb:	48 8d 5d c1 	leaq	-63(%rbp), %rbx
1000016bf:	49 89 dc 	movq	%rbx, %r12
1000016c2:	eb 27 	jmp	39 <__ZNSt3__116__pad_and_outputIcNS_11char_traitsIcEEEENS_19ostreambuf_iteratorIT_T0_EES6_PKS4_S8_S8_RNS_8ios_baseES4_+0xbb>
1000016c4:	49 8d 5e 10 	leaq	16(%r14), %rbx
1000016c8:	48 83 e3 f0 	andq	$-16, %rbx
1000016cc:	48 89 df 	movq	%rbx, %rdi
1000016cf:	e8 9a 3a 00 00 	callq	15002
1000016d4:	49 89 c4 	movq	%rax, %r12
1000016d7:	4c 89 65 d0 	movq	%r12, -48(%rbp)
1000016db:	48 83 cb 01 	orq	$1, %rbx
1000016df:	48 89 5d c0 	movq	%rbx, -64(%rbp)
1000016e3:	4c 89 75 c8 	movq	%r14, -56(%rbp)
1000016e7:	48 8d 5d c1 	leaq	-63(%rbp), %rbx
1000016eb:	0f b6 75 bc 	movzbl	-68(%rbp), %esi
1000016ef:	4c 89 e7 	movq	%r12, %rdi
1000016f2:	4c 89 f2 	movq	%r14, %rdx
1000016f5:	e8 ec 3a 00 00 	callq	15084
1000016fa:	43 c6 04 34 00 	movb	$0, (%r12,%r14)
1000016ff:	f6 45 c0 01 	testb	$1, -64(%rbp)
100001703:	74 04 	je	4 <__ZNSt3__116__pad_and_outputIcNS_11char_traitsIcEEEENS_19ostreambuf_iteratorIT_T0_EES6_PKS4_S8_S8_RNS_8ios_baseES4_+0xd9>
100001705:	48 8b 5d d0 	movq	-48(%rbp), %rbx
100001709:	49 8b 45 00 	movq	(%r13), %rax
10000170d:	4c 89 ef 	movq	%r13, %rdi
100001710:	48 89 de 	movq	%rbx, %rsi
100001713:	4c 89 f2 	movq	%r14, %rdx
100001716:	ff 50 60 	callq	*96(%rax)
100001719:	48 89 c3 	movq	%rax, %rbx
10000171c:	4c 8b 65 b0 	movq	-80(%rbp), %r12
100001720:	f6 45 c0 01 	testb	$1, -64(%rbp)
100001724:	74 09 	je	9 <__ZNSt3__116__pad_and_outputIcNS_11char_traitsIcEEEENS_19ostreambuf_iteratorIT_T0_EES6_PKS4_S8_S8_RNS_8ios_baseES4_+0xff>
100001726:	48 8b 7d d0 	movq	-48(%rbp), %rdi
10000172a:	e8 33 3a 00 00 	callq	14899
10000172f:	4c 39 f3 	cmpq	%r14, %rbx
100001732:	75 29 	jne	41 <__ZNSt3__116__pad_and_outputIcNS_11char_traitsIcEEEENS_19ostreambuf_iteratorIT_T0_EES6_PKS4_S8_S8_RNS_8ios_baseES4_+0x12d>
100001734:	48 8b 75 a8 	movq	-88(%rbp), %rsi
100001738:	49 29 f7 	subq	%rsi, %r15
10000173b:	4d 85 ff 	testq	%r15, %r15
10000173e:	7e 12 	jle	18 <__ZNSt3__116__pad_and_outputIcNS_11char_traitsIcEEEENS_19ostreambuf_iteratorIT_T0_EES6_PKS4_S8_S8_RNS_8ios_baseES4_+0x122>
100001740:	49 8b 45 00 	movq	(%r13), %rax
100001744:	4c 89 ef 	movq	%r13, %rdi
100001747:	4c 89 fa 	movq	%r15, %rdx
10000174a:	ff 50 60 	callq	*96(%rax)
10000174d:	4c 39 f8 	cmpq	%r15, %rax
100001750:	75 0b 	jne	11 <__ZNSt3__116__pad_and_outputIcNS_11char_traitsIcEEEENS_19ostreambuf_iteratorIT_T0_EES6_PKS4_S8_S8_RNS_8ios_baseES4_+0x12d>
100001752:	49 c7 44 24 18 00 00 00 00 	movq	$0, 24(%r12)
10000175b:	eb 03 	jmp	3 <__ZNSt3__116__pad_and_outputIcNS_11char_traitsIcEEEENS_19ostreambuf_iteratorIT_T0_EES6_PKS4_S8_S8_RNS_8ios_baseES4_+0x130>
10000175d:	45 31 ed 	xorl	%r13d, %r13d
100001760:	4c 89 e8 	movq	%r13, %rax
100001763:	48 83 c4 38 	addq	$56, %rsp
100001767:	5b 	popq	%rbx
100001768:	41 5c 	popq	%r12
10000176a:	41 5d 	popq	%r13
10000176c:	41 5e 	popq	%r14
10000176e:	41 5f 	popq	%r15
100001770:	5d 	popq	%rbp
100001771:	c3 	retq
100001772:	48 89 c3 	movq	%rax, %rbx
100001775:	f6 45 c0 01 	testb	$1, -64(%rbp)
100001779:	74 09 	je	9 <__ZNSt3__116__pad_and_outputIcNS_11char_traitsIcEEEENS_19ostreambuf_iteratorIT_T0_EES6_PKS4_S8_S8_RNS_8ios_baseES4_+0x154>
10000177b:	48 8b 7d d0 	movq	-48(%rbp), %rdi
10000177f:	e8 de 39 00 00 	callq	14814
100001784:	48 89 df 	movq	%rbx, %rdi
100001787:	e8 34 39 00 00 	callq	14644
10000178c:	0f 0b 	ud2
10000178e:	66 90 	nop
100001790:	50 	pushq	%rax
100001791:	e8 ea 39 00 00 	callq	14826
100001796:	e8 bb 39 00 00 	callq	14779
10000179b:	90 	nop
10000179c:	90 	nop
10000179d:	90 	nop
10000179e:	90 	nop
10000179f:	90 	nop
1000017a0:	55 	pushq	%rbp
1000017a1:	48 89 e5 	movq	%rsp, %rbp
1000017a4:	8a 07 	movb	(%rdi), %al
1000017a6:	a8 01 	testb	$1, %al
1000017a8:	75 0f 	jne	15 <__Z5is_inNSt3__112basic_stringIcNS_11char_traitsIcEENS_9allocatorIcEEEEc+0x19>
1000017aa:	48 ff c7 	incq	%rdi
1000017ad:	d0 e8 	shrb	%al
1000017af:	0f b6 c0 	movzbl	%al, %eax
1000017b2:	48 85 c0 	testq	%rax, %rax
1000017b5:	75 19 	jne	25 <__Z5is_inNSt3__112basic_stringIcNS_11char_traitsIcEENS_9allocatorIcEEEEc+0x30>
1000017b7:	eb 24 	jmp	36 <__Z5is_inNSt3__112basic_stringIcNS_11char_traitsIcEENS_9allocatorIcEEEEc+0x3d>
1000017b9:	48 8b 47 08 	movq	8(%rdi), %rax
1000017bd:	48 8b 7f 10 	movq	16(%rdi), %rdi
1000017c1:	48 85 c0 	testq	%rax, %rax
1000017c4:	74 17 	je	23 <__Z5is_inNSt3__112basic_stringIcNS_11char_traitsIcEENS_9allocatorIcEEEEc+0x3d>
1000017c6:	66 2e 0f 1f 84 00 00 00 00 00 	nopw	%cs:(%rax,%rax)
1000017d0:	40 38 37 	cmpb	%sil, (%rdi)
1000017d3:	74 0c 	je	12 <__Z5is_inNSt3__112basic_stringIcNS_11char_traitsIcEENS_9allocatorIcEEEEc+0x41>
1000017d5:	48 ff c7 	incq	%rdi
1000017d8:	48 ff c8 	decq	%rax
1000017db:	75 f3 	jne	-13 <__Z5is_inNSt3__112basic_stringIcNS_11char_traitsIcEENS_9allocatorIcEEEEc+0x30>
1000017dd:	31 c0 	xorl	%eax, %eax
1000017df:	eb 02 	jmp	2 <__Z5is_inNSt3__112basic_stringIcNS_11char_traitsIcEENS_9allocatorIcEEEEc+0x43>
1000017e1:	b0 01 	movb	$1, %al
1000017e3:	5d 	popq	%rbp
1000017e4:	c3 	retq
1000017e5:	66 66 2e 0f 1f 84 00 00 00 00 00 	nopw	%cs:(%rax,%rax)
1000017f0:	55 	pushq	%rbp
1000017f1:	48 89 e5 	movq	%rsp, %rbp
1000017f4:	41 57 	pushq	%r15
1000017f6:	41 56 	pushq	%r14
1000017f8:	41 55 	pushq	%r13
1000017fa:	41 54 	pushq	%r12
1000017fc:	53 	pushq	%rbx
1000017fd:	48 83 ec 18 	subq	$24, %rsp
100001801:	4c 8b 27 	movq	(%rdi), %r12
100001804:	4c 8b 6f 08 	movq	8(%rdi), %r13
100001808:	4d 39 ec 	cmpq	%r13, %r12
10000180b:	0f 84 18 01 00 00 	je	280 <__Z5printRKNSt3__16vectorINS_12basic_stringIcNS_11char_traitsIcEENS_9allocatorIcEEEENS4_IS6_EEEE+0x139>
100001811:	31 c0 	xorl	%eax, %eax
100001813:	48 89 45 c8 	movq	%rax, -56(%rbp)
100001817:	4c 8b 3d 02 48 00 00 	movq	18434(%rip), %r15
10000181e:	4c 8d 35 ea 44 00 00 	leaq	17642(%rip), %r14
100001825:	66 66 2e 0f 1f 84 00 00 00 00 00 	nopw	%cs:(%rax,%rax)
100001830:	41 8a 04 24 	movb	(%r12), %al
100001834:	49 8d 74 24 01 	leaq	1(%r12), %rsi
100001839:	89 c1 	movl	%eax, %ecx
10000183b:	d0 e9 	shrb	%cl
10000183d:	a8 01 	testb	$1, %al
10000183f:	49 0f 45 74 24 10 	cmovneq	16(%r12), %rsi
100001845:	0f b6 d1 	movzbl	%cl, %edx
100001848:	49 0f 45 54 24 08 	cmovneq	8(%r12), %rdx
10000184e:	4c 89 ff 	movq	%r15, %rdi
100001851:	e8 7a fc ff ff 	callq	-902 <__ZNSt3__124__put_character_sequenceIcNS_11char_traitsIcEEEERNS_13basic_ostreamIT_T0_EES7_PKS4_m>
100001856:	31 db 	xorl	%ebx, %ebx
100001858:	eb 18 	jmp	24 <__Z5printRKNSt3__16vectorINS_12basic_stringIcNS_11char_traitsIcEENS_9allocatorIcEEEENS4_IS6_EEEE+0x82>
10000185a:	66 0f 1f 44 00 00 	nopw	(%rax,%rax)
100001860:	ba 01 00 00 00 	movl	$1, %edx
100001865:	4c 89 ff 	movq	%r15, %rdi
100001868:	4c 89 f6 	movq	%r14, %rsi
10000186b:	e8 60 fc ff ff 	callq	-928 <__ZNSt3__124__put_character_sequenceIcNS_11char_traitsIcEEEERNS_13basic_ostreamIT_T0_EES7_PKS4_m>
100001870:	ff c3 	incl	%ebx
100001872:	41 0f b6 04 24 	movzbl	(%r12), %eax
100001877:	a8 01 	testb	$1, %al
100001879:	75 15 	jne	21 <__Z5printRKNSt3__16vectorINS_12basic_stringIcNS_11char_traitsIcEENS_9allocatorIcEEEENS4_IS6_EEEE+0xa0>
10000187b:	d0 e8 	shrb	%al
10000187d:	0f b6 c0 	movzbl	%al, %eax
100001880:	eb 13 	jmp	19 <__Z5printRKNSt3__16vectorINS_12basic_stringIcNS_11char_traitsIcEENS_9allocatorIcEEEENS4_IS6_EEEE+0xa5>
100001882:	66 66 66 66 66 2e 0f 1f 84 00 00 00 00 00 	nopw	%cs:(%rax,%rax)
100001890:	49 8b 44 24 08 	movq	8(%r12), %rax
100001895:	b9 10 00 00 00 	movl	$16, %ecx
10000189a:	29 c1 	subl	%eax, %ecx
10000189c:	39 cb 	cmpl	%ecx, %ebx
10000189e:	7c c0 	jl	-64 <__Z5printRKNSt3__16vectorINS_12basic_stringIcNS_11char_traitsIcEENS_9allocatorIcEEEENS4_IS6_EEEE+0x70>
1000018a0:	48 8b 4d c8 	movq	-56(%rbp), %rcx
1000018a4:	ff c1 	incl	%ecx
1000018a6:	48 89 c8 	movq	%rcx, %rax
1000018a9:	ba ab aa aa aa 	movl	$2863311531, %edx
1000018ae:	48 0f af c2 	imulq	%rdx, %rax
1000018b2:	48 c1 e8 22 	shrq	$34, %rax
1000018b6:	01 c0 	addl	%eax, %eax
1000018b8:	8d 04 40 	leal	(%rax,%rax,2), %eax
1000018bb:	48 89 4d c8 	movq	%rcx, -56(%rbp)
1000018bf:	39 c1 	cmpl	%eax, %ecx
1000018c1:	75 59 	jne	89 <__Z5printRKNSt3__16vectorINS_12basic_stringIcNS_11char_traitsIcEENS_9allocatorIcEEEENS4_IS6_EEEE+0x12c>
1000018c3:	4c 89 eb 	movq	%r13, %rbx
1000018c6:	49 8b 07 	movq	(%r15), %rax
1000018c9:	48 8b 70 e8 	movq	-24(%rax), %rsi
1000018cd:	4c 01 fe 	addq	%r15, %rsi
1000018d0:	4c 8d 6d d0 	leaq	-48(%rbp), %r13
1000018d4:	4c 89 ef 	movq	%r13, %rdi
1000018d7:	e8 fc 37 00 00 	callq	14332
1000018dc:	4c 89 ef 	movq	%r13, %rdi
1000018df:	48 8b 35 42 47 00 00 	movq	18242(%rip), %rsi
1000018e6:	e8 e7 37 00 00 	callq	14311
1000018eb:	48 8b 08 	movq	(%rax), %rcx
1000018ee:	be 0a 00 00 00 	movl	$10, %esi
1000018f3:	48 89 c7 	movq	%rax, %rdi
1000018f6:	ff 51 38 	callq	*56(%rcx)
1000018f9:	41 89 c5 	movl	%eax, %r13d
1000018fc:	48 8d 7d d0 	leaq	-48(%rbp), %rdi
100001900:	e8 2d 38 00 00 	callq	14381
100001905:	41 0f be f5 	movsbl	%r13b, %esi
100001909:	4c 89 ff 	movq	%r15, %rdi
10000190c:	e8 f1 37 00 00 	callq	14321
100001911:	4c 89 ff 	movq	%r15, %rdi
100001914:	e8 ef 37 00 00 	callq	14319
100001919:	49 89 dd 	movq	%rbx, %r13
10000191c:	49 83 c4 18 	addq	$24, %r12
100001920:	4d 39 ec 	cmpq	%r13, %r12
100001923:	0f 85 07 ff ff ff 	jne	-249 <__Z5printRKNSt3__16vectorINS_12basic_stringIcNS_11char_traitsIcEENS_9allocatorIcEEEENS4_IS6_EEEE+0x40>
100001929:	48 8b 35 f0 46 00 00 	movq	18160(%rip), %rsi
100001930:	48 8b 06 	movq	(%rsi), %rax
100001933:	48 03 70 e8 	addq	-24(%rax), %rsi
100001937:	48 8d 5d d0 	leaq	-48(%rbp), %rbx
10000193b:	48 89 df 	movq	%rbx, %rdi
10000193e:	e8 95 37 00 00 	callq	14229
100001943:	48 8b 35 de 46 00 00 	movq	18142(%rip), %rsi
10000194a:	48 89 df 	movq	%rbx, %rdi
10000194d:	e8 80 37 00 00 	callq	14208
100001952:	48 8b 08 	movq	(%rax), %rcx
100001955:	be 0a 00 00 00 	movl	$10, %esi
10000195a:	48 89 c7 	movq	%rax, %rdi
10000195d:	ff 51 38 	callq	*56(%rcx)
100001960:	89 c3 	movl	%eax, %ebx
100001962:	48 8d 7d d0 	leaq	-48(%rbp), %rdi
100001966:	e8 c7 37 00 00 	callq	14279
10000196b:	0f be f3 	movsbl	%bl, %esi
10000196e:	48 8b 1d ab 46 00 00 	movq	18091(%rip), %rbx
100001975:	48 89 df 	movq	%rbx, %rdi
100001978:	e8 85 37 00 00 	callq	14213
10000197d:	48 89 df 	movq	%rbx, %rdi
100001980:	e8 83 37 00 00 	callq	14211
100001985:	48 83 c4 18 	addq	$24, %rsp
100001989:	5b 	popq	%rbx
10000198a:	41 5c 	popq	%r12
10000198c:	41 5d 	popq	%r13
10000198e:	41 5e 	popq	%r14
100001990:	41 5f 	popq	%r15
100001992:	5d 	popq	%rbp
100001993:	c3 	retq
100001994:	48 89 c3 	movq	%rax, %rbx
100001997:	48 8d 7d d0 	leaq	-48(%rbp), %rdi
10000199b:	e8 92 37 00 00 	callq	14226
1000019a0:	eb 14 	jmp	20 <__Z5printRKNSt3__16vectorINS_12basic_stringIcNS_11char_traitsIcEENS_9allocatorIcEEEENS4_IS6_EEEE+0x1c6>
1000019a2:	48 89 c7 	movq	%rax, %rdi
1000019a5:	e8 e6 fd ff ff 	callq	-538 <___clang_call_terminate>
1000019aa:	48 89 c3 	movq	%rax, %rbx
1000019ad:	48 8d 7d d0 	leaq	-48(%rbp), %rdi
1000019b1:	e8 7c 37 00 00 	callq	14204
1000019b6:	48 89 df 	movq	%rbx, %rdi
1000019b9:	e8 02 37 00 00 	callq	14082
1000019be:	0f 0b 	ud2
1000019c0:	48 89 c7 	movq	%rax, %rdi
1000019c3:	e8 c8 fd ff ff 	callq	-568 <___clang_call_terminate>
1000019c8:	0f 1f 84 00 00 00 00 00 	nopl	(%rax,%rax)
1000019d0:	55 	pushq	%rbp
1000019d1:	48 89 e5 	movq	%rsp, %rbp
1000019d4:	41 57 	pushq	%r15
1000019d6:	41 56 	pushq	%r14
1000019d8:	41 54 	pushq	%r12
1000019da:	53 	pushq	%rbx
1000019db:	49 89 fc 	movq	%rdi, %r12
1000019de:	49 c7 44 24 70 00 00 00 00 	movq	$0, 112(%r12)
1000019e7:	49 c7 44 24 68 00 00 00 00 	movq	$0, 104(%r12)
1000019f0:	49 c7 44 24 60 00 00 00 00 	movq	$0, 96(%r12)
1000019f9:	49 c7 44 24 58 00 00 00 00 	movq	$0, 88(%r12)
100001a02:	49 c7 44 24 50 00 00 00 00 	movq	$0, 80(%r12)
100001a0b:	49 c7 44 24 48 00 00 00 00 	movq	$0, 72(%r12)
100001a14:	49 c7 44 24 40 00 00 00 00 	movq	$0, 64(%r12)
100001a1d:	49 c7 44 24 38 00 00 00 00 	movq	$0, 56(%r12)
100001a26:	49 c7 44 24 30 00 00 00 00 	movq	$0, 48(%r12)
100001a2f:	49 c7 44 24 28 00 00 00 00 	movq	$0, 40(%r12)
100001a38:	49 c7 44 24 20 00 00 00 00 	movq	$0, 32(%r12)
100001a41:	49 c7 44 24 18 00 00 00 00 	movq	$0, 24(%r12)
100001a4a:	49 c7 44 24 10 00 00 00 00 	movq	$0, 16(%r12)
100001a53:	49 c7 44 24 08 00 00 00 00 	movq	$0, 8(%r12)
100001a5c:	49 c7 04 24 00 00 00 00 	movq	$0, (%r12)
100001a64:	bf 18 00 00 00 	movl	$24, %edi
100001a69:	e8 00 37 00 00 	callq	14080
100001a6e:	48 c7 40 10 00 00 00 00 	movq	$0, 16(%rax)
100001a76:	48 c7 40 08 00 00 00 00 	movq	$0, 8(%rax)
100001a7e:	48 c7 00 00 00 00 00 	movq	$0, (%rax)
100001a85:	49 89 44 24 78 	movq	%rax, 120(%r12)
100001a8a:	4c 89 e7 	movq	%r12, %rdi
100001a8d:	e8 3e 01 00 00 	callq	318 <__ZN2SE9load_dictEv>
100001a92:	5b 	popq	%rbx
100001a93:	41 5c 	popq	%r12
100001a95:	41 5e 	popq	%r14
100001a97:	41 5f 	popq	%r15
100001a99:	5d 	popq	%rbp
100001a9a:	c3 	retq
100001a9b:	49 89 c6 	movq	%rax, %r14
100001a9e:	41 f6 44 24 60 01 	testb	$1, 96(%r12)
100001aa4:	74 0a 	je	10 <__ZN2SEC2Ev+0xe0>
100001aa6:	49 8b 7c 24 70 	movq	112(%r12), %rdi
100001aab:	e8 b2 36 00 00 	callq	14002
100001ab0:	4d 8b 7c 24 48 	movq	72(%r12), %r15
100001ab5:	4d 85 ff 	testq	%r15, %r15
100001ab8:	74 39 	je	57 <__ZN2SEC2Ev+0x123>
100001aba:	49 8b 44 24 50 	movq	80(%r12), %rax
100001abf:	4c 39 f8 	cmpq	%r15, %rax
100001ac2:	74 22 	je	34 <__ZN2SEC2Ev+0x116>
100001ac4:	48 8d 58 e8 	leaq	-24(%rax), %rbx
100001ac8:	f6 40 e8 01 	testb	$1, -24(%rax)
100001acc:	74 09 	je	9 <__ZN2SEC2Ev+0x107>
100001ace:	48 8b 78 f8 	movq	-8(%rax), %rdi
100001ad2:	e8 8b 36 00 00 	callq	13963
100001ad7:	48 89 d8 	movq	%rbx, %rax
100001ada:	49 39 df 	cmpq	%rbx, %r15
100001add:	75 e5 	jne	-27 <__ZN2SEC2Ev+0xf4>
100001adf:	49 8b 7c 24 48 	movq	72(%r12), %rdi
100001ae4:	eb 03 	jmp	3 <__ZN2SEC2Ev+0x119>
100001ae6:	4c 89 ff 	movq	%r15, %rdi
100001ae9:	4d 89 7c 24 50 	movq	%r15, 80(%r12)
100001aee:	e8 6f 36 00 00 	callq	13935
100001af3:	4d 8b 7c 24 30 	movq	48(%r12), %r15
100001af8:	4d 85 ff 	testq	%r15, %r15
100001afb:	74 39 	je	57 <__ZN2SEC2Ev+0x166>
100001afd:	49 8b 44 24 38 	movq	56(%r12), %rax
100001b02:	4c 39 f8 	cmpq	%r15, %rax
100001b05:	74 22 	je	34 <__ZN2SEC2Ev+0x159>
100001b07:	48 8d 58 e8 	leaq	-24(%rax), %rbx
100001b0b:	f6 40 e8 01 	testb	$1, -24(%rax)
100001b0f:	74 09 	je	9 <__ZN2SEC2Ev+0x14a>
100001b11:	48 8b 78 f8 	movq	-8(%rax), %rdi
100001b15:	e8 48 36 00 00 	callq	13896
100001b1a:	48 89 d8 	movq	%rbx, %rax
100001b1d:	49 39 df 	cmpq	%rbx, %r15
100001b20:	75 e5 	jne	-27 <__ZN2SEC2Ev+0x137>
100001b22:	49 8b 7c 24 30 	movq	48(%r12), %rdi
100001b27:	eb 03 	jmp	3 <__ZN2SEC2Ev+0x15c>
100001b29:	4c 89 ff 	movq	%r15, %rdi
100001b2c:	4d 89 7c 24 38 	movq	%r15, 56(%r12)
100001b31:	e8 2c 36 00 00 	callq	13868
100001b36:	4d 8b 7c 24 18 	movq	24(%r12), %r15
100001b3b:	4d 85 ff 	testq	%r15, %r15
100001b3e:	74 39 	je	57 <__ZN2SEC2Ev+0x1a9>
100001b40:	49 8b 44 24 20 	movq	32(%r12), %rax
100001b45:	4c 39 f8 	cmpq	%r15, %rax
100001b48:	74 22 	je	34 <__ZN2SEC2Ev+0x19c>
100001b4a:	48 8d 58 e8 	leaq	-24(%rax), %rbx
100001b4e:	f6 40 e8 01 	testb	$1, -24(%rax)
100001b52:	74 09 	je	9 <__ZN2SEC2Ev+0x18d>
100001b54:	48 8b 78 f8 	movq	-8(%rax), %rdi
100001b58:	e8 05 36 00 00 	callq	13829
100001b5d:	48 89 d8 	movq	%rbx, %rax
100001b60:	49 39 df 	cmpq	%rbx, %r15
100001b63:	75 e5 	jne	-27 <__ZN2SEC2Ev+0x17a>
100001b65:	49 8b 7c 24 18 	movq	24(%r12), %rdi
100001b6a:	eb 03 	jmp	3 <__ZN2SEC2Ev+0x19f>
100001b6c:	4c 89 ff 	movq	%r15, %rdi
100001b6f:	4d 89 7c 24 20 	movq	%r15, 32(%r12)
100001b74:	e8 e9 35 00 00 	callq	13801
100001b79:	4d 8b 3c 24 	movq	(%r12), %r15
100001b7d:	4d 85 ff 	testq	%r15, %r15
100001b80:	74 37 	je	55 <__ZN2SEC2Ev+0x1e9>
100001b82:	49 8b 44 24 08 	movq	8(%r12), %rax
100001b87:	4c 39 f8 	cmpq	%r15, %rax
100001b8a:	74 37 	je	55 <__ZN2SEC2Ev+0x1f3>
100001b8c:	0f 1f 40 00 	nopl	(%rax)
100001b90:	48 8d 58 e8 	leaq	-24(%rax), %rbx
100001b94:	f6 40 e8 01 	testb	$1, -24(%rax)
100001b98:	74 09 	je	9 <__ZN2SEC2Ev+0x1d3>
100001b9a:	48 8b 78 f8 	movq	-8(%rax), %rdi
100001b9e:	e8 bf 35 00 00 	callq	13759
100001ba3:	48 89 d8 	movq	%rbx, %rax
100001ba6:	49 39 df 	cmpq	%rbx, %r15
100001ba9:	75 e5 	jne	-27 <__ZN2SEC2Ev+0x1c0>
100001bab:	49 8b 3c 24 	movq	(%r12), %rdi
100001baf:	4d 89 7c 24 08 	movq	%r15, 8(%r12)
100001bb4:	e8 a9 35 00 00 	callq	13737
100001bb9:	4c 89 f7 	movq	%r14, %rdi
100001bbc:	e8 ff 34 00 00 	callq	13567
100001bc1:	0f 0b 	ud2
100001bc3:	4c 89 ff 	movq	%r15, %rdi
100001bc6:	eb e7 	jmp	-25 <__ZN2SEC2Ev+0x1df>
100001bc8:	0f 1f 84 00 00 00 00 00 	nopl	(%rax,%rax)
100001bd0:	55 	pushq	%rbp
100001bd1:	48 89 e5 	movq	%rsp, %rbp
100001bd4:	41 57 	pushq	%r15
100001bd6:	41 56 	pushq	%r14
100001bd8:	41 55 	pushq	%r13
100001bda:	41 54 	pushq	%r12
100001bdc:	53 	pushq	%rbx
100001bdd:	48 81 ec 88 02 00 00 	subq	$648, %rsp
100001be4:	48 89 bd 58 fd ff ff 	movq	%rdi, -680(%rbp)
100001beb:	48 8b 05 7e 44 00 00 	movq	17534(%rip), %rax
100001bf2:	48 8b 00 	movq	(%rax), %rax
100001bf5:	48 89 45 d0 	movq	%rax, -48(%rbp)
100001bf9:	48 8d bd 38 ff ff ff 	leaq	-200(%rbp), %rdi
100001c00:	4c 8d b5 a0 fd ff ff 	leaq	-608(%rbp), %r14
100001c07:	48 8b 05 32 44 00 00 	movq	17458(%rip), %rax
100001c0e:	48 8d 48 40 	leaq	64(%rax), %rcx
100001c12:	48 89 8d 38 ff ff ff 	movq	%rcx, -200(%rbp)
100001c19:	48 83 c0 18 	addq	$24, %rax
100001c1d:	66 48 0f 6e c0 	movq	%rax, %xmm0
100001c22:	66 0f 7f 85 90 fd ff ff 	movdqa	%xmm0, -624(%rbp)
100001c2a:	4c 89 f6 	movq	%r14, %rsi
100001c2d:	e8 0c 35 00 00 	callq	13580
100001c32:	48 c7 45 c0 00 00 00 00 	movq	$0, -64(%rbp)
100001c3a:	c7 45 c8 ff ff ff ff 	movl	$4294967295, -56(%rbp)
100001c41:	4c 8b 3d 18 44 00 00 	movq	17432(%rip), %r15
100001c48:	49 8d 5f 18 	leaq	24(%r15), %rbx
100001c4c:	48 89 9d 90 fd ff ff 	movq	%rbx, -624(%rbp)
100001c53:	49 83 c7 40 	addq	$64, %r15
100001c57:	4c 89 bd 38 ff ff ff 	movq	%r15, -200(%rbp)
100001c5e:	4c 89 f7 	movq	%r14, %rdi
100001c61:	e8 ea 1f 00 00 	callq	8170 <__ZNSt3__113basic_filebufIcNS_11char_traitsIcEEEC2Ev>
100001c66:	48 83 bd 18 fe ff ff 00 	cmpq	$0, -488(%rbp)
100001c6e:	74 24 	je	36 <__ZN2SE9load_dictEv+0xc4>
100001c70:	48 8b 85 90 fd ff ff 	movq	-624(%rbp), %rax
100001c77:	48 8b 40 e8 	movq	-24(%rax), %rax
100001c7b:	48 8d bc 05 90 fd ff ff 	leaq	-624(%rbp,%rax), %rdi
100001c83:	8b b4 05 b0 fd ff ff 	movl	-592(%rbp,%rax), %esi
100001c8a:	83 ce 04 	orl	$4, %esi
100001c8d:	e8 b2 34 00 00 	callq	13490
100001c92:	eb 42 	jmp	66 <__ZN2SE9load_dictEv+0x106>
100001c94:	48 8d 3d 76 40 00 00 	leaq	16502(%rip), %rdi
100001c9b:	48 8d 35 41 41 00 00 	leaq	16705(%rip), %rsi
100001ca2:	e8 0f 35 00 00 	callq	13583
100001ca7:	48 89 85 18 fe ff ff 	movq	%rax, -488(%rbp)
100001cae:	48 85 c0 	testq	%rax, %rax
100001cb1:	74 bd 	je	-67 <__ZN2SE9load_dictEv+0xa0>
100001cb3:	c7 85 28 ff ff ff 08 00 00 00 	movl	$8, -216(%rbp)
100001cbd:	48 8b 85 90 fd ff ff 	movq	-624(%rbp), %rax
100001cc4:	48 8d bd 90 fd ff ff 	leaq	-624(%rbp), %rdi
100001ccb:	48 03 78 e8 	addq	-24(%rax), %rdi
100001ccf:	31 f6 	xorl	%esi, %esi
100001cd1:	e8 6e 34 00 00 	callq	13422
100001cd6:	48 89 9d 60 fd ff ff 	movq	%rbx, -672(%rbp)
100001cdd:	66 0f ef c0 	pxor	%xmm0, %xmm0
100001ce1:	66 0f 7f 85 70 fd ff ff 	movdqa	%xmm0, -656(%rbp)
100001ce9:	48 c7 85 80 fd ff ff 00 00 00 00 	movq	$0, -640(%rbp)
100001cf4:	48 8b 85 90 fd ff ff 	movq	-624(%rbp), %rax
100001cfb:	48 8b 40 e8 	movq	-24(%rax), %rax
100001cff:	f6 84 05 b0 fd ff ff 02 	testb	$2, -592(%rbp,%rax)
100001d07:	0f 85 c7 00 00 00 	jne	199 <__ZN2SE9load_dictEv+0x204>
100001d0d:	4c 8d ad 90 fd ff ff 	leaq	-624(%rbp), %r13
100001d14:	4c 8d a5 70 fd ff ff 	leaq	-656(%rbp), %r12
100001d1b:	4c 89 ef 	movq	%r13, %rdi
100001d1e:	4c 89 e6 	movq	%r12, %rsi
100001d21:	e8 1a 05 00 00 	callq	1306 <__ZNSt3__1rsIcNS_11char_traitsIcEENS_9allocatorIcEEEERNS_13basic_istreamIT_T0_EES9_RNS_12basic_stringIS6_S7_T1_EE>
100001d26:	8a 85 70 fd ff ff 	movb	-656(%rbp), %al
100001d2c:	48 8b 9d 80 fd ff ff 	movq	-640(%rbp), %rbx
100001d33:	48 8b 8d 78 fd ff ff 	movq	-648(%rbp), %rcx
100001d3a:	48 01 d9 	addq	%rbx, %rcx
100001d3d:	89 c2 	movl	%eax, %edx
100001d3f:	d0 ea 	shrb	%dl
100001d41:	a8 01 	testb	$1, %al
100001d43:	0f b6 c2 	movzbl	%dl, %eax
100001d46:	4c 8d b4 05 71 fd ff ff 	leaq	-655(%rbp,%rax), %r14
100001d4e:	4c 0f 45 f1 	cmovneq	%rcx, %r14
100001d52:	48 8d 85 71 fd ff ff 	leaq	-655(%rbp), %rax
100001d59:	48 0f 44 d8 	cmoveq	%rax, %rbx
100001d5d:	4c 39 f3 	cmpq	%r14, %rbx
100001d60:	74 20 	je	32 <__ZN2SE9load_dictEv+0x1b2>
100001d62:	66 66 66 66 66 2e 0f 1f 84 00 00 00 00 00 	nopw	%cs:(%rax,%rax)
100001d70:	0f be 3b 	movsbl	(%rbx), %edi
100001d73:	e8 2c 34 00 00 	callq	13356
100001d78:	88 03 	movb	%al, (%rbx)
100001d7a:	48 ff c3 	incq	%rbx
100001d7d:	49 39 de 	cmpq	%rbx, %r14
100001d80:	75 ee 	jne	-18 <__ZN2SE9load_dictEv+0x1a0>
100001d82:	48 8b 85 58 fd ff ff 	movq	-680(%rbp), %rax
100001d89:	4c 8b 70 78 	movq	120(%rax), %r14
100001d8d:	49 8b 7e 08 	movq	8(%r14), %rdi
100001d91:	49 3b 7e 10 	cmpq	16(%r14), %rdi
100001d95:	74 19 	je	25 <__ZN2SE9load_dictEv+0x1e0>
100001d97:	4c 89 e6 	movq	%r12, %rsi
100001d9a:	e8 45 33 00 00 	callq	13125
100001d9f:	49 83 46 08 18 	addq	$24, 8(%r14)
100001da4:	eb 15 	jmp	21 <__ZN2SE9load_dictEv+0x1eb>
100001da6:	66 2e 0f 1f 84 00 00 00 00 00 	nopw	%cs:(%rax,%rax)
100001db0:	4c 89 f7 	movq	%r14, %rdi
100001db3:	4c 89 e6 	movq	%r12, %rsi
100001db6:	e8 a5 1f 00 00 	callq	8101 <__ZNSt3__16vectorINS_12basic_stringIcNS_11char_traitsIcEENS_9allocatorIcEEEENS4_IS6_EEE21__push_back_slow_pathIKS6_EEvRT_>
100001dbb:	48 8b 85 90 fd ff ff 	movq	-624(%rbp), %rax
100001dc2:	48 8b 40 e8 	movq	-24(%rax), %rax
100001dc6:	f6 84 05 b0 fd ff ff 02 	testb	$2, -592(%rbp,%rax)
100001dce:	0f 84 47 ff ff ff 	je	-185 <__ZN2SE9load_dictEv+0x14b>
100001dd4:	48 8b 3d 45 42 00 00 	movq	16965(%rip), %rdi
100001ddb:	48 8d 35 33 3f 00 00 	leaq	16179(%rip), %rsi
100001de2:	ba 11 00 00 00 	movl	$17, %edx
100001de7:	4c 8d a5 a0 fd ff ff 	leaq	-608(%rbp), %r12
100001dee:	e8 dd f6 ff ff 	callq	-2339 <__ZNSt3__124__put_character_sequenceIcNS_11char_traitsIcEEEERNS_13basic_ostreamIT_T0_EES7_PKS4_m>
100001df3:	48 89 c3 	movq	%rax, %rbx
100001df6:	48 8b 03 	movq	(%rbx), %rax
100001df9:	48 8b 70 e8 	movq	-24(%rax), %rsi
100001dfd:	48 01 de 	addq	%rbx, %rsi
100001e00:	48 8d bd 68 fd ff ff 	leaq	-664(%rbp), %rdi
100001e07:	e8 cc 32 00 00 	callq	13004
100001e0c:	48 8b 35 15 42 00 00 	movq	16917(%rip), %rsi
100001e13:	48 8d bd 68 fd ff ff 	leaq	-664(%rbp), %rdi
100001e1a:	e8 b3 32 00 00 	callq	12979
100001e1f:	48 8b 08 	movq	(%rax), %rcx
100001e22:	be 0a 00 00 00 	movl	$10, %esi
100001e27:	48 89 c7 	movq	%rax, %rdi
100001e2a:	ff 51 38 	callq	*56(%rcx)
100001e2d:	41 89 c6 	movl	%eax, %r14d
100001e30:	48 8d bd 68 fd ff ff 	leaq	-664(%rbp), %rdi
100001e37:	e8 f6 32 00 00 	callq	13046
100001e3c:	41 0f be f6 	movsbl	%r14b, %esi
100001e40:	48 89 df 	movq	%rbx, %rdi
100001e43:	e8 ba 32 00 00 	callq	12986
100001e48:	48 89 df 	movq	%rbx, %rdi
100001e4b:	e8 b8 32 00 00 	callq	12984
100001e50:	48 8b 9d 18 fe ff ff 	movq	-488(%rbp), %rbx
100001e57:	48 85 db 	testq	%rbx, %rbx
100001e5a:	74 2c 	je	44 <__ZN2SE9load_dictEv+0x2b8>
100001e5c:	48 8b 85 a0 fd ff ff 	movq	-608(%rbp), %rax
100001e63:	4c 89 e7 	movq	%r12, %rdi
100001e66:	ff 50 30 	callq	*48(%rax)
100001e69:	41 89 c6 	movl	%eax, %r14d
100001e6c:	48 89 df 	movq	%rbx, %rdi
100001e6f:	e8 36 33 00 00 	callq	13110
100001e74:	85 c0 	testl	%eax, %eax
100001e76:	75 10 	jne	16 <__ZN2SE9load_dictEv+0x2b8>
100001e78:	48 c7 85 18 fe ff ff 00 00 00 00 	movq	$0, -488(%rbp)
100001e83:	45 85 f6 	testl	%r14d, %r14d
100001e86:	74 22 	je	34 <__ZN2SE9load_dictEv+0x2da>
100001e88:	48 8b 85 90 fd ff ff 	movq	-624(%rbp), %rax
100001e8f:	48 8b 40 e8 	movq	-24(%rax), %rax
100001e93:	48 8d bc 05 90 fd ff ff 	leaq	-624(%rbp,%rax), %rdi
100001e9b:	8b b4 05 b0 fd ff ff 	movl	-592(%rbp,%rax), %esi
100001ea2:	83 ce 04 	orl	$4, %esi
100001ea5:	e8 9a 32 00 00 	callq	12954
100001eaa:	f6 85 70 fd ff ff 01 	testb	$1, -656(%rbp)
100001eb1:	74 0c 	je	12 <__ZN2SE9load_dictEv+0x2ef>
100001eb3:	48 8b bd 80 fd ff ff 	movq	-640(%rbp), %rdi
100001eba:	e8 a3 32 00 00 	callq	12963
100001ebf:	48 8b 85 60 fd ff ff 	movq	-672(%rbp), %rax
100001ec6:	48 89 85 90 fd ff ff 	movq	%rax, -624(%rbp)
100001ecd:	4c 89 bd 38 ff ff ff 	movq	%r15, -200(%rbp)
100001ed4:	4c 89 e7 	movq	%r12, %rdi
100001ed7:	e8 44 0f 00 00 	callq	3908 <__ZNSt3__113basic_filebufIcNS_11char_traitsIcEEED2Ev>
100001edc:	48 8b 35 6d 41 00 00 	movq	16749(%rip), %rsi
100001ee3:	48 83 c6 08 	addq	$8, %rsi
100001ee7:	48 8d bd 90 fd ff ff 	leaq	-624(%rbp), %rdi
100001eee:	e8 03 32 00 00 	callq	12803
100001ef3:	48 8d bd 38 ff ff ff 	leaq	-200(%rbp), %rdi
100001efa:	e8 4b 32 00 00 	callq	12875
100001eff:	48 8b 05 6a 41 00 00 	movq	16746(%rip), %rax
100001f06:	48 8b 00 	movq	(%rax), %rax
100001f09:	48 3b 45 d0 	cmpq	-48(%rbp), %rax
100001f0d:	75 12 	jne	18 <__ZN2SE9load_dictEv+0x351>
100001f0f:	48 81 c4 88 02 00 00 	addq	$648, %rsp
100001f16:	5b 	popq	%rbx
100001f17:	41 5c 	popq	%r12
100001f19:	41 5d 	popq	%r13
100001f1b:	41 5e 	popq	%r14
100001f1d:	41 5f 	popq	%r15
100001f1f:	5d 	popq	%rbp
100001f20:	c3 	retq
100001f21:	e8 78 32 00 00 	callq	12920
100001f26:	49 89 c4 	movq	%rax, %r12
100001f29:	48 89 df 	movq	%rbx, %rdi
100001f2c:	e8 79 32 00 00 	callq	12921
100001f31:	e9 9d 00 00 00 	jmp	157 <__ZN2SE9load_dictEv+0x403>
100001f36:	49 89 c4 	movq	%rax, %r12
100001f39:	eb 1a 	jmp	26 <__ZN2SE9load_dictEv+0x385>
100001f3b:	49 89 c4 	movq	%rax, %r12
100001f3e:	48 8b 35 0b 41 00 00 	movq	16651(%rip), %rsi
100001f45:	48 83 c6 08 	addq	$8, %rsi
100001f49:	48 8d bd 90 fd ff ff 	leaq	-624(%rbp), %rdi
100001f50:	e8 a1 31 00 00 	callq	12705
100001f55:	48 8d bd 38 ff ff ff 	leaq	-200(%rbp), %rdi
100001f5c:	e8 e9 31 00 00 	callq	12777
100001f61:	e9 c6 00 00 00 	jmp	198 <__ZN2SE9load_dictEv+0x45c>
100001f66:	48 89 c7 	movq	%rax, %rdi
100001f69:	e8 22 f8 ff ff 	callq	-2014 <___clang_call_terminate>
100001f6e:	48 89 c7 	movq	%rax, %rdi
100001f71:	e8 1a f8 ff ff 	callq	-2022 <___clang_call_terminate>
100001f76:	49 89 c4 	movq	%rax, %r12
100001f79:	48 8b 35 d0 40 00 00 	movq	16592(%rip), %rsi
100001f80:	48 83 c6 08 	addq	$8, %rsi
100001f84:	48 8d bd 90 fd ff ff 	leaq	-624(%rbp), %rdi
100001f8b:	e8 66 31 00 00 	callq	12646
100001f90:	eb 03 	jmp	3 <__ZN2SE9load_dictEv+0x3c5>
100001f92:	49 89 c4 	movq	%rax, %r12
100001f95:	48 8d bd 38 ff ff ff 	leaq	-200(%rbp), %rdi
100001f9c:	e8 a9 31 00 00 	callq	12713
100001fa1:	e9 86 00 00 00 	jmp	134 <__ZN2SE9load_dictEv+0x45c>
100001fa6:	48 89 c7 	movq	%rax, %rdi
100001fa9:	e8 e2 f7 ff ff 	callq	-2078 <___clang_call_terminate>
100001fae:	49 89 c4 	movq	%rax, %r12
100001fb1:	48 8d bd 68 fd ff ff 	leaq	-664(%rbp), %rdi
100001fb8:	e8 75 31 00 00 	callq	12661
100001fbd:	eb 14 	jmp	20 <__ZN2SE9load_dictEv+0x403>
100001fbf:	48 89 c7 	movq	%rax, %rdi
100001fc2:	e8 c9 f7 ff ff 	callq	-2103 <___clang_call_terminate>
100001fc7:	49 89 c4 	movq	%rax, %r12
100001fca:	eb 23 	jmp	35 <__ZN2SE9load_dictEv+0x41f>
100001fcc:	eb 02 	jmp	2 <__ZN2SE9load_dictEv+0x400>
100001fce:	eb 00 	jmp	0 <__ZN2SE9load_dictEv+0x400>
100001fd0:	49 89 c4 	movq	%rax, %r12
100001fd3:	f6 85 70 fd ff ff 01 	testb	$1, -656(%rbp)
100001fda:	48 8b 9d 60 fd ff ff 	movq	-672(%rbp), %rbx
100001fe1:	74 0c 	je	12 <__ZN2SE9load_dictEv+0x41f>
100001fe3:	48 8b bd 80 fd ff ff 	movq	-640(%rbp), %rdi
100001fea:	e8 73 31 00 00 	callq	12659
100001fef:	48 89 9d 90 fd ff ff 	movq	%rbx, -624(%rbp)
100001ff6:	4c 89 bd 38 ff ff ff 	movq	%r15, -200(%rbp)
100001ffd:	48 8d bd a0 fd ff ff 	leaq	-608(%rbp), %rdi
100002004:	e8 17 0e 00 00 	callq	3607 <__ZNSt3__113basic_filebufIcNS_11char_traitsIcEEED2Ev>
100002009:	48 8b 35 40 40 00 00 	movq	16448(%rip), %rsi
100002010:	48 83 c6 08 	addq	$8, %rsi
100002014:	48 8d bd 90 fd ff ff 	leaq	-624(%rbp), %rdi
10000201b:	e8 d6 30 00 00 	callq	12502
100002020:	48 8d bd 38 ff ff ff 	leaq	-200(%rbp), %rdi
100002027:	e8 1e 31 00 00 	callq	12574
10000202c:	4c 89 e7 	movq	%r12, %rdi
10000202f:	e8 8c 30 00 00 	callq	12428
100002034:	0f 0b 	ud2
100002036:	48 89 c3 	movq	%rax, %rbx
100002039:	48 89 df 	movq	%rbx, %rdi
10000203c:	e8 4f f7 ff ff 	callq	-2225 <___clang_call_terminate>
100002041:	48 89 c3 	movq	%rax, %rbx
100002044:	eb 1a 	jmp	26 <__ZN2SE9load_dictEv+0x490>
100002046:	48 89 c3 	movq	%rax, %rbx
100002049:	48 8b 35 00 40 00 00 	movq	16384(%rip), %rsi
100002050:	48 83 c6 08 	addq	$8, %rsi
100002054:	48 8d bd 90 fd ff ff 	leaq	-624(%rbp), %rdi
10000205b:	e8 96 30 00 00 	callq	12438
100002060:	48 8d bd 38 ff ff ff 	leaq	-200(%rbp), %rdi
100002067:	e8 de 30 00 00 	callq	12510
10000206c:	48 89 df 	movq	%rbx, %rdi
10000206f:	e8 1c f7 ff ff 	callq	-2276 <___clang_call_terminate>
100002074:	48 89 c7 	movq	%rax, %rdi
100002077:	e8 14 f7 ff ff 	callq	-2284 <___clang_call_terminate>
10000207c:	48 89 c7 	movq	%rax, %rdi
10000207f:	e8 0c f7 ff ff 	callq	-2292 <___clang_call_terminate>
100002084:	66 66 66 2e 0f 1f 84 00 00 00 00 00 	nopw	%cs:(%rax,%rax)
100002090:	55 	pushq	%rbp
100002091:	48 89 e5 	movq	%rsp, %rbp
100002094:	5d 	popq	%rbp
100002095:	e9 36 f9 ff ff 	jmp	-1738 <__ZN2SEC2Ev>
10000209a:	66 0f 1f 44 00 00 	nopw	(%rax,%rax)
1000020a0:	55 	pushq	%rbp
1000020a1:	48 89 e5 	movq	%rsp, %rbp
1000020a4:	41 57 	pushq	%r15
1000020a6:	41 56 	pushq	%r14
1000020a8:	41 54 	pushq	%r12
1000020aa:	53 	pushq	%rbx
1000020ab:	49 89 fe 	movq	%rdi, %r14
1000020ae:	4d 8b 7e 78 	movq	120(%r14), %r15
1000020b2:	4d 85 ff 	testq	%r15, %r15
1000020b5:	74 4d 	je	77 <__ZN2SED2Ev+0x64>
1000020b7:	4d 8b 27 	movq	(%r15), %r12
1000020ba:	4d 85 e4 	testq	%r12, %r12
1000020bd:	74 3d 	je	61 <__ZN2SED2Ev+0x5c>
1000020bf:	49 8b 47 08 	movq	8(%r15), %rax
1000020c3:	4c 39 e0 	cmpq	%r12, %rax
1000020c6:	74 28 	je	40 <__ZN2SED2Ev+0x50>
1000020c8:	0f 1f 84 00 00 00 00 00 	nopl	(%rax,%rax)
1000020d0:	48 8d 58 e8 	leaq	-24(%rax), %rbx
1000020d4:	f6 40 e8 01 	testb	$1, -24(%rax)
1000020d8:	74 09 	je	9 <__ZN2SED2Ev+0x43>
1000020da:	48 8b 78 f8 	movq	-8(%rax), %rdi
1000020de:	e8 7f 30 00 00 	callq	12415
1000020e3:	48 89 d8 	movq	%rbx, %rax
1000020e6:	49 39 dc 	cmpq	%rbx, %r12
1000020e9:	75 e5 	jne	-27 <__ZN2SED2Ev+0x30>
1000020eb:	49 8b 3f 	movq	(%r15), %rdi
1000020ee:	eb 03 	jmp	3 <__ZN2SED2Ev+0x53>
1000020f0:	4c 89 e7 	movq	%r12, %rdi
1000020f3:	4d 89 67 08 	movq	%r12, 8(%r15)
1000020f7:	e8 66 30 00 00 	callq	12390
1000020fc:	4c 89 ff 	movq	%r15, %rdi
1000020ff:	e8 5e 30 00 00 	callq	12382
100002104:	41 f6 46 60 01 	testb	$1, 96(%r14)
100002109:	74 09 	je	9 <__ZN2SED2Ev+0x74>
10000210b:	49 8b 7e 70 	movq	112(%r14), %rdi
10000210f:	e8 4e 30 00 00 	callq	12366
100002114:	4d 8b 7e 48 	movq	72(%r14), %r15
100002118:	4d 85 ff 	testq	%r15, %r15
10000211b:	74 40 	je	64 <__ZN2SED2Ev+0xbd>
10000211d:	49 8b 46 50 	movq	80(%r14), %rax
100002121:	4c 39 f8 	cmpq	%r15, %rax
100002124:	74 2b 	je	43 <__ZN2SED2Ev+0xb1>
100002126:	66 2e 0f 1f 84 00 00 00 00 00 	nopw	%cs:(%rax,%rax)
100002130:	48 8d 58 e8 	leaq	-24(%rax), %rbx
100002134:	f6 40 e8 01 	testb	$1, -24(%rax)
100002138:	74 09 	je	9 <__ZN2SED2Ev+0xa3>
10000213a:	48 8b 78 f8 	movq	-8(%rax), %rdi
10000213e:	e8 1f 30 00 00 	callq	12319
100002143:	48 89 d8 	movq	%rbx, %rax
100002146:	49 39 df 	cmpq	%rbx, %r15
100002149:	75 e5 	jne	-27 <__ZN2SED2Ev+0x90>
10000214b:	49 8b 7e 48 	movq	72(%r14), %rdi
10000214f:	eb 03 	jmp	3 <__ZN2SED2Ev+0xb4>
100002151:	4c 89 ff 	movq	%r15, %rdi
100002154:	4d 89 7e 50 	movq	%r15, 80(%r14)
100002158:	e8 05 30 00 00 	callq	12293
10000215d:	4d 8b 7e 30 	movq	48(%r14), %r15
100002161:	4d 85 ff 	testq	%r15, %r15
100002164:	74 37 	je	55 <__ZN2SED2Ev+0xfd>
100002166:	49 8b 46 38 	movq	56(%r14), %rax
10000216a:	4c 39 f8 	cmpq	%r15, %rax
10000216d:	74 22 	je	34 <__ZN2SED2Ev+0xf1>
10000216f:	90 	nop
100002170:	48 8d 58 e8 	leaq	-24(%rax), %rbx
100002174:	f6 40 e8 01 	testb	$1, -24(%rax)
100002178:	74 09 	je	9 <__ZN2SED2Ev+0xe3>
10000217a:	48 8b 78 f8 	movq	-8(%rax), %rdi
10000217e:	e8 df 2f 00 00 	callq	12255
100002183:	48 89 d8 	movq	%rbx, %rax
100002186:	49 39 df 	cmpq	%rbx, %r15
100002189:	75 e5 	jne	-27 <__ZN2SED2Ev+0xd0>
10000218b:	49 8b 7e 30 	movq	48(%r14), %rdi
10000218f:	eb 03 	jmp	3 <__ZN2SED2Ev+0xf4>
100002191:	4c 89 ff 	movq	%r15, %rdi
100002194:	4d 89 7e 38 	movq	%r15, 56(%r14)
100002198:	e8 c5 2f 00 00 	callq	12229
10000219d:	4d 8b 7e 18 	movq	24(%r14), %r15
1000021a1:	4d 85 ff 	testq	%r15, %r15
1000021a4:	74 37 	je	55 <__ZN2SED2Ev+0x13d>
1000021a6:	49 8b 46 20 	movq	32(%r14), %rax
1000021aa:	4c 39 f8 	cmpq	%r15, %rax
1000021ad:	74 22 	je	34 <__ZN2SED2Ev+0x131>
1000021af:	90 	nop
1000021b0:	48 8d 58 e8 	leaq	-24(%rax), %rbx
1000021b4:	f6 40 e8 01 	testb	$1, -24(%rax)
1000021b8:	74 09 	je	9 <__ZN2SED2Ev+0x123>
1000021ba:	48 8b 78 f8 	movq	-8(%rax), %rdi
1000021be:	e8 9f 2f 00 00 	callq	12191
1000021c3:	48 89 d8 	movq	%rbx, %rax
1000021c6:	49 39 df 	cmpq	%rbx, %r15
1000021c9:	75 e5 	jne	-27 <__ZN2SED2Ev+0x110>
1000021cb:	49 8b 7e 18 	movq	24(%r14), %rdi
1000021cf:	eb 03 	jmp	3 <__ZN2SED2Ev+0x134>
1000021d1:	4c 89 ff 	movq	%r15, %rdi
1000021d4:	4d 89 7e 20 	movq	%r15, 32(%r14)
1000021d8:	e8 85 2f 00 00 	callq	12165
1000021dd:	4d 8b 3e 	movq	(%r14), %r15
1000021e0:	4d 85 ff 	testq	%r15, %r15
1000021e3:	74 2b 	je	43 <__ZN2SED2Ev+0x170>
1000021e5:	49 8b 46 08 	movq	8(%r14), %rax
1000021e9:	4c 39 f8 	cmpq	%r15, %rax
1000021ec:	74 2b 	je	43 <__ZN2SED2Ev+0x179>
1000021ee:	66 90 	nop
1000021f0:	48 8d 58 e8 	leaq	-24(%rax), %rbx
1000021f4:	f6 40 e8 01 	testb	$1, -24(%rax)
1000021f8:	74 09 	je	9 <__ZN2SED2Ev+0x163>
1000021fa:	48 8b 78 f8 	movq	-8(%rax), %rdi
1000021fe:	e8 5f 2f 00 00 	callq	12127
100002203:	48 89 d8 	movq	%rbx, %rax
100002206:	49 39 df 	cmpq	%rbx, %r15
100002209:	75 e5 	jne	-27 <__ZN2SED2Ev+0x150>
10000220b:	49 8b 3e 	movq	(%r14), %rdi
10000220e:	eb 0c 	jmp	12 <__ZN2SED2Ev+0x17c>
100002210:	5b 	popq	%rbx
100002211:	41 5c 	popq	%r12
100002213:	41 5e 	popq	%r14
100002215:	41 5f 	popq	%r15
100002217:	5d 	popq	%rbp
100002218:	c3 	retq
100002219:	4c 89 ff 	movq	%r15, %rdi
10000221c:	4d 89 7e 08 	movq	%r15, 8(%r14)
100002220:	5b 	popq	%rbx
100002221:	41 5c 	popq	%r12
100002223:	41 5e 	popq	%r14
100002225:	41 5f 	popq	%r15
100002227:	5d 	popq	%rbp
100002228:	e9 35 2f 00 00 	jmp	12085
10000222d:	0f 1f 00 	nopl	(%rax)
100002230:	55 	pushq	%rbp
100002231:	48 89 e5 	movq	%rsp, %rbp
100002234:	5d 	popq	%rbp
100002235:	e9 66 fe ff ff 	jmp	-410 <__ZN2SED2Ev>
10000223a:	66 0f 1f 44 00 00 	nopw	(%rax,%rax)
100002240:	55 	pushq	%rbp
100002241:	48 89 e5 	movq	%rsp, %rbp
100002244:	41 57 	pushq	%r15
100002246:	41 56 	pushq	%r14
100002248:	41 55 	pushq	%r13
10000224a:	41 54 	pushq	%r12
10000224c:	53 	pushq	%rbx
10000224d:	48 83 ec 18 	subq	$24, %rsp
100002251:	49 89 f6 	movq	%rsi, %r14
100002254:	49 89 fd 	movq	%rdi, %r13
100002257:	48 8d 7d d0 	leaq	-48(%rbp), %rdi
10000225b:	31 d2 	xorl	%edx, %edx
10000225d:	4c 89 ee 	movq	%r13, %rsi
100002260:	e8 8b 2e 00 00 	callq	11915
100002265:	80 7d d0 00 	cmpb	$0, -48(%rbp)
100002269:	74 0e 	je	14 <__ZNSt3__1rsIcNS_11char_traitsIcEENS_9allocatorIcEEEERNS_13basic_istreamIT_T0_EES9_RNS_12basic_stringIS6_S7_T1_EE+0x39>
10000226b:	41 f6 06 01 	testb	$1, (%r14)
10000226f:	75 27 	jne	39 <__ZNSt3__1rsIcNS_11char_traitsIcEENS_9allocatorIcEEEERNS_13basic_istreamIT_T0_EES9_RNS_12basic_stringIS6_S7_T1_EE+0x58>
100002271:	66 41 c7 06 00 00 	movw	$0, (%r14)
100002277:	eb 2e 	jmp	46 <__ZNSt3__1rsIcNS_11char_traitsIcEENS_9allocatorIcEEEERNS_13basic_istreamIT_T0_EES9_RNS_12basic_stringIS6_S7_T1_EE+0x67>
100002279:	49 8b 45 00 	movq	(%r13), %rax
10000227d:	48 8b 40 e8 	movq	-24(%rax), %rax
100002281:	49 8d 7c 05 00 	leaq	(%r13,%rax), %rdi
100002286:	41 8b 74 05 20 	movl	32(%r13,%rax), %esi
10000228b:	83 ce 04 	orl	$4, %esi
10000228e:	e8 b1 2e 00 00 	callq	11953
100002293:	e9 62 01 00 00 	jmp	354 <__ZNSt3__1rsIcNS_11char_traitsIcEENS_9allocatorIcEEEERNS_13basic_istreamIT_T0_EES9_RNS_12basic_stringIS6_S7_T1_EE+0x1ba>
100002298:	49 8b 46 10 	movq	16(%r14), %rax
10000229c:	c6 00 00 	movb	$0, (%rax)
10000229f:	49 c7 46 08 00 00 00 00 	movq	$0, 8(%r14)
1000022a7:	49 8b 45 00 	movq	(%r13), %rax
1000022ab:	48 8b 40 e8 	movq	-24(%rax), %rax
1000022af:	49 8d 74 05 00 	leaq	(%r13,%rax), %rsi
1000022b4:	49 8b 44 05 18 	movq	24(%r13,%rax), %rax
1000022b9:	48 85 c0 	testq	%rax, %rax
1000022bc:	49 bc ff ff ff ff ff ff ff 7f 	movabsq	$9223372036854775807, %r12
1000022c6:	4c 0f 4f e0 	cmovgq	%rax, %r12
1000022ca:	48 8d 7d c8 	leaq	-56(%rbp), %rdi
1000022ce:	e8 05 2e 00 00 	callq	11781
1000022d3:	48 8b 35 4e 3d 00 00 	movq	15694(%rip), %rsi
1000022da:	48 8d 7d c8 	leaq	-56(%rbp), %rdi
1000022de:	e8 ef 2d 00 00 	callq	11759
1000022e3:	49 89 c7 	movq	%rax, %r15
1000022e6:	48 8d 7d c8 	leaq	-56(%rbp), %rdi
1000022ea:	e8 43 2e 00 00 	callq	11843
1000022ef:	31 db 	xorl	%ebx, %ebx
1000022f1:	4d 85 e4 	testq	%r12, %r12
1000022f4:	0f 8e 8d 00 00 00 	jle	141 <__ZNSt3__1rsIcNS_11char_traitsIcEENS_9allocatorIcEEEERNS_13basic_istreamIT_T0_EES9_RNS_12basic_stringIS6_S7_T1_EE+0x147>
1000022fa:	66 0f 1f 44 00 00 	nopw	(%rax,%rax)
100002300:	49 8b 45 00 	movq	(%r13), %rax
100002304:	48 8b 40 e8 	movq	-24(%rax), %rax
100002308:	49 8b 7c 05 28 	movq	40(%r13,%rax), %rdi
10000230d:	48 8b 47 18 	movq	24(%rdi), %rax
100002311:	48 3b 47 20 	cmpq	32(%rdi), %rax
100002315:	74 09 	je	9 <__ZNSt3__1rsIcNS_11char_traitsIcEENS_9allocatorIcEEEERNS_13basic_istreamIT_T0_EES9_RNS_12basic_stringIS6_S7_T1_EE+0xe0>
100002317:	0f b6 00 	movzbl	(%rax), %eax
10000231a:	84 c0 	testb	%al, %al
10000231c:	79 15 	jns	21 <__ZNSt3__1rsIcNS_11char_traitsIcEENS_9allocatorIcEEEERNS_13basic_istreamIT_T0_EES9_RNS_12basic_stringIS6_S7_T1_EE+0xf3>
10000231e:	eb 22 	jmp	34 <__ZNSt3__1rsIcNS_11char_traitsIcEENS_9allocatorIcEEEERNS_13basic_istreamIT_T0_EES9_RNS_12basic_stringIS6_S7_T1_EE+0x102>
100002320:	48 8b 07 	movq	(%rdi), %rax
100002323:	ff 50 48 	callq	*72(%rax)
100002326:	83 f8 ff 	cmpl	$-1, %eax
100002329:	0f 84 8b 00 00 00 	je	139 <__ZNSt3__1rsIcNS_11char_traitsIcEENS_9allocatorIcEEEERNS_13basic_istreamIT_T0_EES9_RNS_12basic_stringIS6_S7_T1_EE+0x17a>
10000232f:	84 c0 	testb	%al, %al
100002331:	78 0f 	js	15 <__ZNSt3__1rsIcNS_11char_traitsIcEENS_9allocatorIcEEEERNS_13basic_istreamIT_T0_EES9_RNS_12basic_stringIS6_S7_T1_EE+0x102>
100002333:	49 8b 4f 10 	movq	16(%r15), %rcx
100002337:	48 0f be d0 	movsbq	%al, %rdx
10000233b:	f6 44 91 01 40 	testb	$64, 1(%rcx,%rdx,4)
100002340:	75 45 	jne	69 <__ZNSt3__1rsIcNS_11char_traitsIcEENS_9allocatorIcEEEERNS_13basic_istreamIT_T0_EES9_RNS_12basic_stringIS6_S7_T1_EE+0x147>
100002342:	0f be f0 	movsbl	%al, %esi
100002345:	4c 89 f7 	movq	%r14, %rdi
100002348:	e8 91 2d 00 00 	callq	11665
10000234d:	49 8b 45 00 	movq	(%r13), %rax
100002351:	48 8b 40 e8 	movq	-24(%rax), %rax
100002355:	49 8b 7c 05 28 	movq	40(%r13,%rax), %rdi
10000235a:	48 8b 47 18 	movq	24(%rdi), %rax
10000235e:	48 3b 47 20 	cmpq	32(%rdi), %rax
100002362:	74 0c 	je	12 <__ZNSt3__1rsIcNS_11char_traitsIcEENS_9allocatorIcEEEERNS_13basic_istreamIT_T0_EES9_RNS_12basic_stringIS6_S7_T1_EE+0x130>
100002364:	48 ff c0 	incq	%rax
100002367:	48 89 47 18 	movq	%rax, 24(%rdi)
10000236b:	eb 09 	jmp	9 <__ZNSt3__1rsIcNS_11char_traitsIcEENS_9allocatorIcEEEERNS_13basic_istreamIT_T0_EES9_RNS_12basic_stringIS6_S7_T1_EE+0x136>
10000236d:	0f 1f 00 	nopl	(%rax)
100002370:	48 8b 07 	movq	(%rdi), %rax
100002373:	ff 50 50 	callq	*80(%rax)
100002376:	48 ff c3 	incq	%rbx
100002379:	4c 39 e3 	cmpq	%r12, %rbx
10000237c:	7c 82 	jl	-126 <__ZNSt3__1rsIcNS_11char_traitsIcEENS_9allocatorIcEEEERNS_13basic_istreamIT_T0_EES9_RNS_12basic_stringIS6_S7_T1_EE+0xc0>
10000237e:	31 c0 	xorl	%eax, %eax
100002380:	bb 01 00 00 00 	movl	$1, %ebx
100002385:	eb 02 	jmp	2 <__ZNSt3__1rsIcNS_11char_traitsIcEENS_9allocatorIcEEEERNS_13basic_istreamIT_T0_EES9_RNS_12basic_stringIS6_S7_T1_EE+0x149>
100002387:	31 c0 	xorl	%eax, %eax
100002389:	49 8b 4d 00 	movq	(%r13), %rcx
10000238d:	48 8b 51 e8 	movq	-24(%rcx), %rdx
100002391:	49 c7 44 15 18 00 00 00 00 	movq	$0, 24(%r13,%rdx)
10000239a:	89 c6 	movl	%eax, %esi
10000239c:	83 ce 04 	orl	$4, %esi
10000239f:	48 85 db 	testq	%rbx, %rbx
1000023a2:	0f 45 f0 	cmovnel	%eax, %esi
1000023a5:	48 8b 41 e8 	movq	-24(%rcx), %rax
1000023a9:	49 8d 7c 05 00 	leaq	(%r13,%rax), %rdi
1000023ae:	41 0b 74 05 20 	orl	32(%r13,%rax), %esi
1000023b3:	e8 8c 2d 00 00 	callq	11660
1000023b8:	eb 40 	jmp	64 <__ZNSt3__1rsIcNS_11char_traitsIcEENS_9allocatorIcEEEERNS_13basic_istreamIT_T0_EES9_RNS_12basic_stringIS6_S7_T1_EE+0x1ba>
1000023ba:	b8 02 00 00 00 	movl	$2, %eax
1000023bf:	eb c8 	jmp	-56 <__ZNSt3__1rsIcNS_11char_traitsIcEENS_9allocatorIcEEEERNS_13basic_istreamIT_T0_EES9_RNS_12basic_stringIS6_S7_T1_EE+0x149>
1000023c1:	eb 14 	jmp	20 <__ZNSt3__1rsIcNS_11char_traitsIcEENS_9allocatorIcEEEERNS_13basic_istreamIT_T0_EES9_RNS_12basic_stringIS6_S7_T1_EE+0x197>
1000023c3:	49 89 c6 	movq	%rax, %r14
1000023c6:	48 8d 7d c8 	leaq	-56(%rbp), %rdi
1000023ca:	e8 63 2d 00 00 	callq	11619
1000023cf:	eb 09 	jmp	9 <__ZNSt3__1rsIcNS_11char_traitsIcEENS_9allocatorIcEEEERNS_13basic_istreamIT_T0_EES9_RNS_12basic_stringIS6_S7_T1_EE+0x19a>
1000023d1:	eb 04 	jmp	4 <__ZNSt3__1rsIcNS_11char_traitsIcEENS_9allocatorIcEEEERNS_13basic_istreamIT_T0_EES9_RNS_12basic_stringIS6_S7_T1_EE+0x197>
1000023d3:	eb 02 	jmp	2 <__ZNSt3__1rsIcNS_11char_traitsIcEENS_9allocatorIcEEEERNS_13basic_istreamIT_T0_EES9_RNS_12basic_stringIS6_S7_T1_EE+0x197>
1000023d5:	eb 00 	jmp	0 <__ZNSt3__1rsIcNS_11char_traitsIcEENS_9allocatorIcEEEERNS_13basic_istreamIT_T0_EES9_RNS_12basic_stringIS6_S7_T1_EE+0x197>
1000023d7:	49 89 c6 	movq	%rax, %r14
1000023da:	4d 89 ef 	movq	%r13, %r15
1000023dd:	4c 89 f7 	movq	%r14, %rdi
1000023e0:	e8 9b 2d 00 00 	callq	11675
1000023e5:	49 8b 45 00 	movq	(%r13), %rax
1000023e9:	4c 03 78 e8 	addq	-24(%rax), %r15
1000023ed:	4c 89 ff 	movq	%r15, %rdi
1000023f0:	e8 43 2d 00 00 	callq	11587
1000023f5:	e8 92 2d 00 00 	callq	11666
1000023fa:	4c 89 e8 	movq	%r13, %rax
1000023fd:	48 83 c4 18 	addq	$24, %rsp
100002401:	5b 	popq	%rbx
100002402:	41 5c 	popq	%r12
100002404:	41 5d 	popq	%r13
100002406:	41 5e 	popq	%r14
100002408:	41 5f 	popq	%r15
10000240a:	5d 	popq	%rbp
10000240b:	c3 	retq
10000240c:	48 89 c3 	movq	%rax, %rbx
10000240f:	e8 78 2d 00 00 	callq	11640
100002414:	48 89 df 	movq	%rbx, %rdi
100002417:	e8 a4 2c 00 00 	callq	11428
10000241c:	0f 0b 	ud2
10000241e:	48 89 c7 	movq	%rax, %rdi
100002421:	e8 6a f3 ff ff 	callq	-3222 <___clang_call_terminate>
100002426:	66 2e 0f 1f 84 00 00 00 00 00 	nopw	%cs:(%rax,%rax)
100002430:	55 	pushq	%rbp
100002431:	48 89 e5 	movq	%rsp, %rbp
100002434:	41 57 	pushq	%r15
100002436:	41 56 	pushq	%r14
100002438:	53 	pushq	%rbx
100002439:	50 	pushq	%rax
10000243a:	48 89 fb 	movq	%rdi, %rbx
10000243d:	48 8b 05 1c 3c 00 00 	movq	15388(%rip), %rax
100002444:	48 8d 48 18 	leaq	24(%rax), %rcx
100002448:	48 89 0b 	movq	%rcx, (%rbx)
10000244b:	4c 8d b3 a8 01 00 00 	leaq	424(%rbx), %r14
100002452:	48 83 c0 40 	addq	$64, %rax
100002456:	48 89 83 a8 01 00 00 	movq	%rax, 424(%rbx)
10000245d:	48 8d 7b 10 	leaq	16(%rbx), %rdi
100002461:	e8 ba 09 00 00 	callq	2490 <__ZNSt3__113basic_filebufIcNS_11char_traitsIcEEED2Ev>
100002466:	48 8b 35 e3 3b 00 00 	movq	15331(%rip), %rsi
10000246d:	48 83 c6 08 	addq	$8, %rsi
100002471:	48 89 df 	movq	%rbx, %rdi
100002474:	e8 7d 2c 00 00 	callq	11389
100002479:	4c 89 f7 	movq	%r14, %rdi
10000247c:	48 83 c4 08 	addq	$8, %rsp
100002480:	5b 	popq	%rbx
100002481:	41 5e 	popq	%r14
100002483:	41 5f 	popq	%r15
100002485:	5d 	popq	%rbp
100002486:	e9 bf 2c 00 00 	jmp	11455
10000248b:	49 89 c7 	movq	%rax, %r15
10000248e:	eb 16 	jmp	22 <__ZNSt3__114basic_ifstreamIcNS_11char_traitsIcEEED1Ev+0x76>
100002490:	49 89 c7 	movq	%rax, %r15
100002493:	48 8b 35 b6 3b 00 00 	movq	15286(%rip), %rsi
10000249a:	48 83 c6 08 	addq	$8, %rsi
10000249e:	48 89 df 	movq	%rbx, %rdi
1000024a1:	e8 50 2c 00 00 	callq	11344
1000024a6:	4c 89 f7 	movq	%r14, %rdi
1000024a9:	e8 9c 2c 00 00 	callq	11420
1000024ae:	4c 89 ff 	movq	%r15, %rdi
1000024b1:	e8 0a 2c 00 00 	callq	11274
1000024b6:	0f 0b 	ud2
1000024b8:	48 89 c7 	movq	%rax, %rdi
1000024bb:	e8 d0 f2 ff ff 	callq	-3376 <___clang_call_terminate>
1000024c0:	48 89 c7 	movq	%rax, %rdi
1000024c3:	e8 c8 f2 ff ff 	callq	-3384 <___clang_call_terminate>
1000024c8:	0f 1f 84 00 00 00 00 00 	nopl	(%rax,%rax)
1000024d0:	55 	pushq	%rbp
1000024d1:	48 89 e5 	movq	%rsp, %rbp
1000024d4:	41 57 	pushq	%r15
1000024d6:	41 56 	pushq	%r14
1000024d8:	41 55 	pushq	%r13
1000024da:	41 54 	pushq	%r12
1000024dc:	53 	pushq	%rbx
1000024dd:	50 	pushq	%rax
1000024de:	49 89 fe 	movq	%rdi, %r14
1000024e1:	48 8b 3d 38 3b 00 00 	movq	15160(%rip), %rdi
1000024e8:	48 8d 35 38 38 00 00 	leaq	14392(%rip), %rsi
1000024ef:	ba 1b 00 00 00 	movl	$27, %edx
1000024f4:	e8 d7 ef ff ff 	callq	-4137 <__ZNSt3__124__put_character_sequenceIcNS_11char_traitsIcEEEERNS_13basic_ostreamIT_T0_EES7_PKS4_m>
1000024f9:	48 89 c3 	movq	%rax, %rbx
1000024fc:	48 8b 03 	movq	(%rbx), %rax
1000024ff:	48 8b 70 e8 	movq	-24(%rax), %rsi
100002503:	48 01 de 	addq	%rbx, %rsi
100002506:	4c 8d 7d d0 	leaq	-48(%rbp), %r15
10000250a:	4c 89 ff 	movq	%r15, %rdi
10000250d:	e8 c6 2b 00 00 	callq	11206
100002512:	48 8b 35 0f 3b 00 00 	movq	15119(%rip), %rsi
100002519:	4c 89 ff 	movq	%r15, %rdi
10000251c:	e8 b1 2b 00 00 	callq	11185
100002521:	48 8b 08 	movq	(%rax), %rcx
100002524:	be 0a 00 00 00 	movl	$10, %esi
100002529:	48 89 c7 	movq	%rax, %rdi
10000252c:	ff 51 38 	callq	*56(%rcx)
10000252f:	41 89 c7 	movl	%eax, %r15d
100002532:	48 8d 7d d0 	leaq	-48(%rbp), %rdi
100002536:	e8 f7 2b 00 00 	callq	11255
10000253b:	41 0f be f7 	movsbl	%r15b, %esi
10000253f:	48 89 df 	movq	%rbx, %rdi
100002542:	e8 bb 2b 00 00 	callq	11195
100002547:	48 89 df 	movq	%rbx, %rdi
10000254a:	e8 b9 2b 00 00 	callq	11193
10000254f:	4d 8d 7e 60 	leaq	96(%r14), %r15
100002553:	4c 8b 25 b6 3a 00 00 	movq	15030(%rip), %r12
10000255a:	41 bd 00 01 00 00 	movl	$256, %r13d
100002560:	eb 19 	jmp	25 <__ZN2SE9get_inputEv+0xab>
100002562:	66 66 66 66 66 2e 0f 1f 84 00 00 00 00 00 	nopw	%cs:(%rax,%rax)
100002570:	0f be f3 	movsbl	%bl, %esi
100002573:	4c 89 ff 	movq	%r15, %rdi
100002576:	e8 63 2b 00 00 	callq	11107
10000257b:	41 0f b6 07 	movzbl	(%r15), %eax
10000257f:	a8 01 	testb	$1, %al
100002581:	75 1d 	jne	29 <__ZN2SE9get_inputEv+0xd0>
100002583:	89 c1 	movl	%eax, %ecx
100002585:	d0 e9 	shrb	%cl
100002587:	0f b6 c9 	movzbl	%cl, %ecx
10000258a:	48 83 f9 19 	cmpq	$25, %rcx
10000258e:	75 1a 	jne	26 <__ZN2SE9get_inputEv+0xda>
100002590:	eb 4f 	jmp	79 <__ZN2SE9get_inputEv+0x111>
100002592:	66 66 66 66 66 2e 0f 1f 84 00 00 00 00 00 	nopw	%cs:(%rax,%rax)
1000025a0:	49 8b 4e 68 	movq	104(%r14), %rcx
1000025a4:	48 83 f9 19 	cmpq	$25, %rcx
1000025a8:	74 37 	je	55 <__ZN2SE9get_inputEv+0x111>
1000025aa:	e8 25 2c 00 00 	callq	11301
1000025af:	89 c3 	movl	%eax, %ebx
1000025b1:	0f be fb 	movsbl	%bl, %edi
1000025b4:	83 ff 7f 	cmpl	$127, %edi
1000025b7:	76 17 	jbe	23 <__ZN2SE9get_inputEv+0x100>
1000025b9:	be 00 01 00 00 	movl	$256, %esi
1000025be:	e8 d5 2b 00 00 	callq	11221
1000025c3:	85 c0 	testl	%eax, %eax
1000025c5:	74 b4 	je	-76 <__ZN2SE9get_inputEv+0xab>
1000025c7:	eb a7 	jmp	-89 <__ZN2SE9get_inputEv+0xa0>
1000025c9:	0f 1f 80 00 00 00 00 	nopl	(%rax)
1000025d0:	48 63 c7 	movslq	%edi, %rax
1000025d3:	41 8b 44 84 3c 	movl	60(%r12,%rax,4), %eax
1000025d8:	44 21 e8 	andl	%r13d, %eax
1000025db:	85 c0 	testl	%eax, %eax
1000025dd:	74 9c 	je	-100 <__ZN2SE9get_inputEv+0xab>
1000025df:	eb 8f 	jmp	-113 <__ZN2SE9get_inputEv+0xa0>
1000025e1:	a8 01 	testb	$1, %al
1000025e3:	74 0a 	je	10 <__ZN2SE9get_inputEv+0x11f>
1000025e5:	4d 8b 7e 70 	movq	112(%r14), %r15
1000025e9:	49 8b 56 68 	movq	104(%r14), %rdx
1000025ed:	eb 08 	jmp	8 <__ZN2SE9get_inputEv+0x127>
1000025ef:	49 ff c7 	incq	%r15
1000025f2:	d0 e8 	shrb	%al
1000025f4:	0f b6 d0 	movzbl	%al, %edx
1000025f7:	48 8b 3d 22 3a 00 00 	movq	14882(%rip), %rdi
1000025fe:	4c 89 fe 	movq	%r15, %rsi
100002601:	e8 ca ee ff ff 	callq	-4406 <__ZNSt3__124__put_character_sequenceIcNS_11char_traitsIcEEEERNS_13basic_ostreamIT_T0_EES7_PKS4_m>
100002606:	48 89 c3 	movq	%rax, %rbx
100002609:	48 8b 03 	movq	(%rbx), %rax
10000260c:	48 8b 70 e8 	movq	-24(%rax), %rsi
100002610:	48 01 de 	addq	%rbx, %rsi
100002613:	4c 8d 75 d0 	leaq	-48(%rbp), %r14
100002617:	4c 89 f7 	movq	%r14, %rdi
10000261a:	e8 b9 2a 00 00 	callq	10937
10000261f:	48 8b 35 02 3a 00 00 	movq	14850(%rip), %rsi
100002626:	4c 89 f7 	movq	%r14, %rdi
100002629:	e8 a4 2a 00 00 	callq	10916
10000262e:	48 8b 08 	movq	(%rax), %rcx
100002631:	be 0a 00 00 00 	movl	$10, %esi
100002636:	48 89 c7 	movq	%rax, %rdi
100002639:	ff 51 38 	callq	*56(%rcx)
10000263c:	41 89 c6 	movl	%eax, %r14d
10000263f:	48 8d 7d d0 	leaq	-48(%rbp), %rdi
100002643:	e8 ea 2a 00 00 	callq	10986
100002648:	41 0f be f6 	movsbl	%r14b, %esi
10000264c:	48 89 df 	movq	%rbx, %rdi
10000264f:	e8 ae 2a 00 00 	callq	10926
100002654:	48 89 df 	movq	%rbx, %rdi
100002657:	e8 ac 2a 00 00 	callq	10924
10000265c:	48 83 c4 08 	addq	$8, %rsp
100002660:	5b 	popq	%rbx
100002661:	41 5c 	popq	%r12
100002663:	41 5d 	popq	%r13
100002665:	41 5e 	popq	%r14
100002667:	41 5f 	popq	%r15
100002669:	5d 	popq	%rbp
10000266a:	c3 	retq
10000266b:	48 89 c3 	movq	%rax, %rbx
10000266e:	48 8d 7d d0 	leaq	-48(%rbp), %rdi
100002672:	e8 bb 2a 00 00 	callq	10939
100002677:	eb 14 	jmp	20 <__ZN2SE9get_inputEv+0x1bd>
100002679:	48 89 c7 	movq	%rax, %rdi
10000267c:	e8 0f f1 ff ff 	callq	-3825 <___clang_call_terminate>
100002681:	48 89 c3 	movq	%rax, %rbx
100002684:	48 8d 7d d0 	leaq	-48(%rbp), %rdi
100002688:	e8 a5 2a 00 00 	callq	10917
10000268d:	48 89 df 	movq	%rbx, %rdi
100002690:	e8 2b 2a 00 00 	callq	10795
100002695:	0f 0b 	ud2
100002697:	48 89 c7 	movq	%rax, %rdi
10000269a:	e8 f1 f0 ff ff 	callq	-3855 <___clang_call_terminate>
10000269f:	90 	nop
1000026a0:	55 	pushq	%rbp
1000026a1:	48 89 e5 	movq	%rsp, %rbp
1000026a4:	41 57 	pushq	%r15
1000026a6:	41 56 	pushq	%r14
1000026a8:	41 55 	pushq	%r13
1000026aa:	41 54 	pushq	%r12
1000026ac:	53 	pushq	%rbx
1000026ad:	48 83 ec 48 	subq	$72, %rsp
1000026b1:	49 89 fe 	movq	%rdi, %r14
1000026b4:	48 8b 3d 65 39 00 00 	movq	14693(%rip), %rdi
1000026bb:	48 8d 35 81 36 00 00 	leaq	13953(%rip), %rsi
1000026c2:	ba 14 00 00 00 	movl	$20, %edx
1000026c7:	e8 04 ee ff ff 	callq	-4604 <__ZNSt3__124__put_character_sequenceIcNS_11char_traitsIcEEEERNS_13basic_ostreamIT_T0_EES7_PKS4_m>
1000026cc:	48 89 c3 	movq	%rax, %rbx
1000026cf:	48 8b 03 	movq	(%rbx), %rax
1000026d2:	48 8b 70 e8 	movq	-24(%rax), %rsi
1000026d6:	48 01 de 	addq	%rbx, %rsi
1000026d9:	4c 8d 7d c0 	leaq	-64(%rbp), %r15
1000026dd:	4c 89 ff 	movq	%r15, %rdi
1000026e0:	e8 f3 29 00 00 	callq	10739
1000026e5:	48 8b 35 3c 39 00 00 	movq	14652(%rip), %rsi
1000026ec:	4c 89 ff 	movq	%r15, %rdi
1000026ef:	e8 de 29 00 00 	callq	10718
1000026f4:	48 8b 08 	movq	(%rax), %rcx
1000026f7:	be 0a 00 00 00 	movl	$10, %esi
1000026fc:	48 89 c7 	movq	%rax, %rdi
1000026ff:	ff 51 38 	callq	*56(%rcx)
100002702:	41 89 c7 	movl	%eax, %r15d
100002705:	48 8d 7d c0 	leaq	-64(%rbp), %rdi
100002709:	e8 24 2a 00 00 	callq	10788
10000270e:	41 0f be f7 	movsbl	%r15b, %esi
100002712:	48 89 df 	movq	%rbx, %rdi
100002715:	e8 e8 29 00 00 	callq	10728
10000271a:	48 89 df 	movq	%rbx, %rdi
10000271d:	e8 e6 29 00 00 	callq	10726
100002722:	49 8b 46 78 	movq	120(%r14), %rax
100002726:	4c 8b 28 	movq	(%rax), %r13
100002729:	48 8b 40 08 	movq	8(%rax), %rax
10000272d:	48 89 45 98 	movq	%rax, -104(%rbp)
100002731:	49 39 c5 	cmpq	%rax, %r13
100002734:	0f 84 1e 02 00 00 	je	542 <__ZN2SE11search_dictEv+0x2b8>
10000273a:	49 8d 46 60 	leaq	96(%r14), %rax
10000273e:	48 89 45 a0 	movq	%rax, -96(%rbp)
100002742:	4c 8d 65 c1 	leaq	-63(%rbp), %r12
100002746:	49 8d 46 18 	leaq	24(%r14), %rax
10000274a:	48 89 45 a8 	movq	%rax, -88(%rbp)
10000274e:	49 8d 46 30 	leaq	48(%r14), %rax
100002752:	48 89 45 b0 	movq	%rax, -80(%rbp)
100002756:	49 8d 46 48 	leaq	72(%r14), %rax
10000275a:	48 89 45 b8 	movq	%rax, -72(%rbp)
10000275e:	45 31 ff 	xorl	%r15d, %r15d
100002761:	66 66 66 66 66 66 2e 0f 1f 84 00 00 00 00 00 	nopw	%cs:(%rax,%rax)
100002770:	48 8d 7d c0 	leaq	-64(%rbp), %rdi
100002774:	48 8b 75 a0 	movq	-96(%rbp), %rsi
100002778:	e8 67 29 00 00 	callq	10599
10000277d:	41 8a 55 00 	movb	(%r13), %dl
100002781:	f6 c2 01 	testb	$1, %dl
100002784:	75 2a 	jne	42 <__ZN2SE11search_dictEv+0x110>
100002786:	4d 8d 4d 01 	leaq	1(%r13), %r9
10000278a:	89 d0 	movl	%edx, %eax
10000278c:	d0 e8 	shrb	%al
10000278e:	44 0f b6 c0 	movzbl	%al, %r8d
100002792:	4d 85 c0 	testq	%r8, %r8
100002795:	75 26 	jne	38 <__ZN2SE11search_dictEv+0x11d>
100002797:	f6 c2 01 	testb	$1, %dl
10000279a:	0f 85 bc 00 00 00 	jne	188 <__ZN2SE11search_dictEv+0x1bc>
1000027a0:	d0 ea 	shrb	%dl
1000027a2:	0f b6 c2 	movzbl	%dl, %eax
1000027a5:	e9 b6 00 00 00 	jmp	182 <__ZN2SE11search_dictEv+0x1c0>
1000027aa:	66 0f 1f 44 00 00 	nopw	(%rax,%rax)
1000027b0:	4d 8b 45 08 	movq	8(%r13), %r8
1000027b4:	4d 8b 4d 10 	movq	16(%r13), %r9
1000027b8:	4d 85 c0 	testq	%r8, %r8
1000027bb:	74 da 	je	-38 <__ZN2SE11search_dictEv+0xf7>
1000027bd:	4d 01 c8 	addq	%r9, %r8
1000027c0:	45 8a 11 	movb	(%r9), %r10b
1000027c3:	8a 45 c0 	movb	-64(%rbp), %al
1000027c6:	a8 01 	testb	$1, %al
1000027c8:	74 16 	je	22 <__ZN2SE11search_dictEv+0x140>
1000027ca:	48 8b 4d d0 	movq	-48(%rbp), %rcx
1000027ce:	4c 8b 5d c8 	movq	-56(%rbp), %r11
1000027d2:	4d 85 db 	testq	%r11, %r11
1000027d5:	75 1b 	jne	27 <__ZN2SE11search_dictEv+0x152>
1000027d7:	e9 14 01 00 00 	jmp	276 <__ZN2SE11search_dictEv+0x250>
1000027dc:	0f 1f 40 00 	nopl	(%rax)
1000027e0:	d0 e8 	shrb	%al
1000027e2:	44 0f b6 d8 	movzbl	%al, %r11d
1000027e6:	4c 89 e1 	movq	%r12, %rcx
1000027e9:	4d 85 db 	testq	%r11, %r11
1000027ec:	0f 84 fe 00 00 00 	je	254 <__ZN2SE11search_dictEv+0x250>
1000027f2:	49 8d 5b ff 	leaq	-1(%r11), %rbx
1000027f6:	31 c0 	xorl	%eax, %eax
1000027f8:	48 89 ce 	movq	%rcx, %rsi
1000027fb:	0f 1f 44 00 00 	nopl	(%rax,%rax)
100002800:	48 8d 7b ff 	leaq	-1(%rbx), %rdi
100002804:	44 38 16 	cmpb	%r10b, (%rsi)
100002807:	48 8d 76 01 	leaq	1(%rsi), %rsi
10000280b:	b2 01 	movb	$1, %dl
10000280d:	74 02 	je	2 <__ZN2SE11search_dictEv+0x171>
10000280f:	89 c2 	movl	%eax, %edx
100002811:	74 0a 	je	10 <__ZN2SE11search_dictEv+0x17d>
100002813:	48 85 db 	testq	%rbx, %rbx
100002816:	48 89 fb 	movq	%rdi, %rbx
100002819:	89 d0 	movl	%edx, %eax
10000281b:	75 e3 	jne	-29 <__ZN2SE11search_dictEv+0x160>
10000281d:	f6 c2 01 	testb	$1, %dl
100002820:	0f 84 ca 00 00 00 	je	202 <__ZN2SE11search_dictEv+0x250>
100002826:	4d 85 db 	testq	%r11, %r11
100002829:	74 18 	je	24 <__ZN2SE11search_dictEv+0x1a3>
10000282b:	0f 1f 44 00 00 	nopl	(%rax,%rax)
100002830:	44 38 11 	cmpb	%r10b, (%rcx)
100002833:	74 0b 	je	11 <__ZN2SE11search_dictEv+0x1a0>
100002835:	48 ff c1 	incq	%rcx
100002838:	49 ff cb 	decq	%r11
10000283b:	75 f3 	jne	-13 <__ZN2SE11search_dictEv+0x190>
10000283d:	eb 04 	jmp	4 <__ZN2SE11search_dictEv+0x1a3>
10000283f:	90 	nop
100002840:	c6 01 7c 	movb	$124, (%rcx)
100002843:	49 ff c1 	incq	%r9
100002846:	4d 39 c1 	cmpq	%r8, %r9
100002849:	0f 85 71 ff ff ff 	jne	-143 <__ZN2SE11search_dictEv+0x120>
10000284f:	41 8a 55 00 	movb	(%r13), %dl
100002853:	f6 c2 01 	testb	$1, %dl
100002856:	0f 84 44 ff ff ff 	je	-188 <__ZN2SE11search_dictEv+0x100>
10000285c:	49 8b 45 08 	movq	8(%r13), %rax
100002860:	41 ff c7 	incl	%r15d
100002863:	83 f8 05 	cmpl	$5, %eax
100002866:	7f 28 	jg	40 <__ZN2SE11search_dictEv+0x1f0>
100002868:	49 8b 7e 08 	movq	8(%r14), %rdi
10000286c:	49 3b 7e 10 	cmpq	16(%r14), %rdi
100002870:	74 6a 	je	106 <__ZN2SE11search_dictEv+0x23c>
100002872:	4c 89 ee 	movq	%r13, %rsi
100002875:	e8 6a 28 00 00 	callq	10346
10000287a:	49 83 46 08 18 	addq	$24, 8(%r14)
10000287f:	f6 45 c0 01 	testb	$1, -64(%rbp)
100002883:	75 71 	jne	113 <__ZN2SE11search_dictEv+0x256>
100002885:	eb 78 	jmp	120 <__ZN2SE11search_dictEv+0x25f>
100002887:	66 0f 1f 84 00 00 00 00 00 	nopw	(%rax,%rax)
100002890:	83 f8 09 	cmpl	$9, %eax
100002893:	7f 23 	jg	35 <__ZN2SE11search_dictEv+0x218>
100002895:	49 8b 7e 20 	movq	32(%r14), %rdi
100002899:	49 3b 7e 28 	cmpq	40(%r14), %rdi
10000289d:	0f 84 8b 00 00 00 	je	139 <__ZN2SE11search_dictEv+0x28e>
1000028a3:	4c 89 ee 	movq	%r13, %rsi
1000028a6:	e8 39 28 00 00 	callq	10297
1000028ab:	49 83 46 20 18 	addq	$24, 32(%r14)
1000028b0:	f6 45 c0 01 	testb	$1, -64(%rbp)
1000028b4:	75 40 	jne	64 <__ZN2SE11search_dictEv+0x256>
1000028b6:	eb 47 	jmp	71 <__ZN2SE11search_dictEv+0x25f>
1000028b8:	83 f8 0f 	cmpl	$15, %eax
1000028bb:	7f 52 	jg	82 <__ZN2SE11search_dictEv+0x26f>
1000028bd:	49 8b 7e 38 	movq	56(%r14), %rdi
1000028c1:	49 3b 7e 40 	cmpq	64(%r14), %rdi
1000028c5:	74 75 	je	117 <__ZN2SE11search_dictEv+0x29c>
1000028c7:	4c 89 ee 	movq	%r13, %rsi
1000028ca:	e8 15 28 00 00 	callq	10261
1000028cf:	49 83 46 38 18 	addq	$24, 56(%r14)
1000028d4:	f6 45 c0 01 	testb	$1, -64(%rbp)
1000028d8:	75 1c 	jne	28 <__ZN2SE11search_dictEv+0x256>
1000028da:	eb 23 	jmp	35 <__ZN2SE11search_dictEv+0x25f>
1000028dc:	4c 89 f7 	movq	%r14, %rdi
1000028df:	4c 89 ee 	movq	%r13, %rsi
1000028e2:	e8 79 14 00 00 	callq	5241 <__ZNSt3__16vectorINS_12basic_stringIcNS_11char_traitsIcEENS_9allocatorIcEEEENS4_IS6_EEE21__push_back_slow_pathIKS6_EEvRT_>
1000028e7:	66 0f 1f 84 00 00 00 00 00 	nopw	(%rax,%rax)
1000028f0:	f6 45 c0 01 	testb	$1, -64(%rbp)
1000028f4:	74 09 	je	9 <__ZN2SE11search_dictEv+0x25f>
1000028f6:	48 8b 7d d0 	movq	-48(%rbp), %rdi
1000028fa:	e8 63 28 00 00 	callq	10339
1000028ff:	49 83 c5 18 	addq	$24, %r13
100002903:	4c 3b 6d 98 	cmpq	-104(%rbp), %r13
100002907:	0f 85 63 fe ff ff 	jne	-413 <__ZN2SE11search_dictEv+0xd0>
10000290d:	eb 4c 	jmp	76 <__ZN2SE11search_dictEv+0x2bb>
10000290f:	49 8b 7e 50 	movq	80(%r14), %rdi
100002913:	49 3b 7e 58 	cmpq	88(%r14), %rdi
100002917:	74 31 	je	49 <__ZN2SE11search_dictEv+0x2aa>
100002919:	4c 89 ee 	movq	%r13, %rsi
10000291c:	e8 c3 27 00 00 	callq	10179
100002921:	49 83 46 50 18 	addq	$24, 80(%r14)
100002926:	f6 45 c0 01 	testb	$1, -64(%rbp)
10000292a:	75 ca 	jne	-54 <__ZN2SE11search_dictEv+0x256>
10000292c:	eb d1 	jmp	-47 <__ZN2SE11search_dictEv+0x25f>
10000292e:	48 8b 7d a8 	movq	-88(%rbp), %rdi
100002932:	4c 89 ee 	movq	%r13, %rsi
100002935:	e8 26 14 00 00 	callq	5158 <__ZNSt3__16vectorINS_12basic_stringIcNS_11char_traitsIcEENS_9allocatorIcEEEENS4_IS6_EEE21__push_back_slow_pathIKS6_EEvRT_>
10000293a:	eb b4 	jmp	-76 <__ZN2SE11search_dictEv+0x250>
10000293c:	48 8b 7d b0 	movq	-80(%rbp), %rdi
100002940:	4c 89 ee 	movq	%r13, %rsi
100002943:	e8 18 14 00 00 	callq	5144 <__ZNSt3__16vectorINS_12basic_stringIcNS_11char_traitsIcEENS_9allocatorIcEEEENS4_IS6_EEE21__push_back_slow_pathIKS6_EEvRT_>
100002948:	eb a6 	jmp	-90 <__ZN2SE11search_dictEv+0x250>
10000294a:	48 8b 7d b8 	movq	-72(%rbp), %rdi
10000294e:	4c 89 ee 	movq	%r13, %rsi
100002951:	e8 0a 14 00 00 	callq	5130 <__ZNSt3__16vectorINS_12basic_stringIcNS_11char_traitsIcEENS_9allocatorIcEEEENS4_IS6_EEE21__push_back_slow_pathIKS6_EEvRT_>
100002956:	eb 98 	jmp	-104 <__ZN2SE11search_dictEv+0x250>
100002958:	45 31 ff 	xorl	%r15d, %r15d
10000295b:	48 8b 3d be 36 00 00 	movq	14014(%rip), %rdi
100002962:	44 89 fe 	movl	%r15d, %esi
100002965:	e8 b0 27 00 00 	callq	10160
10000296a:	48 8d 35 e7 33 00 00 	leaq	13287(%rip), %rsi
100002971:	ba 0d 00 00 00 	movl	$13, %edx
100002976:	48 89 c7 	movq	%rax, %rdi
100002979:	e8 52 eb ff ff 	callq	-5294 <__ZNSt3__124__put_character_sequenceIcNS_11char_traitsIcEEEERNS_13basic_ostreamIT_T0_EES7_PKS4_m>
10000297e:	48 89 c3 	movq	%rax, %rbx
100002981:	48 8b 03 	movq	(%rbx), %rax
100002984:	48 8b 70 e8 	movq	-24(%rax), %rsi
100002988:	48 01 de 	addq	%rbx, %rsi
10000298b:	4c 8d 75 c0 	leaq	-64(%rbp), %r14
10000298f:	4c 89 f7 	movq	%r14, %rdi
100002992:	e8 41 27 00 00 	callq	10049
100002997:	48 8b 35 8a 36 00 00 	movq	13962(%rip), %rsi
10000299e:	4c 89 f7 	movq	%r14, %rdi
1000029a1:	e8 2c 27 00 00 	callq	10028
1000029a6:	48 8b 08 	movq	(%rax), %rcx
1000029a9:	be 0a 00 00 00 	movl	$10, %esi
1000029ae:	48 89 c7 	movq	%rax, %rdi
1000029b1:	ff 51 38 	callq	*56(%rcx)
1000029b4:	41 89 c6 	movl	%eax, %r14d
1000029b7:	48 8d 7d c0 	leaq	-64(%rbp), %rdi
1000029bb:	e8 72 27 00 00 	callq	10098
1000029c0:	41 0f be f6 	movsbl	%r14b, %esi
1000029c4:	48 89 df 	movq	%rbx, %rdi
1000029c7:	e8 36 27 00 00 	callq	10038
1000029cc:	48 89 df 	movq	%rbx, %rdi
1000029cf:	e8 34 27 00 00 	callq	10036
1000029d4:	48 83 c4 48 	addq	$72, %rsp
1000029d8:	5b 	popq	%rbx
1000029d9:	41 5c 	popq	%r12
1000029db:	41 5d 	popq	%r13
1000029dd:	41 5e 	popq	%r14
1000029df:	41 5f 	popq	%r15
1000029e1:	5d 	popq	%rbp
1000029e2:	c3 	retq
1000029e3:	48 89 c3 	movq	%rax, %rbx
1000029e6:	48 8d 7d c0 	leaq	-64(%rbp), %rdi
1000029ea:	e8 43 27 00 00 	callq	10051
1000029ef:	eb 30 	jmp	48 <__ZN2SE11search_dictEv+0x381>
1000029f1:	48 89 c7 	movq	%rax, %rdi
1000029f4:	e8 97 ed ff ff 	callq	-4713 <___clang_call_terminate>
1000029f9:	48 89 c3 	movq	%rax, %rbx
1000029fc:	48 8d 7d c0 	leaq	-64(%rbp), %rdi
100002a00:	e8 2d 27 00 00 	callq	10029
100002a05:	eb 1a 	jmp	26 <__ZN2SE11search_dictEv+0x381>
100002a07:	48 89 c7 	movq	%rax, %rdi
100002a0a:	e8 81 ed ff ff 	callq	-4735 <___clang_call_terminate>
100002a0f:	48 89 c3 	movq	%rax, %rbx
100002a12:	f6 45 c0 01 	testb	$1, -64(%rbp)
100002a16:	74 09 	je	9 <__ZN2SE11search_dictEv+0x381>
100002a18:	48 8b 7d d0 	movq	-48(%rbp), %rdi
100002a1c:	e8 41 27 00 00 	callq	10049
100002a21:	48 89 df 	movq	%rbx, %rdi
100002a24:	e8 97 26 00 00 	callq	9879
100002a29:	0f 0b 	ud2
100002a2b:	0f 1f 44 00 00 	nopl	(%rax,%rax)
100002a30:	55 	pushq	%rbp
100002a31:	48 89 e5 	movq	%rsp, %rbp
100002a34:	41 57 	pushq	%r15
100002a36:	41 56 	pushq	%r14
100002a38:	41 55 	pushq	%r13
100002a3a:	41 54 	pushq	%r12
100002a3c:	53 	pushq	%rbx
100002a3d:	48 83 ec 28 	subq	$40, %rsp
100002a41:	49 89 fe 	movq	%rdi, %r14
100002a44:	49 8b 3e 	movq	(%r14), %rdi
100002a47:	49 8b 76 08 	movq	8(%r14), %rsi
100002a4b:	4c 8d 7d d0 	leaq	-48(%rbp), %r15
100002a4f:	4c 89 fa 	movq	%r15, %rdx
100002a52:	e8 f9 14 00 00 	callq	5369 <__ZNSt3__16__sortIR7comparePNS_12basic_stringIcNS_11char_traitsIcEENS_9allocatorIcEEEEEEvT0_SA_T_>
100002a57:	49 8d 46 18 	leaq	24(%r14), %rax
100002a5b:	48 89 45 b0 	movq	%rax, -80(%rbp)
100002a5f:	49 8b 7e 18 	movq	24(%r14), %rdi
100002a63:	49 8b 76 20 	movq	32(%r14), %rsi
100002a67:	48 8d 55 d0 	leaq	-48(%rbp), %rdx
100002a6b:	e8 e0 14 00 00 	callq	5344 <__ZNSt3__16__sortIR7comparePNS_12basic_stringIcNS_11char_traitsIcEENS_9allocatorIcEEEEEEvT0_SA_T_>
100002a70:	49 8d 46 30 	leaq	48(%r14), %rax
100002a74:	48 89 45 b8 	movq	%rax, -72(%rbp)
100002a78:	49 8b 7e 30 	movq	48(%r14), %rdi
100002a7c:	49 8b 76 38 	movq	56(%r14), %rsi
100002a80:	48 8d 55 d0 	leaq	-48(%rbp), %rdx
100002a84:	e8 c7 14 00 00 	callq	5319 <__ZNSt3__16__sortIR7comparePNS_12basic_stringIcNS_11char_traitsIcEENS_9allocatorIcEEEEEEvT0_SA_T_>
100002a89:	49 8d 46 48 	leaq	72(%r14), %rax
100002a8d:	48 89 45 c0 	movq	%rax, -64(%rbp)
100002a91:	49 8b 7e 48 	movq	72(%r14), %rdi
100002a95:	49 8b 76 50 	movq	80(%r14), %rsi
100002a99:	48 8d 55 d0 	leaq	-48(%rbp), %rdx
100002a9d:	e8 ae 14 00 00 	callq	5294 <__ZNSt3__16__sortIR7comparePNS_12basic_stringIcNS_11char_traitsIcEENS_9allocatorIcEEEEEEvT0_SA_T_>
100002aa2:	4c 8d 2d b3 01 00 00 	leaq	435(%rip), %r13
100002aa9:	eb 15 	jmp	21 <__ZN2SE14display_resultEv+0x90>
100002aab:	48 8d 3d fa 31 00 00 	leaq	12794(%rip), %rdi
100002ab2:	e8 35 27 00 00 	callq	10037
100002ab7:	48 8b 7d c0 	movq	-64(%rbp), %rdi
100002abb:	e8 30 ed ff ff 	callq	-4816 <__Z5printRKNSt3__16vectorINS_12basic_stringIcNS_11char_traitsIcEENS_9allocatorIcEEEENS4_IS6_EEEE>
100002ac0:	ba 67 00 00 00 	movl	$103, %edx
100002ac5:	48 8b 3d 54 35 00 00 	movq	13652(%rip), %rdi
100002acc:	48 8d 35 93 32 00 00 	leaq	12947(%rip), %rsi
100002ad3:	e8 f8 e9 ff ff 	callq	-5640 <__ZNSt3__124__put_character_sequenceIcNS_11char_traitsIcEEEERNS_13basic_ostreamIT_T0_EES7_PKS4_m>
100002ad8:	49 89 c4 	movq	%rax, %r12
100002adb:	49 8b 04 24 	movq	(%r12), %rax
100002adf:	48 8b 70 e8 	movq	-24(%rax), %rsi
100002ae3:	4c 01 e6 	addq	%r12, %rsi
100002ae6:	4c 89 ff 	movq	%r15, %rdi
100002ae9:	e8 ea 25 00 00 	callq	9706
100002aee:	4c 89 ff 	movq	%r15, %rdi
100002af1:	48 8b 35 30 35 00 00 	movq	13616(%rip), %rsi
100002af8:	e8 d5 25 00 00 	callq	9685
100002afd:	48 8b 08 	movq	(%rax), %rcx
100002b00:	be 0a 00 00 00 	movl	$10, %esi
100002b05:	48 89 c7 	movq	%rax, %rdi
100002b08:	ff 51 38 	callq	*56(%rcx)
100002b0b:	89 c3 	movl	%eax, %ebx
100002b0d:	4c 89 ff 	movq	%r15, %rdi
100002b10:	e8 1d 26 00 00 	callq	9757
100002b15:	0f be f3 	movsbl	%bl, %esi
100002b18:	4c 89 e7 	movq	%r12, %rdi
100002b1b:	e8 e2 25 00 00 	callq	9698
100002b20:	4c 89 e7 	movq	%r12, %rdi
100002b23:	e8 e0 25 00 00 	callq	9696
100002b28:	48 8b 3d e9 34 00 00 	movq	13545(%rip), %rdi
100002b2f:	48 8d 75 cc 	leaq	-52(%rbp), %rsi
100002b33:	e8 c4 25 00 00 	callq	9668
100002b38:	8b 5d cc 	movl	-52(%rbp), %ebx
100002b3b:	8d 43 ff 	leal	-1(%rbx), %eax
100002b3e:	83 f8 03 	cmpl	$3, %eax
100002b41:	77 57 	ja	87 <__ZN2SE14display_resultEv+0x16a>
100002b43:	49 63 44 85 00 	movslq	(%r13,%rax,4), %rax
100002b48:	4c 01 e8 	addq	%r13, %rax
100002b4b:	ff e0 	jmpq	*%rax
100002b4d:	48 8d 3d 58 31 00 00 	leaq	12632(%rip), %rdi
100002b54:	e8 93 26 00 00 	callq	9875
100002b59:	4c 89 f7 	movq	%r14, %rdi
100002b5c:	e8 8f ec ff ff 	callq	-4977 <__Z5printRKNSt3__16vectorINS_12basic_stringIcNS_11char_traitsIcEENS_9allocatorIcEEEENS4_IS6_EEEE>
100002b61:	e9 5a ff ff ff 	jmp	-166 <__ZN2SE14display_resultEv+0x90>
100002b66:	48 8d 3d 3f 31 00 00 	leaq	12607(%rip), %rdi
100002b6d:	e8 7a 26 00 00 	callq	9850
100002b72:	48 8b 7d b0 	movq	-80(%rbp), %rdi
100002b76:	e8 75 ec ff ff 	callq	-5003 <__Z5printRKNSt3__16vectorINS_12basic_stringIcNS_11char_traitsIcEENS_9allocatorIcEEEENS4_IS6_EEEE>
100002b7b:	e9 40 ff ff ff 	jmp	-192 <__ZN2SE14display_resultEv+0x90>
100002b80:	48 8d 3d 25 31 00 00 	leaq	12581(%rip), %rdi
100002b87:	e8 60 26 00 00 	callq	9824
100002b8c:	48 8b 7d b8 	movq	-72(%rbp), %rdi
100002b90:	e8 5b ec ff ff 	callq	-5029 <__Z5printRKNSt3__16vectorINS_12basic_stringIcNS_11char_traitsIcEENS_9allocatorIcEEEENS4_IS6_EEEE>
100002b95:	e9 26 ff ff ff 	jmp	-218 <__ZN2SE14display_resultEv+0x90>
100002b9a:	48 8d 3d 0b 31 00 00 	leaq	12555(%rip), %rdi
100002ba1:	e8 46 26 00 00 	callq	9798
100002ba6:	83 fb 05 	cmpl	$5, %ebx
100002ba9:	74 6d 	je	109 <__ZN2SE14display_resultEv+0x1e8>
100002bab:	ba 14 00 00 00 	movl	$20, %edx
100002bb0:	48 8b 3d 69 34 00 00 	movq	13417(%rip), %rdi
100002bb7:	48 8d 35 10 32 00 00 	leaq	12816(%rip), %rsi
100002bbe:	e8 0d e9 ff ff 	callq	-5875 <__ZNSt3__124__put_character_sequenceIcNS_11char_traitsIcEEEERNS_13basic_ostreamIT_T0_EES7_PKS4_m>
100002bc3:	49 89 c4 	movq	%rax, %r12
100002bc6:	49 8b 04 24 	movq	(%r12), %rax
100002bca:	48 8b 70 e8 	movq	-24(%rax), %rsi
100002bce:	4c 01 e6 	addq	%r12, %rsi
100002bd1:	4c 89 ff 	movq	%r15, %rdi
100002bd4:	e8 ff 24 00 00 	callq	9471
100002bd9:	4c 89 ff 	movq	%r15, %rdi
100002bdc:	48 8b 35 45 34 00 00 	movq	13381(%rip), %rsi
100002be3:	e8 ea 24 00 00 	callq	9450
100002be8:	48 8b 08 	movq	(%rax), %rcx
100002beb:	be 0a 00 00 00 	movl	$10, %esi
100002bf0:	48 89 c7 	movq	%rax, %rdi
100002bf3:	ff 51 38 	callq	*56(%rcx)
100002bf6:	89 c3 	movl	%eax, %ebx
100002bf8:	4c 89 ff 	movq	%r15, %rdi
100002bfb:	e8 32 25 00 00 	callq	9522
100002c00:	0f be f3 	movsbl	%bl, %esi
100002c03:	4c 89 e7 	movq	%r12, %rdi
100002c06:	e8 f7 24 00 00 	callq	9463
100002c0b:	4c 89 e7 	movq	%r12, %rdi
100002c0e:	e8 f5 24 00 00 	callq	9461
100002c13:	e9 a8 fe ff ff 	jmp	-344 <__ZN2SE14display_resultEv+0x90>
100002c18:	48 83 c4 28 	addq	$40, %rsp
100002c1c:	5b 	popq	%rbx
100002c1d:	41 5c 	popq	%r12
100002c1f:	41 5d 	popq	%r13
100002c21:	41 5e 	popq	%r14
100002c23:	41 5f 	popq	%r15
100002c25:	5d 	popq	%rbp
100002c26:	c3 	retq
100002c27:	48 89 c3 	movq	%rax, %rbx
100002c2a:	48 8d 7d d0 	leaq	-48(%rbp), %rdi
100002c2e:	e8 ff 24 00 00 	callq	9471
100002c33:	eb 14 	jmp	20 <__ZN2SE14display_resultEv+0x219>
100002c35:	48 89 c7 	movq	%rax, %rdi
100002c38:	e8 53 eb ff ff 	callq	-5293 <___clang_call_terminate>
100002c3d:	48 89 c3 	movq	%rax, %rbx
100002c40:	48 8d 7d d0 	leaq	-48(%rbp), %rdi
100002c44:	e8 e9 24 00 00 	callq	9449
100002c49:	48 89 df 	movq	%rbx, %rdi
100002c4c:	e8 6f 24 00 00 	callq	9327
100002c51:	0f 0b 	ud2
100002c53:	48 89 c7 	movq	%rax, %rdi
100002c56:	e8 35 eb ff ff 	callq	-5323 <___clang_call_terminate>
100002c5b:	90 	nop
100002c5c:	f1  <unknown>
100002c5d:	fe ff  <unknown>
100002c5f:	ff 0a 	decl	(%rdx)
100002c61:	ff ff  <unknown>
100002c63:	ff 24 ff 	jmpq	*(%rdi,%rdi,8)
100002c66:	ff ff  <unknown>
100002c68:	4f fe ff  <unknown>
100002c6b:	ff 0f 	decl	(%rdi)
100002c6d:	1f  <unknown>
100002c6e:	40 00 55 48 	addb	%dl, 72(%rbp)
100002c72:	89 e5 	movl	%esp, %ebp
100002c74:	41 57 	pushq	%r15
100002c76:	41 56 	pushq	%r14
100002c78:	53 	pushq	%rbx
100002c79:	50 	pushq	%rax
100002c7a:	48 8b 07 	movq	(%rdi), %rax
100002c7d:	48 8b 40 e8 	movq	-24(%rax), %rax
100002c81:	48 8d 1c 07 	leaq	(%rdi,%rax), %rbx
100002c85:	48 8b 0d d4 33 00 00 	movq	13268(%rip), %rcx
100002c8c:	48 8d 51 18 	leaq	24(%rcx), %rdx
100002c90:	48 89 14 07 	movq	%rdx, (%rdi,%rax)
100002c94:	4c 8d b4 07 a8 01 00 00 	leaq	424(%rdi,%rax), %r14
100002c9c:	48 83 c1 40 	addq	$64, %rcx
100002ca0:	48 89 8c 07 a8 01 00 00 	movq	%rcx, 424(%rdi,%rax)
100002ca8:	48 8d 7c 07 10 	leaq	16(%rdi,%rax), %rdi
100002cad:	e8 6e 01 00 00 	callq	366 <__ZNSt3__113basic_filebufIcNS_11char_traitsIcEEED2Ev>
100002cb2:	48 8b 35 97 33 00 00 	movq	13207(%rip), %rsi
100002cb9:	48 83 c6 08 	addq	$8, %rsi
100002cbd:	48 89 df 	movq	%rbx, %rdi
100002cc0:	e8 31 24 00 00 	callq	9265
100002cc5:	4c 89 f7 	movq	%r14, %rdi
100002cc8:	48 83 c4 08 	addq	$8, %rsp
100002ccc:	5b 	popq	%rbx
100002ccd:	41 5e 	popq	%r14
100002ccf:	41 5f 	popq	%r15
100002cd1:	5d 	popq	%rbp
100002cd2:	e9 73 24 00 00 	jmp	9331
100002cd7:	49 89 c7 	movq	%rax, %r15
100002cda:	eb 16 	jmp	22 <__ZTv0_n24_NSt3__114basic_ifstreamIcNS_11char_traitsIcEEED1Ev+0x82>
100002cdc:	49 89 c7 	movq	%rax, %r15
100002cdf:	48 8b 35 6a 33 00 00 	movq	13162(%rip), %rsi
100002ce6:	48 83 c6 08 	addq	$8, %rsi
100002cea:	48 89 df 	movq	%rbx, %rdi
100002ced:	e8 04 24 00 00 	callq	9220
100002cf2:	4c 89 f7 	movq	%r14, %rdi
100002cf5:	e8 50 24 00 00 	callq	9296
100002cfa:	4c 89 ff 	movq	%r15, %rdi
100002cfd:	e8 be 23 00 00 	callq	9150
100002d02:	0f 0b 	ud2
100002d04:	48 89 c7 	movq	%rax, %rdi
100002d07:	e8 84 ea ff ff 	callq	-5500 <___clang_call_terminate>
100002d0c:	48 89 c7 	movq	%rax, %rdi
100002d0f:	e8 7c ea ff ff 	callq	-5508 <___clang_call_terminate>
100002d14:	66 66 66 2e 0f 1f 84 00 00 00 00 00 	nopw	%cs:(%rax,%rax)
100002d20:	55 	pushq	%rbp
100002d21:	48 89 e5 	movq	%rsp, %rbp
100002d24:	41 56 	pushq	%r14
100002d26:	53 	pushq	%rbx
100002d27:	48 89 fb 	movq	%rdi, %rbx
100002d2a:	e8 01 f7 ff ff 	callq	-2303 <__ZNSt3__114basic_ifstreamIcNS_11char_traitsIcEEED1Ev>
100002d2f:	48 89 df 	movq	%rbx, %rdi
100002d32:	5b 	popq	%rbx
100002d33:	41 5e 	popq	%r14
100002d35:	5d 	popq	%rbp
100002d36:	e9 27 24 00 00 	jmp	9255
100002d3b:	49 89 c6 	movq	%rax, %r14
100002d3e:	48 89 df 	movq	%rbx, %rdi
100002d41:	e8 1c 24 00 00 	callq	9244
100002d46:	4c 89 f7 	movq	%r14, %rdi
100002d49:	e8 72 23 00 00 	callq	9074
100002d4e:	0f 0b 	ud2
100002d50:	55 	pushq	%rbp
100002d51:	48 89 e5 	movq	%rsp, %rbp
100002d54:	41 57 	pushq	%r15
100002d56:	41 56 	pushq	%r14
100002d58:	53 	pushq	%rbx
100002d59:	50 	pushq	%rax
100002d5a:	48 8b 07 	movq	(%rdi), %rax
100002d5d:	48 8b 40 e8 	movq	-24(%rax), %rax
100002d61:	48 8d 1c 07 	leaq	(%rdi,%rax), %rbx
100002d65:	48 8b 0d f4 32 00 00 	movq	13044(%rip), %rcx
100002d6c:	48 8d 51 18 	leaq	24(%rcx), %rdx
100002d70:	48 89 14 07 	movq	%rdx, (%rdi,%rax)
100002d74:	4c 8d b4 07 a8 01 00 00 	leaq	424(%rdi,%rax), %r14
100002d7c:	48 83 c1 40 	addq	$64, %rcx
100002d80:	48 89 8c 07 a8 01 00 00 	movq	%rcx, 424(%rdi,%rax)
100002d88:	48 8d 7c 07 10 	leaq	16(%rdi,%rax), %rdi
100002d8d:	e8 8e 00 00 00 	callq	142 <__ZNSt3__113basic_filebufIcNS_11char_traitsIcEEED2Ev>
100002d92:	48 8b 35 b7 32 00 00 	movq	12983(%rip), %rsi
100002d99:	48 83 c6 08 	addq	$8, %rsi
100002d9d:	48 89 df 	movq	%rbx, %rdi
100002da0:	e8 51 23 00 00 	callq	9041
100002da5:	4c 89 f7 	movq	%r14, %rdi
100002da8:	e8 9d 23 00 00 	callq	9117
100002dad:	48 89 df 	movq	%rbx, %rdi
100002db0:	48 83 c4 08 	addq	$8, %rsp
100002db4:	5b 	popq	%rbx
100002db5:	41 5e 	popq	%r14
100002db7:	41 5f 	popq	%r15
100002db9:	5d 	popq	%rbp
100002dba:	e9 a3 23 00 00 	jmp	9123
100002dbf:	49 89 c7 	movq	%rax, %r15
100002dc2:	eb 23 	jmp	35 <__ZTv0_n24_NSt3__114basic_ifstreamIcNS_11char_traitsIcEEED0Ev+0x97>
100002dc4:	49 89 c7 	movq	%rax, %r15
100002dc7:	eb 16 	jmp	22 <__ZTv0_n24_NSt3__114basic_ifstreamIcNS_11char_traitsIcEEED0Ev+0x8f>
100002dc9:	49 89 c7 	movq	%rax, %r15
100002dcc:	48 8b 35 7d 32 00 00 	movq	12925(%rip), %rsi
100002dd3:	48 83 c6 08 	addq	$8, %rsi
100002dd7:	48 89 df 	movq	%rbx, %rdi
100002dda:	e8 17 23 00 00 	callq	8983
100002ddf:	4c 89 f7 	movq	%r14, %rdi
100002de2:	e8 63 23 00 00 	callq	9059
100002de7:	48 89 df 	movq	%rbx, %rdi
100002dea:	e8 73 23 00 00 	callq	9075
100002def:	4c 89 ff 	movq	%r15, %rdi
100002df2:	e8 c9 22 00 00 	callq	8905
100002df7:	0f 0b 	ud2
100002df9:	48 89 c7 	movq	%rax, %rdi
100002dfc:	e8 8f e9 ff ff 	callq	-5745 <___clang_call_terminate>
100002e01:	48 89 c7 	movq	%rax, %rdi
100002e04:	e8 87 e9 ff ff 	callq	-5753 <___clang_call_terminate>
100002e09:	0f 1f 80 00 00 00 00 	nopl	(%rax)
100002e10:	55 	pushq	%rbp
100002e11:	48 89 e5 	movq	%rsp, %rbp
100002e14:	5d 	popq	%rbp
100002e15:	e9 06 00 00 00 	jmp	6 <__ZNSt3__113basic_filebufIcNS_11char_traitsIcEEED2Ev>
100002e1a:	66 0f 1f 44 00 00 	nopw	(%rax,%rax)
100002e20:	55 	pushq	%rbp
100002e21:	48 89 e5 	movq	%rsp, %rbp
100002e24:	41 57 	pushq	%r15
100002e26:	41 56 	pushq	%r14
100002e28:	53 	pushq	%rbx
100002e29:	50 	pushq	%rax
100002e2a:	48 89 fb 	movq	%rdi, %rbx
100002e2d:	48 8b 05 24 32 00 00 	movq	12836(%rip), %rax
100002e34:	48 83 c0 10 	addq	$16, %rax
100002e38:	48 89 03 	movq	%rax, (%rbx)
100002e3b:	4c 8b 73 78 	movq	120(%rbx), %r14
100002e3f:	4d 85 f6 	testq	%r14, %r14
100002e42:	74 1c 	je	28 <__ZNSt3__113basic_filebufIcNS_11char_traitsIcEEED2Ev+0x40>
100002e44:	48 89 df 	movq	%rbx, %rdi
100002e47:	e8 a4 05 00 00 	callq	1444 <__ZNSt3__113basic_filebufIcNS_11char_traitsIcEEE4syncEv>
100002e4c:	4c 89 f7 	movq	%r14, %rdi
100002e4f:	e8 56 23 00 00 	callq	9046
100002e54:	85 c0 	testl	%eax, %eax
100002e56:	75 08 	jne	8 <__ZNSt3__113basic_filebufIcNS_11char_traitsIcEEED2Ev+0x40>
100002e58:	48 c7 43 78 00 00 00 00 	movq	$0, 120(%rbx)
100002e60:	80 bb 90 01 00 00 00 	cmpb	$0, 400(%rbx)
100002e67:	74 0e 	je	14 <__ZNSt3__113basic_filebufIcNS_11char_traitsIcEEED2Ev+0x57>
100002e69:	48 8b 7b 40 	movq	64(%rbx), %rdi
100002e6d:	48 85 ff 	testq	%rdi, %rdi
100002e70:	74 05 	je	5 <__ZNSt3__113basic_filebufIcNS_11char_traitsIcEEED2Ev+0x57>
100002e72:	e8 e5 22 00 00 	callq	8933
100002e77:	80 bb 91 01 00 00 00 	cmpb	$0, 401(%rbx)
100002e7e:	74 0e 	je	14 <__ZNSt3__113basic_filebufIcNS_11char_traitsIcEEED2Ev+0x6e>
100002e80:	48 8b 7b 68 	movq	104(%rbx), %rdi
100002e84:	48 85 ff 	testq	%rdi, %rdi
100002e87:	74 05 	je	5 <__ZNSt3__113basic_filebufIcNS_11char_traitsIcEEED2Ev+0x6e>
100002e89:	e8 ce 22 00 00 	callq	8910
100002e8e:	48 89 df 	movq	%rbx, %rdi
100002e91:	48 83 c4 08 	addq	$8, %rsp
100002e95:	5b 	popq	%rbx
100002e96:	41 5e 	popq	%r14
100002e98:	41 5f 	popq	%r15
100002e9a:	5d 	popq	%rbp
100002e9b:	e9 86 22 00 00 	jmp	8838
100002ea0:	49 89 c7 	movq	%rax, %r15
100002ea3:	4c 89 f7 	movq	%r14, %rdi
100002ea6:	e8 ff 22 00 00 	callq	8959
100002eab:	4c 89 ff 	movq	%r15, %rdi
100002eae:	e8 cd 22 00 00 	callq	8909
100002eb3:	e8 d4 22 00 00 	callq	8916
100002eb8:	eb a6 	jmp	-90 <__ZNSt3__113basic_filebufIcNS_11char_traitsIcEEED2Ev+0x40>
100002eba:	49 89 c6 	movq	%rax, %r14
100002ebd:	48 89 df 	movq	%rbx, %rdi
100002ec0:	e8 61 22 00 00 	callq	8801
100002ec5:	4c 89 f7 	movq	%r14, %rdi
100002ec8:	e8 f3 21 00 00 	callq	8691
100002ecd:	0f 0b 	ud2
100002ecf:	48 89 c7 	movq	%rax, %rdi
100002ed2:	e8 b9 e8 ff ff 	callq	-5959 <___clang_call_terminate>
100002ed7:	66 0f 1f 84 00 00 00 00 00 	nopw	(%rax,%rax)
100002ee0:	55 	pushq	%rbp
100002ee1:	48 89 e5 	movq	%rsp, %rbp
100002ee4:	41 56 	pushq	%r14
100002ee6:	53 	pushq	%rbx
100002ee7:	48 89 fb 	movq	%rdi, %rbx
100002eea:	e8 31 ff ff ff 	callq	-207 <__ZNSt3__113basic_filebufIcNS_11char_traitsIcEEED2Ev>
100002eef:	48 89 df 	movq	%rbx, %rdi
100002ef2:	5b 	popq	%rbx
100002ef3:	41 5e 	popq	%r14
100002ef5:	5d 	popq	%rbp
100002ef6:	e9 67 22 00 00 	jmp	8807
100002efb:	49 89 c6 	movq	%rax, %r14
100002efe:	48 89 df 	movq	%rbx, %rdi
100002f01:	e8 5c 22 00 00 	callq	8796
100002f06:	4c 89 f7 	movq	%r14, %rdi
100002f09:	e8 b2 21 00 00 	callq	8626
100002f0e:	0f 0b 	ud2
100002f10:	55 	pushq	%rbp
100002f11:	48 89 e5 	movq	%rsp, %rbp
100002f14:	41 56 	pushq	%r14
100002f16:	53 	pushq	%rbx
100002f17:	49 89 f6 	movq	%rsi, %r14
100002f1a:	48 89 fb 	movq	%rdi, %rbx
100002f1d:	48 8b 03 	movq	(%rbx), %rax
100002f20:	ff 50 30 	callq	*48(%rax)
100002f23:	48 8b 35 06 31 00 00 	movq	12550(%rip), %rsi
100002f2a:	4c 89 f7 	movq	%r14, %rdi
100002f2d:	e8 a0 21 00 00 	callq	8608
100002f32:	48 89 83 80 00 00 00 	movq	%rax, 128(%rbx)
100002f39:	44 0f b6 b3 92 01 00 00 	movzbl	402(%rbx), %r14d
100002f41:	48 8b 08 	movq	(%rax), %rcx
100002f44:	48 89 c7 	movq	%rax, %rdi
100002f47:	ff 51 38 	callq	*56(%rcx)
100002f4a:	88 83 92 01 00 00 	movb	%al, 402(%rbx)
100002f50:	0f b6 c8 	movzbl	%al, %ecx
100002f53:	41 39 ce 	cmpl	%ecx, %r14d
100002f56:	0f 84 cf 00 00 00 	je	207 <__ZNSt3__113basic_filebufIcNS_11char_traitsIcEEE5imbueERKNS_6localeE+0x11b>
100002f5c:	48 c7 43 38 00 00 00 00 	movq	$0, 56(%rbx)
100002f64:	48 c7 43 30 00 00 00 00 	movq	$0, 48(%rbx)
100002f6c:	48 c7 43 28 00 00 00 00 	movq	$0, 40(%rbx)
100002f74:	48 c7 43 20 00 00 00 00 	movq	$0, 32(%rbx)
100002f7c:	48 c7 43 18 00 00 00 00 	movq	$0, 24(%rbx)
100002f84:	48 c7 43 10 00 00 00 00 	movq	$0, 16(%rbx)
100002f8c:	8a 8b 90 01 00 00 	movb	400(%rbx), %cl
100002f92:	84 c0 	testb	%al, %al
100002f94:	74 47 	je	71 <__ZNSt3__113basic_filebufIcNS_11char_traitsIcEEE5imbueERKNS_6localeE+0xcd>
100002f96:	84 c9 	testb	%cl, %cl
100002f98:	74 0e 	je	14 <__ZNSt3__113basic_filebufIcNS_11char_traitsIcEEE5imbueERKNS_6localeE+0x98>
100002f9a:	48 8b 7b 40 	movq	64(%rbx), %rdi
100002f9e:	48 85 ff 	testq	%rdi, %rdi
100002fa1:	74 05 	je	5 <__ZNSt3__113basic_filebufIcNS_11char_traitsIcEEE5imbueERKNS_6localeE+0x98>
100002fa3:	e8 b4 21 00 00 	callq	8628
100002fa8:	8a 83 91 01 00 00 	movb	401(%rbx), %al
100002fae:	88 83 90 01 00 00 	movb	%al, 400(%rbx)
100002fb4:	48 8b 43 68 	movq	104(%rbx), %rax
100002fb8:	48 8b 4b 70 	movq	112(%rbx), %rcx
100002fbc:	48 89 4b 60 	movq	%rcx, 96(%rbx)
100002fc0:	48 89 43 40 	movq	%rax, 64(%rbx)
100002fc4:	c6 83 91 01 00 00 00 	movb	$0, 401(%rbx)
100002fcb:	48 c7 43 70 00 00 00 00 	movq	$0, 112(%rbx)
100002fd3:	48 c7 43 68 00 00 00 00 	movq	$0, 104(%rbx)
100002fdb:	eb 4e 	jmp	78 <__ZNSt3__113basic_filebufIcNS_11char_traitsIcEEE5imbueERKNS_6localeE+0x11b>
100002fdd:	84 c9 	testb	%cl, %cl
100002fdf:	74 1a 	je	26 <__ZNSt3__113basic_filebufIcNS_11char_traitsIcEEE5imbueERKNS_6localeE+0xeb>
100002fe1:	48 8b 7b 60 	movq	96(%rbx), %rdi
100002fe5:	48 89 7b 70 	movq	%rdi, 112(%rbx)
100002fe9:	e8 7a 21 00 00 	callq	8570
100002fee:	48 89 43 68 	movq	%rax, 104(%rbx)
100002ff2:	c6 83 91 01 00 00 01 	movb	$1, 401(%rbx)
100002ff9:	eb 30 	jmp	48 <__ZNSt3__113basic_filebufIcNS_11char_traitsIcEEE5imbueERKNS_6localeE+0x11b>
100002ffb:	48 8b 43 40 	movq	64(%rbx), %rax
100002fff:	48 8d 4b 58 	leaq	88(%rbx), %rcx
100003003:	48 39 c8 	cmpq	%rcx, %rax
100003006:	74 d9 	je	-39 <__ZNSt3__113basic_filebufIcNS_11char_traitsIcEEE5imbueERKNS_6localeE+0xd1>
100003008:	48 8b 7b 60 	movq	96(%rbx), %rdi
10000300c:	48 89 7b 70 	movq	%rdi, 112(%rbx)
100003010:	48 89 43 68 	movq	%rax, 104(%rbx)
100003014:	c6 83 91 01 00 00 00 	movb	$0, 401(%rbx)
10000301b:	e8 48 21 00 00 	callq	8520
100003020:	48 89 43 40 	movq	%rax, 64(%rbx)
100003024:	c6 83 90 01 00 00 01 	movb	$1, 400(%rbx)
10000302b:	5b 	popq	%rbx
10000302c:	41 5e 	popq	%r14
10000302e:	5d 	popq	%rbp
10000302f:	c3 	retq
100003030:	55 	pushq	%rbp
100003031:	48 89 e5 	movq	%rsp, %rbp
100003034:	41 57 	pushq	%r15
100003036:	41 56 	pushq	%r14
100003038:	41 54 	pushq	%r12
10000303a:	53 	pushq	%rbx
10000303b:	49 89 d7 	movq	%rdx, %r15
10000303e:	49 89 f6 	movq	%rsi, %r14
100003041:	48 89 fb 	movq	%rdi, %rbx
100003044:	48 c7 43 38 00 00 00 00 	movq	$0, 56(%rbx)
10000304c:	48 c7 43 30 00 00 00 00 	movq	$0, 48(%rbx)
100003054:	48 c7 43 28 00 00 00 00 	movq	$0, 40(%rbx)
10000305c:	48 c7 43 20 00 00 00 00 	movq	$0, 32(%rbx)
100003064:	48 c7 43 18 00 00 00 00 	movq	$0, 24(%rbx)
10000306c:	48 c7 43 10 00 00 00 00 	movq	$0, 16(%rbx)
100003074:	80 bb 90 01 00 00 00 	cmpb	$0, 400(%rbx)
10000307b:	74 0e 	je	14 <__ZNSt3__113basic_filebufIcNS_11char_traitsIcEEE6setbufEPcl+0x5b>
10000307d:	48 8b 7b 40 	movq	64(%rbx), %rdi
100003081:	48 85 ff 	testq	%rdi, %rdi
100003084:	74 05 	je	5 <__ZNSt3__113basic_filebufIcNS_11char_traitsIcEEE6setbufEPcl+0x5b>
100003086:	e8 d1 20 00 00 	callq	8401
10000308b:	80 bb 91 01 00 00 00 	cmpb	$0, 401(%rbx)
100003092:	74 0e 	je	14 <__ZNSt3__113basic_filebufIcNS_11char_traitsIcEEE6setbufEPcl+0x72>
100003094:	48 8b 7b 68 	movq	104(%rbx), %rdi
100003098:	48 85 ff 	testq	%rdi, %rdi
10000309b:	74 05 	je	5 <__ZNSt3__113basic_filebufIcNS_11char_traitsIcEEE6setbufEPcl+0x72>
10000309d:	e8 ba 20 00 00 	callq	8378
1000030a2:	4c 89 7b 60 	movq	%r15, 96(%rbx)
1000030a6:	49 83 ff 09 	cmpq	$9, %r15
1000030aa:	72 1e 	jb	30 <__ZNSt3__113basic_filebufIcNS_11char_traitsIcEEE6setbufEPcl+0x9a>
1000030ac:	44 8a a3 92 01 00 00 	movb	402(%rbx), %r12b
1000030b3:	4d 85 f6 	testq	%r14, %r14
1000030b6:	74 58 	je	88 <__ZNSt3__113basic_filebufIcNS_11char_traitsIcEEE6setbufEPcl+0xe0>
1000030b8:	45 84 e4 	testb	%r12b, %r12b
1000030bb:	74 53 	je	83 <__ZNSt3__113basic_filebufIcNS_11char_traitsIcEEE6setbufEPcl+0xe0>
1000030bd:	4c 89 73 40 	movq	%r14, 64(%rbx)
1000030c1:	c6 83 90 01 00 00 00 	movb	$0, 400(%rbx)
1000030c8:	eb 23 	jmp	35 <__ZNSt3__113basic_filebufIcNS_11char_traitsIcEEE6setbufEPcl+0xbd>
1000030ca:	48 8d 43 58 	leaq	88(%rbx), %rax
1000030ce:	48 89 43 40 	movq	%rax, 64(%rbx)
1000030d2:	48 c7 43 60 08 00 00 00 	movq	$8, 96(%rbx)
1000030da:	c6 83 90 01 00 00 00 	movb	$0, 400(%rbx)
1000030e1:	44 8a a3 92 01 00 00 	movb	402(%rbx), %r12b
1000030e8:	45 84 e4 	testb	%r12b, %r12b
1000030eb:	74 3b 	je	59 <__ZNSt3__113basic_filebufIcNS_11char_traitsIcEEE6setbufEPcl+0xf8>
1000030ed:	c6 83 91 01 00 00 00 	movb	$0, 401(%rbx)
1000030f4:	48 c7 43 70 00 00 00 00 	movq	$0, 112(%rbx)
1000030fc:	48 c7 43 68 00 00 00 00 	movq	$0, 104(%rbx)
100003104:	48 89 d8 	movq	%rbx, %rax
100003107:	5b 	popq	%rbx
100003108:	41 5c 	popq	%r12
10000310a:	41 5e 	popq	%r14
10000310c:	41 5f 	popq	%r15
10000310e:	5d 	popq	%rbp
10000310f:	c3 	retq
100003110:	4c 89 ff 	movq	%r15, %rdi
100003113:	e8 50 20 00 00 	callq	8272
100003118:	48 89 43 40 	movq	%rax, 64(%rbx)
10000311c:	c6 83 90 01 00 00 01 	movb	$1, 400(%rbx)
100003123:	45 84 e4 	testb	%r12b, %r12b
100003126:	75 c5 	jne	-59 <__ZNSt3__113basic_filebufIcNS_11char_traitsIcEEE6setbufEPcl+0xbd>
100003128:	49 83 ff 07 	cmpq	$7, %r15
10000312c:	bf 08 00 00 00 	movl	$8, %edi
100003131:	49 0f 4f ff 	cmovgq	%r15, %rdi
100003135:	48 89 7b 70 	movq	%rdi, 112(%rbx)
100003139:	4d 85 f6 	testq	%r14, %r14
10000313c:	74 13 	je	19 <__ZNSt3__113basic_filebufIcNS_11char_traitsIcEEE6setbufEPcl+0x121>
10000313e:	48 83 ff 08 	cmpq	$8, %rdi
100003142:	72 0d 	jb	13 <__ZNSt3__113basic_filebufIcNS_11char_traitsIcEEE6setbufEPcl+0x121>
100003144:	4c 89 73 68 	movq	%r14, 104(%rbx)
100003148:	c6 83 91 01 00 00 00 	movb	$0, 401(%rbx)
10000314f:	eb b3 	jmp	-77 <__ZNSt3__113basic_filebufIcNS_11char_traitsIcEEE6setbufEPcl+0xd4>
100003151:	e8 12 20 00 00 	callq	8210
100003156:	48 89 43 68 	movq	%rax, 104(%rbx)
10000315a:	c6 83 91 01 00 00 01 	movb	$1, 401(%rbx)
100003161:	eb a1 	jmp	-95 <__ZNSt3__113basic_filebufIcNS_11char_traitsIcEEE6setbufEPcl+0xd4>
100003163:	66 66 66 66 2e 0f 1f 84 00 00 00 00 00 	nopw	%cs:(%rax,%rax)
100003170:	55 	pushq	%rbp
100003171:	48 89 e5 	movq	%rsp, %rbp
100003174:	41 57 	pushq	%r15
100003176:	41 56 	pushq	%r14
100003178:	41 55 	pushq	%r13
10000317a:	41 54 	pushq	%r12
10000317c:	53 	pushq	%rbx
10000317d:	50 	pushq	%rax
10000317e:	41 89 cf 	movl	%ecx, %r15d
100003181:	49 89 d4 	movq	%rdx, %r12
100003184:	49 89 f6 	movq	%rsi, %r14
100003187:	48 89 fb 	movq	%rdi, %rbx
10000318a:	49 8b be 80 00 00 00 	movq	128(%r14), %rdi
100003191:	48 85 ff 	testq	%rdi, %rdi
100003194:	0f 84 0f 01 00 00 	je	271 <__ZNSt3__113basic_filebufIcNS_11char_traitsIcEEE7seekoffExNS_8ios_base7seekdirEj+0x139>
10000319a:	48 8b 07 	movq	(%rdi), %rax
10000319d:	ff 50 30 	callq	*48(%rax)
1000031a0:	41 89 c5 	movl	%eax, %r13d
1000031a3:	49 83 7e 78 00 	cmpq	$0, 120(%r14)
1000031a8:	74 40 	je	64 <__ZNSt3__113basic_filebufIcNS_11char_traitsIcEEE7seekoffExNS_8ios_base7seekdirEj+0x7a>
1000031aa:	4d 85 e4 	testq	%r12, %r12
1000031ad:	74 05 	je	5 <__ZNSt3__113basic_filebufIcNS_11char_traitsIcEEE7seekoffExNS_8ios_base7seekdirEj+0x44>
1000031af:	45 85 ed 	testl	%r13d, %r13d
1000031b2:	7e 36 	jle	54 <__ZNSt3__113basic_filebufIcNS_11char_traitsIcEEE7seekoffExNS_8ios_base7seekdirEj+0x7a>
1000031b4:	49 8b 06 	movq	(%r14), %rax
1000031b7:	4c 89 f7 	movq	%r14, %rdi
1000031ba:	ff 50 30 	callq	*48(%rax)
1000031bd:	85 c0 	testl	%eax, %eax
1000031bf:	75 29 	jne	41 <__ZNSt3__113basic_filebufIcNS_11char_traitsIcEEE7seekoffExNS_8ios_base7seekdirEj+0x7a>
1000031c1:	41 83 ff 03 	cmpl	$3, %r15d
1000031c5:	73 23 	jae	35 <__ZNSt3__113basic_filebufIcNS_11char_traitsIcEEE7seekoffExNS_8ios_base7seekdirEj+0x7a>
1000031c7:	49 8b 7e 78 	movq	120(%r14), %rdi
1000031cb:	49 63 c5 	movslq	%r13d, %rax
1000031ce:	4c 0f af e0 	imulq	%rax, %r12
1000031d2:	31 f6 	xorl	%esi, %esi
1000031d4:	85 c0 	testl	%eax, %eax
1000031d6:	49 0f 4f f4 	cmovgq	%r12, %rsi
1000031da:	44 89 fa 	movl	%r15d, %edx
1000031dd:	e8 e0 1f 00 00 	callq	8160
1000031e2:	85 c0 	testl	%eax, %eax
1000031e4:	0f 84 9f 00 00 00 	je	159 <__ZNSt3__113basic_filebufIcNS_11char_traitsIcEEE7seekoffExNS_8ios_base7seekdirEj+0x119>
1000031ea:	48 c7 43 78 00 00 00 00 	movq	$0, 120(%rbx)
1000031f2:	48 c7 43 70 00 00 00 00 	movq	$0, 112(%rbx)
1000031fa:	48 c7 43 68 00 00 00 00 	movq	$0, 104(%rbx)
100003202:	48 c7 43 60 00 00 00 00 	movq	$0, 96(%rbx)
10000320a:	48 c7 43 58 00 00 00 00 	movq	$0, 88(%rbx)
100003212:	48 c7 43 50 00 00 00 00 	movq	$0, 80(%rbx)
10000321a:	48 c7 43 48 00 00 00 00 	movq	$0, 72(%rbx)
100003222:	48 c7 43 40 00 00 00 00 	movq	$0, 64(%rbx)
10000322a:	48 c7 43 38 00 00 00 00 	movq	$0, 56(%rbx)
100003232:	48 c7 43 30 00 00 00 00 	movq	$0, 48(%rbx)
10000323a:	48 c7 43 28 00 00 00 00 	movq	$0, 40(%rbx)
100003242:	48 c7 43 20 00 00 00 00 	movq	$0, 32(%rbx)
10000324a:	48 c7 43 18 00 00 00 00 	movq	$0, 24(%rbx)
100003252:	48 c7 43 10 00 00 00 00 	movq	$0, 16(%rbx)
10000325a:	48 c7 43 08 00 00 00 00 	movq	$0, 8(%rbx)
100003262:	48 c7 03 00 00 00 00 	movq	$0, (%rbx)
100003269:	48 c7 c0 ff ff ff ff 	movq	$-1, %rax
100003270:	48 89 83 80 00 00 00 	movq	%rax, 128(%rbx)
100003277:	48 89 d8 	movq	%rbx, %rax
10000327a:	48 83 c4 08 	addq	$8, %rsp
10000327e:	5b 	popq	%rbx
10000327f:	41 5c 	popq	%r12
100003281:	41 5d 	popq	%r13
100003283:	41 5e 	popq	%r14
100003285:	41 5f 	popq	%r15
100003287:	5d 	popq	%rbp
100003288:	c3 	retq
100003289:	49 8b 7e 78 	movq	120(%r14), %rdi
10000328d:	e8 36 1f 00 00 	callq	7990
100003292:	49 81 c6 88 00 00 00 	addq	$136, %r14
100003299:	b9 10 00 00 00 	movl	$16, %ecx
10000329e:	48 89 df 	movq	%rbx, %rdi
1000032a1:	4c 89 f6 	movq	%r14, %rsi
1000032a4:	f3 48 a5 	rep		movsq	(%rsi), %es:(%rdi)
1000032a7:	eb c7 	jmp	-57 <__ZNSt3__113basic_filebufIcNS_11char_traitsIcEEE7seekoffExNS_8ios_base7seekdirEj+0x100>
1000032a9:	bf 08 00 00 00 	movl	$8, %edi
1000032ae:	e8 c7 1e 00 00 	callq	7879
1000032b3:	48 89 c3 	movq	%rax, %rbx
1000032b6:	48 89 df 	movq	%rbx, %rdi
1000032b9:	e8 92 1e 00 00 	callq	7826
1000032be:	48 8b 35 83 2d 00 00 	movq	11651(%rip), %rsi
1000032c5:	48 8b 15 6c 2d 00 00 	movq	11628(%rip), %rdx
1000032cc:	48 89 df 	movq	%rbx, %rdi
1000032cf:	e8 be 1e 00 00 	callq	7870
1000032d4:	66 66 66 2e 0f 1f 84 00 00 00 00 00 	nopw	%cs:(%rax,%rax)
1000032e0:	55 	pushq	%rbp
1000032e1:	48 89 e5 	movq	%rsp, %rbp
1000032e4:	41 57 	pushq	%r15
1000032e6:	41 56 	pushq	%r14
1000032e8:	53 	pushq	%rbx
1000032e9:	50 	pushq	%rax
1000032ea:	49 89 f6 	movq	%rsi, %r14
1000032ed:	48 89 fb 	movq	%rdi, %rbx
1000032f0:	49 83 7e 78 00 	cmpq	$0, 120(%r14)
1000032f5:	74 2b 	je	43 <__ZNSt3__113basic_filebufIcNS_11char_traitsIcEEE7seekposENS_4fposI11__mbstate_tEEj+0x42>
1000032f7:	49 8b 06 	movq	(%r14), %rax
1000032fa:	4c 89 f7 	movq	%r14, %rdi
1000032fd:	ff 50 30 	callq	*48(%rax)
100003300:	85 c0 	testl	%eax, %eax
100003302:	75 1e 	jne	30 <__ZNSt3__113basic_filebufIcNS_11char_traitsIcEEE7seekposENS_4fposI11__mbstate_tEEj+0x42>
100003304:	4c 8d 7d 10 	leaq	16(%rbp), %r15
100003308:	49 8b 7e 78 	movq	120(%r14), %rdi
10000330c:	49 8b b7 80 00 00 00 	movq	128(%r15), %rsi
100003313:	31 d2 	xorl	%edx, %edx
100003315:	e8 a8 1e 00 00 	callq	7848
10000331a:	85 c0 	testl	%eax, %eax
10000331c:	0f 84 98 00 00 00 	je	152 <__ZNSt3__113basic_filebufIcNS_11char_traitsIcEEE7seekposENS_4fposI11__mbstate_tEEj+0xda>
100003322:	48 c7 43 78 00 00 00 00 	movq	$0, 120(%rbx)
10000332a:	48 c7 43 70 00 00 00 00 	movq	$0, 112(%rbx)
100003332:	48 c7 43 68 00 00 00 00 	movq	$0, 104(%rbx)
10000333a:	48 c7 43 60 00 00 00 00 	movq	$0, 96(%rbx)
100003342:	48 c7 43 58 00 00 00 00 	movq	$0, 88(%rbx)
10000334a:	48 c7 43 50 00 00 00 00 	movq	$0, 80(%rbx)
100003352:	48 c7 43 48 00 00 00 00 	movq	$0, 72(%rbx)
10000335a:	48 c7 43 40 00 00 00 00 	movq	$0, 64(%rbx)
100003362:	48 c7 43 38 00 00 00 00 	movq	$0, 56(%rbx)
10000336a:	48 c7 43 30 00 00 00 00 	movq	$0, 48(%rbx)
100003372:	48 c7 43 28 00 00 00 00 	movq	$0, 40(%rbx)
10000337a:	48 c7 43 20 00 00 00 00 	movq	$0, 32(%rbx)
100003382:	48 c7 43 18 00 00 00 00 	movq	$0, 24(%rbx)
10000338a:	48 c7 43 10 00 00 00 00 	movq	$0, 16(%rbx)
100003392:	48 c7 43 08 00 00 00 00 	movq	$0, 8(%rbx)
10000339a:	48 c7 03 00 00 00 00 	movq	$0, (%rbx)
1000033a1:	48 c7 83 80 00 00 00 ff ff ff ff 	movq	$-1, 128(%rbx)
1000033ac:	48 89 d8 	movq	%rbx, %rax
1000033af:	48 83 c4 08 	addq	$8, %rsp
1000033b3:	5b 	popq	%rbx
1000033b4:	41 5e 	popq	%r14
1000033b6:	41 5f 	popq	%r15
1000033b8:	5d 	popq	%rbp
1000033b9:	c3 	retq
1000033ba:	49 81 c6 88 00 00 00 	addq	$136, %r14
1000033c1:	b9 10 00 00 00 	movl	$16, %ecx
1000033c6:	4c 89 f7 	movq	%r14, %rdi
1000033c9:	4c 89 fe 	movq	%r15, %rsi
1000033cc:	f3 48 a5 	rep		movsq	(%rsi), %es:(%rdi)
1000033cf:	ba 88 00 00 00 	movl	$136, %edx
1000033d4:	48 89 df 	movq	%rbx, %rdi
1000033d7:	4c 89 fe 	movq	%r15, %rsi
1000033da:	e8 fb 1d 00 00 	callq	7675
1000033df:	eb cb 	jmp	-53 <__ZNSt3__113basic_filebufIcNS_11char_traitsIcEEE7seekposENS_4fposI11__mbstate_tEEj+0xcc>
1000033e1:	66 66 66 66 66 66 2e 0f 1f 84 00 00 00 00 00 	nopw	%cs:(%rax,%rax)
1000033f0:	55 	pushq	%rbp
1000033f1:	48 89 e5 	movq	%rsp, %rbp
1000033f4:	41 57 	pushq	%r15
1000033f6:	41 56 	pushq	%r14
1000033f8:	41 55 	pushq	%r13
1000033fa:	41 54 	pushq	%r12
1000033fc:	53 	pushq	%rbx
1000033fd:	48 81 ec 88 00 00 00 	subq	$136, %rsp
100003404:	48 8b 05 65 2c 00 00 	movq	11365(%rip), %rax
10000340b:	48 8b 00 	movq	(%rax), %rax
10000340e:	48 89 45 d0 	movq	%rax, -48(%rbp)
100003412:	49 89 ff 	movq	%rdi, %r15
100003415:	45 31 ed 	xorl	%r13d, %r13d
100003418:	49 83 7f 78 00 	cmpq	$0, 120(%r15)
10000341d:	0f 84 98 01 00 00 	je	408 <__ZNSt3__113basic_filebufIcNS_11char_traitsIcEEE4syncEv+0x1cb>
100003423:	49 8b 87 80 00 00 00 	movq	128(%r15), %rax
10000342a:	48 85 c0 	testq	%rax, %rax
10000342d:	0f 84 f0 01 00 00 	je	496 <__ZNSt3__113basic_filebufIcNS_11char_traitsIcEEE4syncEv+0x233>
100003433:	41 8b 8f 8c 01 00 00 	movl	396(%r15), %ecx
10000343a:	f6 c1 10 	testb	$16, %cl
10000343d:	75 3a 	jne	58 <__ZNSt3__113basic_filebufIcNS_11char_traitsIcEEE4syncEv+0x89>
10000343f:	f6 c1 08 	testb	$8, %cl
100003442:	0f 84 70 01 00 00 	je	368 <__ZNSt3__113basic_filebufIcNS_11char_traitsIcEEE4syncEv+0x1c8>
100003448:	49 8d b7 08 01 00 00 	leaq	264(%r15), %rsi
10000344f:	48 8d bd 50 ff ff ff 	leaq	-176(%rbp), %rdi
100003456:	b9 10 00 00 00 	movl	$16, %ecx
10000345b:	f3 48 a5 	rep		movsq	(%rsi), %es:(%rdi)
10000345e:	41 80 bf 92 01 00 00 00 	cmpb	$0, 402(%r15)
100003466:	0f 84 b4 00 00 00 	je	180 <__ZNSt3__113basic_filebufIcNS_11char_traitsIcEEE4syncEv+0x130>
10000346c:	4d 8b 77 20 	movq	32(%r15), %r14
100003470:	4d 2b 77 18 	subq	24(%r15), %r14
100003474:	e9 d4 00 00 00 	jmp	212 <__ZNSt3__113basic_filebufIcNS_11char_traitsIcEEE4syncEv+0x15d>
100003479:	49 8b 47 30 	movq	48(%r15), %rax
10000347d:	49 3b 47 28 	cmpq	40(%r15), %rax
100003481:	74 1d 	je	29 <__ZNSt3__113basic_filebufIcNS_11char_traitsIcEEE4syncEv+0xb0>
100003483:	49 8b 07 	movq	(%r15), %rax
100003486:	41 bd ff ff ff ff 	movl	$4294967295, %r13d
10000348c:	be ff ff ff ff 	movl	$4294967295, %esi
100003491:	4c 89 ff 	movq	%r15, %rdi
100003494:	ff 50 68 	callq	*104(%rax)
100003497:	83 f8 ff 	cmpl	$-1, %eax
10000349a:	0f 84 1b 01 00 00 	je	283 <__ZNSt3__113basic_filebufIcNS_11char_traitsIcEEE4syncEv+0x1cb>
1000034a0:	4d 8d b7 88 00 00 00 	leaq	136(%r15), %r14
1000034a7:	41 bd ff ff ff ff 	movl	$4294967295, %r13d
1000034ad:	0f 1f 00 	nopl	(%rax)
1000034b0:	49 8b 57 40 	movq	64(%r15), %rdx
1000034b4:	49 8b bf 80 00 00 00 	movq	128(%r15), %rdi
1000034bb:	49 8b 4f 60 	movq	96(%r15), %rcx
1000034bf:	48 01 d1 	addq	%rdx, %rcx
1000034c2:	48 8b 07 	movq	(%rdi), %rax
1000034c5:	4c 89 f6 	movq	%r14, %rsi
1000034c8:	4c 8d 85 50 ff ff ff 	leaq	-176(%rbp), %r8
1000034cf:	ff 50 28 	callq	*40(%rax)
1000034d2:	89 c3 	movl	%eax, %ebx
1000034d4:	4c 8b a5 50 ff ff ff 	movq	-176(%rbp), %r12
1000034db:	49 8b 7f 40 	movq	64(%r15), %rdi
1000034df:	49 8b 4f 78 	movq	120(%r15), %rcx
1000034e3:	49 29 fc 	subq	%rdi, %r12
1000034e6:	be 01 00 00 00 	movl	$1, %esi
1000034eb:	4c 89 e2 	movq	%r12, %rdx
1000034ee:	e8 db 1c 00 00 	callq	7387
1000034f3:	4c 39 e0 	cmpq	%r12, %rax
1000034f6:	0f 85 bf 00 00 00 	jne	191 <__ZNSt3__113basic_filebufIcNS_11char_traitsIcEEE4syncEv+0x1cb>
1000034fc:	83 fb 01 	cmpl	$1, %ebx
1000034ff:	74 af 	je	-81 <__ZNSt3__113basic_filebufIcNS_11char_traitsIcEEE4syncEv+0xc0>
100003501:	83 fb 02 	cmpl	$2, %ebx
100003504:	0f 84 b1 00 00 00 	je	177 <__ZNSt3__113basic_filebufIcNS_11char_traitsIcEEE4syncEv+0x1cb>
10000350a:	49 8b 7f 78 	movq	120(%r15), %rdi
10000350e:	e8 9d 1c 00 00 	callq	7325
100003513:	85 c0 	testl	%eax, %eax
100003515:	0f 85 a0 00 00 00 	jne	160 <__ZNSt3__113basic_filebufIcNS_11char_traitsIcEEE4syncEv+0x1cb>
10000351b:	e9 98 00 00 00 	jmp	152 <__ZNSt3__113basic_filebufIcNS_11char_traitsIcEEE4syncEv+0x1c8>
100003520:	48 8b 08 	movq	(%rax), %rcx
100003523:	48 89 c7 	movq	%rax, %rdi
100003526:	ff 51 30 	callq	*48(%rcx)
100003529:	49 8b 4f 48 	movq	72(%r15), %rcx
10000352d:	4d 8b 77 50 	movq	80(%r15), %r14
100003531:	49 29 ce 	subq	%rcx, %r14
100003534:	85 c0 	testl	%eax, %eax
100003536:	0f 8e a4 00 00 00 	jle	164 <__ZNSt3__113basic_filebufIcNS_11char_traitsIcEEE4syncEv+0x1f0>
10000353c:	49 8b 4f 20 	movq	32(%r15), %rcx
100003540:	49 2b 4f 18 	subq	24(%r15), %rcx
100003544:	48 98 	cltq
100003546:	48 0f af c8 	imulq	%rax, %rcx
10000354a:	49 01 ce 	addq	%rcx, %r14
10000354d:	31 db 	xorl	%ebx, %ebx
10000354f:	49 8b 7f 78 	movq	120(%r15), %rdi
100003553:	49 f7 de 	negq	%r14
100003556:	ba 01 00 00 00 	movl	$1, %edx
10000355b:	4c 89 f6 	movq	%r14, %rsi
10000355e:	e8 5f 1c 00 00 	callq	7263
100003563:	85 c0 	testl	%eax, %eax
100003565:	74 08 	je	8 <__ZNSt3__113basic_filebufIcNS_11char_traitsIcEEE4syncEv+0x17f>
100003567:	41 bd ff ff ff ff 	movl	$4294967295, %r13d
10000356d:	eb 4c 	jmp	76 <__ZNSt3__113basic_filebufIcNS_11char_traitsIcEEE4syncEv+0x1cb>
10000356f:	84 db 	testb	%bl, %bl
100003571:	74 16 	je	22 <__ZNSt3__113basic_filebufIcNS_11char_traitsIcEEE4syncEv+0x199>
100003573:	49 8d bf 88 00 00 00 	leaq	136(%r15), %rdi
10000357a:	48 8d b5 50 ff ff ff 	leaq	-176(%rbp), %rsi
100003581:	b9 10 00 00 00 	movl	$16, %ecx
100003586:	f3 48 a5 	rep		movsq	(%rsi), %es:(%rdi)
100003589:	49 8b 47 40 	movq	64(%r15), %rax
10000358d:	49 89 47 50 	movq	%rax, 80(%r15)
100003591:	49 89 47 48 	movq	%rax, 72(%r15)
100003595:	41 c7 87 8c 01 00 00 00 00 00 00 	movl	$0, 396(%r15)
1000035a0:	49 c7 47 20 00 00 00 00 	movq	$0, 32(%r15)
1000035a8:	49 c7 47 18 00 00 00 00 	movq	$0, 24(%r15)
1000035b0:	49 c7 47 10 00 00 00 00 	movq	$0, 16(%r15)
1000035b8:	45 31 ed 	xorl	%r13d, %r13d
1000035bb:	48 8b 05 ae 2a 00 00 	movq	10926(%rip), %rax
1000035c2:	48 8b 00 	movq	(%rax), %rax
1000035c5:	48 3b 45 d0 	cmpq	-48(%rbp), %rax
1000035c9:	75 53 	jne	83 <__ZNSt3__113basic_filebufIcNS_11char_traitsIcEEE4syncEv+0x22e>
1000035cb:	44 89 e8 	movl	%r13d, %eax
1000035ce:	48 81 c4 88 00 00 00 	addq	$136, %rsp
1000035d5:	5b 	popq	%rbx
1000035d6:	41 5c 	popq	%r12
1000035d8:	41 5d 	popq	%r13
1000035da:	41 5e 	popq	%r14
1000035dc:	41 5f 	popq	%r15
1000035de:	5d 	popq	%rbp
1000035df:	c3 	retq
1000035e0:	4d 8b 47 18 	movq	24(%r15), %r8
1000035e4:	4d 3b 47 20 	cmpq	32(%r15), %r8
1000035e8:	0f 84 5f ff ff ff 	je	-161 <__ZNSt3__113basic_filebufIcNS_11char_traitsIcEEE4syncEv+0x15d>
1000035ee:	49 8b 57 40 	movq	64(%r15), %rdx
1000035f2:	49 8b bf 80 00 00 00 	movq	128(%r15), %rdi
1000035f9:	4d 2b 47 10 	subq	16(%r15), %r8
1000035fd:	48 8b 07 	movq	(%rdi), %rax
100003600:	48 8d b5 50 ff ff ff 	leaq	-176(%rbp), %rsi
100003607:	ff 50 40 	callq	*64(%rax)
10000360a:	48 98 	cltq
10000360c:	4d 03 77 48 	addq	72(%r15), %r14
100003610:	49 29 c6 	subq	%rax, %r14
100003613:	4d 2b 77 40 	subq	64(%r15), %r14
100003617:	b3 01 	movb	$1, %bl
100003619:	e9 31 ff ff ff 	jmp	-207 <__ZNSt3__113basic_filebufIcNS_11char_traitsIcEEE4syncEv+0x15f>
10000361e:	e8 7b 1b 00 00 	callq	7035
100003623:	bf 08 00 00 00 	movl	$8, %edi
100003628:	e8 4d 1b 00 00 	callq	6989
10000362d:	48 89 c3 	movq	%rax, %rbx
100003630:	48 89 df 	movq	%rbx, %rdi
100003633:	e8 18 1b 00 00 	callq	6936
100003638:	48 8b 35 09 2a 00 00 	movq	10761(%rip), %rsi
10000363f:	48 8b 15 f2 29 00 00 	movq	10738(%rip), %rdx
100003646:	48 89 df 	movq	%rbx, %rdi
100003649:	e8 44 1b 00 00 	callq	6980
10000364e:	66 90 	nop
100003650:	55 	pushq	%rbp
100003651:	48 89 e5 	movq	%rsp, %rbp
100003654:	41 57 	pushq	%r15
100003656:	41 56 	pushq	%r14
100003658:	41 55 	pushq	%r13
10000365a:	41 54 	pushq	%r12
10000365c:	53 	pushq	%rbx
10000365d:	48 83 ec 18 	subq	$24, %rsp
100003661:	48 89 fb 	movq	%rdi, %rbx
100003664:	48 83 7b 78 00 	cmpq	$0, 120(%rbx)
100003669:	0f 84 86 00 00 00 	je	134 <__ZNSt3__113basic_filebufIcNS_11char_traitsIcEEE9underflowEv+0xa5>
10000366f:	f6 83 8c 01 00 00 08 	testb	$8, 396(%rbx)
100003676:	0f 85 83 00 00 00 	jne	131 <__ZNSt3__113basic_filebufIcNS_11char_traitsIcEEE9underflowEv+0xaf>
10000367c:	48 c7 43 38 00 00 00 00 	movq	$0, 56(%rbx)
100003684:	48 c7 43 30 00 00 00 00 	movq	$0, 48(%rbx)
10000368c:	48 c7 43 28 00 00 00 00 	movq	$0, 40(%rbx)
100003694:	48 8d 43 68 	leaq	104(%rbx), %rax
100003698:	48 8d 4b 70 	leaq	112(%rbx), %rcx
10000369c:	48 8d 53 40 	leaq	64(%rbx), %rdx
1000036a0:	48 8d 73 60 	leaq	96(%rbx), %rsi
1000036a4:	80 bb 92 01 00 00 00 	cmpb	$0, 402(%rbx)
1000036ab:	48 0f 44 f1 	cmoveq	%rcx, %rsi
1000036af:	48 0f 44 d0 	cmoveq	%rax, %rdx
1000036b3:	48 8b 02 	movq	(%rdx), %rax
1000036b6:	48 8b 36 	movq	(%rsi), %rsi
1000036b9:	48 01 c6 	addq	%rax, %rsi
1000036bc:	48 89 43 10 	movq	%rax, 16(%rbx)
1000036c0:	48 89 73 18 	movq	%rsi, 24(%rbx)
1000036c4:	48 89 73 20 	movq	%rsi, 32(%rbx)
1000036c8:	c7 83 8c 01 00 00 08 00 00 00 	movl	$8, 396(%rbx)
1000036d2:	b0 01 	movb	$1, %al
1000036d4:	48 85 f6 	testq	%rsi, %rsi
1000036d7:	74 31 	je	49 <__ZNSt3__113basic_filebufIcNS_11char_traitsIcEEE9underflowEv+0xba>
1000036d9:	84 c0 	testb	%al, %al
1000036db:	74 45 	je	69 <__ZNSt3__113basic_filebufIcNS_11char_traitsIcEEE9underflowEv+0xd2>
1000036dd:	48 8b 43 20 	movq	32(%rbx), %rax
1000036e1:	45 31 f6 	xorl	%r14d, %r14d
1000036e4:	48 39 c6 	cmpq	%rax, %rsi
1000036e7:	74 64 	je	100 <__ZNSt3__113basic_filebufIcNS_11char_traitsIcEEE9underflowEv+0xfd>
1000036e9:	0f b6 06 	movzbl	(%rsi), %eax
1000036ec:	4c 8d 63 10 	leaq	16(%rbx), %r12
1000036f0:	e9 bb 01 00 00 	jmp	443 <__ZNSt3__113basic_filebufIcNS_11char_traitsIcEEE9underflowEv+0x260>
1000036f5:	b8 ff ff ff ff 	movl	$4294967295, %eax
1000036fa:	e9 d3 01 00 00 	jmp	467 <__ZNSt3__113basic_filebufIcNS_11char_traitsIcEEE9underflowEv+0x282>
1000036ff:	48 8b 73 18 	movq	24(%rbx), %rsi
100003703:	31 c0 	xorl	%eax, %eax
100003705:	48 85 f6 	testq	%rsi, %rsi
100003708:	75 cf 	jne	-49 <__ZNSt3__113basic_filebufIcNS_11char_traitsIcEEE9underflowEv+0x89>
10000370a:	48 8d 75 d8 	leaq	-40(%rbp), %rsi
10000370e:	48 8d 4d d7 	leaq	-41(%rbp), %rcx
100003712:	48 89 4b 10 	movq	%rcx, 16(%rbx)
100003716:	48 89 73 18 	movq	%rsi, 24(%rbx)
10000371a:	48 89 73 20 	movq	%rsi, 32(%rbx)
10000371e:	84 c0 	testb	%al, %al
100003720:	75 bb 	jne	-69 <__ZNSt3__113basic_filebufIcNS_11char_traitsIcEEE9underflowEv+0x8d>
100003722:	48 8b 43 20 	movq	32(%rbx), %rax
100003726:	48 89 c1 	movq	%rax, %rcx
100003729:	48 2b 4b 10 	subq	16(%rbx), %rcx
10000372d:	48 89 ca 	movq	%rcx, %rdx
100003730:	48 c1 ea 3f 	shrq	$63, %rdx
100003734:	48 01 ca 	addq	%rcx, %rdx
100003737:	48 d1 fa 	sarq	%rdx
10000373a:	48 83 fa 04 	cmpq	$4, %rdx
10000373e:	41 be 04 00 00 00 	movl	$4, %r14d
100003744:	4c 0f 42 f2 	cmovbq	%rdx, %r14
100003748:	48 39 c6 	cmpq	%rax, %rsi
10000374b:	75 9c 	jne	-100 <__ZNSt3__113basic_filebufIcNS_11char_traitsIcEEE9underflowEv+0x99>
10000374d:	4c 8d 63 10 	leaq	16(%rbx), %r12
100003751:	48 8b 7b 10 	movq	16(%rbx), %rdi
100003755:	4c 29 f6 	subq	%r14, %rsi
100003758:	4c 89 f2 	movq	%r14, %rdx
10000375b:	e8 80 1a 00 00 	callq	6784
100003760:	80 bb 92 01 00 00 00 	cmpb	$0, 402(%rbx)
100003767:	74 45 	je	69 <__ZNSt3__113basic_filebufIcNS_11char_traitsIcEEE9underflowEv+0x15e>
100003769:	48 8b 7b 10 	movq	16(%rbx), %rdi
10000376d:	48 8b 53 20 	movq	32(%rbx), %rdx
100003771:	4c 29 f2 	subq	%r14, %rdx
100003774:	48 29 fa 	subq	%rdi, %rdx
100003777:	4c 01 f7 	addq	%r14, %rdi
10000377a:	48 8b 4b 78 	movq	120(%rbx), %rcx
10000377e:	be 01 00 00 00 	movl	$1, %esi
100003783:	e8 34 1a 00 00 	callq	6708
100003788:	48 85 c0 	testq	%rax, %rax
10000378b:	0f 84 1a 01 00 00 	je	282 <__ZNSt3__113basic_filebufIcNS_11char_traitsIcEEE9underflowEv+0x25b>
100003791:	48 8b 4b 10 	movq	16(%rbx), %rcx
100003795:	4a 8d 14 31 	leaq	(%rcx,%r14), %rdx
100003799:	48 89 53 18 	movq	%rdx, 24(%rbx)
10000379d:	48 01 d0 	addq	%rdx, %rax
1000037a0:	48 89 43 20 	movq	%rax, 32(%rbx)
1000037a4:	42 0f b6 04 31 	movzbl	(%rcx,%r14), %eax
1000037a9:	e9 02 01 00 00 	jmp	258 <__ZNSt3__113basic_filebufIcNS_11char_traitsIcEEE9underflowEv+0x260>
1000037ae:	48 8b 73 48 	movq	72(%rbx), %rsi
1000037b2:	48 8b 43 50 	movq	80(%rbx), %rax
1000037b6:	48 89 c2 	movq	%rax, %rdx
1000037b9:	48 29 f2 	subq	%rsi, %rdx
1000037bc:	74 11 	je	17 <__ZNSt3__113basic_filebufIcNS_11char_traitsIcEEE9underflowEv+0x17f>
1000037be:	48 8b 7b 40 	movq	64(%rbx), %rdi
1000037c2:	e8 19 1a 00 00 	callq	6681
1000037c7:	48 8b 73 48 	movq	72(%rbx), %rsi
1000037cb:	48 8b 43 50 	movq	80(%rbx), %rax
1000037cf:	48 29 f0 	subq	%rsi, %rax
1000037d2:	48 8b 53 40 	movq	64(%rbx), %rdx
1000037d6:	48 01 d0 	addq	%rdx, %rax
1000037d9:	48 89 43 48 	movq	%rax, 72(%rbx)
1000037dd:	48 8d 4b 58 	leaq	88(%rbx), %rcx
1000037e1:	48 39 ca 	cmpq	%rcx, %rdx
1000037e4:	74 06 	je	6 <__ZNSt3__113basic_filebufIcNS_11char_traitsIcEEE9underflowEv+0x19c>
1000037e6:	48 8b 4b 60 	movq	96(%rbx), %rcx
1000037ea:	eb 05 	jmp	5 <__ZNSt3__113basic_filebufIcNS_11char_traitsIcEEE9underflowEv+0x1a1>
1000037ec:	b9 08 00 00 00 	movl	$8, %ecx
1000037f1:	48 01 ca 	addq	%rcx, %rdx
1000037f4:	48 89 53 50 	movq	%rdx, 80(%rbx)
1000037f8:	48 8b 4b 70 	movq	112(%rbx), %rcx
1000037fc:	4c 29 f1 	subq	%r14, %rcx
1000037ff:	48 29 c2 	subq	%rax, %rdx
100003802:	48 39 ca 	cmpq	%rcx, %rdx
100003805:	48 0f 43 d1 	cmovaeq	%rcx, %rdx
100003809:	4c 8d bb 88 00 00 00 	leaq	136(%rbx), %r15
100003810:	48 8d bb 08 01 00 00 	leaq	264(%rbx), %rdi
100003817:	b9 10 00 00 00 	movl	$16, %ecx
10000381c:	4c 89 fe 	movq	%r15, %rsi
10000381f:	f3 48 a5 	rep		movsq	(%rsi), %es:(%rdi)
100003822:	48 8b 4b 78 	movq	120(%rbx), %rcx
100003826:	be 01 00 00 00 	movl	$1, %esi
10000382b:	48 89 c7 	movq	%rax, %rdi
10000382e:	e8 89 19 00 00 	callq	6537
100003833:	48 85 c0 	testq	%rax, %rax
100003836:	74 73 	je	115 <__ZNSt3__113basic_filebufIcNS_11char_traitsIcEEE9underflowEv+0x25b>
100003838:	48 8b bb 80 00 00 00 	movq	128(%rbx), %rdi
10000383f:	48 85 ff 	testq	%rdi, %rdi
100003842:	0f 84 99 00 00 00 	je	153 <__ZNSt3__113basic_filebufIcNS_11char_traitsIcEEE9underflowEv+0x291>
100003848:	4c 8d 43 48 	leaq	72(%rbx), %r8
10000384c:	48 03 43 48 	addq	72(%rbx), %rax
100003850:	48 89 43 50 	movq	%rax, 80(%rbx)
100003854:	4c 8b 53 10 	movq	16(%rbx), %r10
100003858:	48 8b 53 40 	movq	64(%rbx), %rdx
10000385c:	4f 8d 0c 32 	leaq	(%r10,%r14), %r9
100003860:	4c 03 53 70 	addq	112(%rbx), %r10
100003864:	4c 8b 1f 	movq	(%rdi), %r11
100003867:	4c 8d 6d c8 	leaq	-56(%rbp), %r13
10000386b:	4c 89 fe 	movq	%r15, %rsi
10000386e:	48 89 c1 	movq	%rax, %rcx
100003871:	41 55 	pushq	%r13
100003873:	41 52 	pushq	%r10
100003875:	41 ff 53 20 	callq	*32(%r11)
100003879:	48 83 c4 10 	addq	$16, %rsp
10000387d:	83 f8 03 	cmpl	$3, %eax
100003880:	75 0e 	jne	14 <__ZNSt3__113basic_filebufIcNS_11char_traitsIcEEE9underflowEv+0x240>
100003882:	4c 8b 73 40 	movq	64(%rbx), %r14
100003886:	48 8b 43 50 	movq	80(%rbx), %rax
10000388a:	4c 89 73 10 	movq	%r14, 16(%rbx)
10000388e:	eb 0d 	jmp	13 <__ZNSt3__113basic_filebufIcNS_11char_traitsIcEEE9underflowEv+0x24d>
100003890:	48 8b 45 c8 	movq	-56(%rbp), %rax
100003894:	4d 03 34 24 	addq	(%r12), %r14
100003898:	4c 39 f0 	cmpq	%r14, %rax
10000389b:	74 0e 	je	14 <__ZNSt3__113basic_filebufIcNS_11char_traitsIcEEE9underflowEv+0x25b>
10000389d:	4c 89 73 18 	movq	%r14, 24(%rbx)
1000038a1:	48 89 43 20 	movq	%rax, 32(%rbx)
1000038a5:	41 0f b6 06 	movzbl	(%r14), %eax
1000038a9:	eb 05 	jmp	5 <__ZNSt3__113basic_filebufIcNS_11char_traitsIcEEE9underflowEv+0x260>
1000038ab:	b8 ff ff ff ff 	movl	$4294967295, %eax
1000038b0:	48 8d 4d d7 	leaq	-41(%rbp), %rcx
1000038b4:	49 39 0c 24 	cmpq	%rcx, (%r12)
1000038b8:	75 18 	jne	24 <__ZNSt3__113basic_filebufIcNS_11char_traitsIcEEE9underflowEv+0x282>
1000038ba:	48 c7 43 10 00 00 00 00 	movq	$0, 16(%rbx)
1000038c2:	48 c7 43 18 00 00 00 00 	movq	$0, 24(%rbx)
1000038ca:	48 c7 43 20 00 00 00 00 	movq	$0, 32(%rbx)
1000038d2:	48 83 c4 18 	addq	$24, %rsp
1000038d6:	5b 	popq	%rbx
1000038d7:	41 5c 	popq	%r12
1000038d9:	41 5d 	popq	%r13
1000038db:	41 5e 	popq	%r14
1000038dd:	41 5f 	popq	%r15
1000038df:	5d 	popq	%rbp
1000038e0:	c3 	retq
1000038e1:	bf 08 00 00 00 	movl	$8, %edi
1000038e6:	e8 8f 18 00 00 	callq	6287
1000038eb:	48 89 c3 	movq	%rax, %rbx
1000038ee:	48 89 df 	movq	%rbx, %rdi
1000038f1:	e8 5a 18 00 00 	callq	6234
1000038f6:	48 8b 35 4b 27 00 00 	movq	10059(%rip), %rsi
1000038fd:	48 8b 15 34 27 00 00 	movq	10036(%rip), %rdx
100003904:	48 89 df 	movq	%rbx, %rdi
100003907:	e8 86 18 00 00 	callq	6278
10000390c:	0f 1f 40 00 	nopl	(%rax)
100003910:	55 	pushq	%rbp
100003911:	48 89 e5 	movq	%rsp, %rbp
100003914:	b8 ff ff ff ff 	movl	$4294967295, %eax
100003919:	48 83 7f 78 00 	cmpq	$0, 120(%rdi)
10000391e:	74 2a 	je	42 <__ZNSt3__113basic_filebufIcNS_11char_traitsIcEEE9pbackfailEi+0x3a>
100003920:	48 8b 4f 18 	movq	24(%rdi), %rcx
100003924:	48 39 4f 10 	cmpq	%rcx, 16(%rdi)
100003928:	73 20 	jae	32 <__ZNSt3__113basic_filebufIcNS_11char_traitsIcEEE9pbackfailEi+0x3a>
10000392a:	83 fe ff 	cmpl	$-1, %esi
10000392d:	74 1d 	je	29 <__ZNSt3__113basic_filebufIcNS_11char_traitsIcEEE9pbackfailEi+0x3c>
10000392f:	f6 87 88 01 00 00 10 	testb	$16, 392(%rdi)
100003936:	75 06 	jne	6 <__ZNSt3__113basic_filebufIcNS_11char_traitsIcEEE9pbackfailEi+0x2e>
100003938:	40 38 71 ff 	cmpb	%sil, -1(%rcx)
10000393c:	75 0c 	jne	12 <__ZNSt3__113basic_filebufIcNS_11char_traitsIcEEE9pbackfailEi+0x3a>
10000393e:	48 ff c9 	decq	%rcx
100003941:	48 89 4f 18 	movq	%rcx, 24(%rdi)
100003945:	40 88 31 	movb	%sil, (%rcx)
100003948:	89 f0 	movl	%esi, %eax
10000394a:	5d 	popq	%rbp
10000394b:	c3 	retq
10000394c:	48 ff c9 	decq	%rcx
10000394f:	48 89 4f 18 	movq	%rcx, 24(%rdi)
100003953:	31 c0 	xorl	%eax, %eax
100003955:	5d 	popq	%rbp
100003956:	c3 	retq
100003957:	66 0f 1f 84 00 00 00 00 00 	nopw	(%rax,%rax)
100003960:	55 	pushq	%rbp
100003961:	48 89 e5 	movq	%rsp, %rbp
100003964:	41 57 	pushq	%r15
100003966:	41 56 	pushq	%r14
100003968:	41 55 	pushq	%r13
10000396a:	41 54 	pushq	%r12
10000396c:	53 	pushq	%rbx
10000396d:	48 83 ec 38 	subq	$56, %rsp
100003971:	41 89 f6 	movl	%esi, %r14d
100003974:	49 89 fc 	movq	%rdi, %r12
100003977:	49 83 7c 24 78 00 	cmpq	$0, 120(%r12)
10000397d:	0f 84 b9 02 00 00 	je	697 <__ZNSt3__113basic_filebufIcNS_11char_traitsIcEEE8overflowEi+0x2dc>
100003983:	41 f6 84 24 8c 01 00 00 10 	testb	$16, 396(%r12)
10000398c:	75 38 	jne	56 <__ZNSt3__113basic_filebufIcNS_11char_traitsIcEEE8overflowEi+0x66>
10000398e:	49 c7 44 24 20 00 00 00 00 	movq	$0, 32(%r12)
100003997:	49 c7 44 24 18 00 00 00 00 	movq	$0, 24(%r12)
1000039a0:	49 c7 44 24 10 00 00 00 00 	movq	$0, 16(%r12)
1000039a9:	49 8b 4c 24 60 	movq	96(%r12), %rcx
1000039ae:	48 83 f9 09 	cmpq	$9, %rcx
1000039b2:	72 2f 	jb	47 <__ZNSt3__113basic_filebufIcNS_11char_traitsIcEEE8overflowEi+0x83>
1000039b4:	41 80 bc 24 92 01 00 00 00 	cmpb	$0, 402(%r12)
1000039bd:	74 56 	je	86 <__ZNSt3__113basic_filebufIcNS_11char_traitsIcEEE8overflowEi+0xb5>
1000039bf:	49 8b 44 24 40 	movq	64(%r12), %rax
1000039c4:	eb 59 	jmp	89 <__ZNSt3__113basic_filebufIcNS_11char_traitsIcEEE8overflowEi+0xbf>
1000039c6:	4d 8d 7c 24 28 	leaq	40(%r12), %r15
1000039cb:	49 8b 44 24 28 	movq	40(%r12), %rax
1000039d0:	4d 8b 6c 24 38 	movq	56(%r12), %r13
1000039d5:	49 8d 4c 24 38 	leaq	56(%r12), %rcx
1000039da:	48 89 4d c8 	movq	%rcx, -56(%rbp)
1000039de:	48 89 c2 	movq	%rax, %rdx
1000039e1:	eb 6d 	jmp	109 <__ZNSt3__113basic_filebufIcNS_11char_traitsIcEEE8overflowEi+0xf0>
1000039e3:	4d 8d 7c 24 28 	leaq	40(%r12), %r15
1000039e8:	49 c7 44 24 38 00 00 00 00 	movq	$0, 56(%r12)
1000039f1:	49 c7 44 24 30 00 00 00 00 	movq	$0, 48(%r12)
1000039fa:	49 c7 44 24 28 00 00 00 00 	movq	$0, 40(%r12)
100003a03:	49 8d 44 24 38 	leaq	56(%r12), %rax
100003a08:	48 89 45 c8 	movq	%rax, -56(%rbp)
100003a0c:	31 c0 	xorl	%eax, %eax
100003a0e:	45 31 ed 	xorl	%r13d, %r13d
100003a11:	31 d2 	xorl	%edx, %edx
100003a13:	eb 2f 	jmp	47 <__ZNSt3__113basic_filebufIcNS_11char_traitsIcEEE8overflowEi+0xe4>
100003a15:	49 8b 44 24 68 	movq	104(%r12), %rax
100003a1a:	49 8b 4c 24 70 	movq	112(%r12), %rcx
100003a1f:	4c 8d 6c 08 ff 	leaq	-1(%rax,%rcx), %r13
100003a24:	49 89 44 24 30 	movq	%rax, 48(%r12)
100003a29:	49 89 44 24 28 	movq	%rax, 40(%r12)
100003a2e:	4d 8d 7c 24 28 	leaq	40(%r12), %r15
100003a33:	49 8d 4c 24 38 	leaq	56(%r12), %rcx
100003a38:	48 89 4d c8 	movq	%rcx, -56(%rbp)
100003a3c:	4d 89 6c 24 38 	movq	%r13, 56(%r12)
100003a41:	48 89 c2 	movq	%rax, %rdx
100003a44:	41 c7 84 24 8c 01 00 00 10 00 00 00 	movl	$16, 396(%r12)
100003a50:	49 8b 4c 24 30 	movq	48(%r12), %rcx
100003a55:	41 83 fe ff 	cmpl	$-1, %r14d
100003a59:	74 31 	je	49 <__ZNSt3__113basic_filebufIcNS_11char_traitsIcEEE8overflowEi+0x12c>
100003a5b:	48 85 c9 	testq	%rcx, %rcx
100003a5e:	75 17 	jne	23 <__ZNSt3__113basic_filebufIcNS_11char_traitsIcEEE8overflowEi+0x117>
100003a60:	48 8d 45 d8 	leaq	-40(%rbp), %rax
100003a64:	48 8d 4d d7 	leaq	-41(%rbp), %rcx
100003a68:	49 89 4c 24 30 	movq	%rcx, 48(%r12)
100003a6d:	49 89 4c 24 28 	movq	%rcx, 40(%r12)
100003a72:	49 89 44 24 38 	movq	%rax, 56(%r12)
100003a77:	44 88 31 	movb	%r14b, (%rcx)
100003a7a:	49 8b 44 24 28 	movq	40(%r12), %rax
100003a7f:	49 8b 4c 24 30 	movq	48(%r12), %rcx
100003a84:	48 ff c1 	incq	%rcx
100003a87:	49 89 4c 24 30 	movq	%rcx, 48(%r12)
100003a8c:	48 89 cb 	movq	%rcx, %rbx
100003a8f:	48 29 c3 	subq	%rax, %rbx
100003a92:	74 48 	je	72 <__ZNSt3__113basic_filebufIcNS_11char_traitsIcEEE8overflowEi+0x17c>
100003a94:	48 89 55 a0 	movq	%rdx, -96(%rbp)
100003a98:	41 80 bc 24 92 01 00 00 00 	cmpb	$0, 402(%r12)
100003aa1:	74 48 	je	72 <__ZNSt3__113basic_filebufIcNS_11char_traitsIcEEE8overflowEi+0x18b>
100003aa3:	49 8b 4c 24 78 	movq	120(%r12), %rcx
100003aa8:	be 01 00 00 00 	movl	$1, %esi
100003aad:	48 89 c7 	movq	%rax, %rdi
100003ab0:	48 89 da 	movq	%rbx, %rdx
100003ab3:	e8 16 17 00 00 	callq	5910
100003ab8:	48 89 c1 	movq	%rax, %rcx
100003abb:	b8 ff ff ff ff 	movl	$4294967295, %eax
100003ac0:	48 39 d9 	cmpq	%rbx, %rcx
100003ac3:	0f 85 78 01 00 00 	jne	376 <__ZNSt3__113basic_filebufIcNS_11char_traitsIcEEE8overflowEi+0x2e1>
100003ac9:	48 8b 45 a0 	movq	-96(%rbp), %rax
100003acd:	49 89 44 24 30 	movq	%rax, 48(%r12)
100003ad2:	49 89 07 	movq	%rax, (%r15)
100003ad5:	48 8b 45 c8 	movq	-56(%rbp), %rax
100003ad9:	4c 89 28 	movq	%r13, (%rax)
100003adc:	31 c0 	xorl	%eax, %eax
100003ade:	41 83 fe ff 	cmpl	$-1, %r14d
100003ae2:	41 0f 45 c6 	cmovnel	%r14d, %eax
100003ae6:	e9 56 01 00 00 	jmp	342 <__ZNSt3__113basic_filebufIcNS_11char_traitsIcEEE8overflowEi+0x2e1>
100003aeb:	4c 89 6d a8 	movq	%r13, -88(%rbp)
100003aef:	4c 89 7d b8 	movq	%r15, -72(%rbp)
100003af3:	4d 8b 4c 24 40 	movq	64(%r12), %r9
100003af8:	4c 89 4d b0 	movq	%r9, -80(%rbp)
100003afc:	49 8b bc 24 80 00 00 00 	movq	128(%r12), %rdi
100003b04:	48 85 ff 	testq	%rdi, %rdi
100003b07:	0f 84 d8 00 00 00 	je	216 <__ZNSt3__113basic_filebufIcNS_11char_traitsIcEEE8overflowEi+0x285>
100003b0d:	4d 8d bc 24 88 00 00 00 	leaq	136(%r12), %r15
100003b15:	49 8b 5c 24 60 	movq	96(%r12), %rbx
100003b1a:	4c 01 cb 	addq	%r9, %rbx
100003b1d:	4c 8b 17 	movq	(%rdi), %r10
100003b20:	4c 8d 5d b0 	leaq	-80(%rbp), %r11
100003b24:	4c 8d 45 c0 	leaq	-64(%rbp), %r8
100003b28:	4c 89 fe 	movq	%r15, %rsi
100003b2b:	48 89 c2 	movq	%rax, %rdx
100003b2e:	41 53 	pushq	%r11
100003b30:	53 	pushq	%rbx
100003b31:	eb 2a 	jmp	42 <__ZNSt3__113basic_filebufIcNS_11char_traitsIcEEE8overflowEi+0x1fd>
100003b33:	66 66 66 66 2e 0f 1f 84 00 00 00 00 00 	nopw	%cs:(%rax,%rax)
100003b40:	4d 8b 4c 24 40 	movq	64(%r12), %r9
100003b45:	49 8b 44 24 60 	movq	96(%r12), %rax
100003b4a:	4c 01 c8 	addq	%r9, %rax
100003b4d:	4c 8b 17 	movq	(%rdi), %r10
100003b50:	4c 89 fe 	movq	%r15, %rsi
100003b53:	4c 8d 45 c0 	leaq	-64(%rbp), %r8
100003b57:	48 8d 5d b0 	leaq	-80(%rbp), %rbx
100003b5b:	53 	pushq	%rbx
100003b5c:	50 	pushq	%rax
100003b5d:	41 ff 52 18 	callq	*24(%r10)
100003b61:	48 83 c4 10 	addq	$16, %rsp
100003b65:	41 89 c5 	movl	%eax, %r13d
100003b68:	49 8b 7c 24 28 	movq	40(%r12), %rdi
100003b6d:	48 39 7d c0 	cmpq	%rdi, -64(%rbp)
100003b71:	0f 84 c5 00 00 00 	je	197 <__ZNSt3__113basic_filebufIcNS_11char_traitsIcEEE8overflowEi+0x2dc>
100003b77:	41 83 fd 03 	cmpl	$3, %r13d
100003b7b:	0f 84 8f 00 00 00 	je	143 <__ZNSt3__113basic_filebufIcNS_11char_traitsIcEEE8overflowEi+0x2b0>
100003b81:	41 83 fd 01 	cmpl	$1, %r13d
100003b85:	0f 87 b1 00 00 00 	ja	177 <__ZNSt3__113basic_filebufIcNS_11char_traitsIcEEE8overflowEi+0x2dc>
100003b8b:	48 8b 5d b0 	movq	-80(%rbp), %rbx
100003b8f:	49 8b 7c 24 40 	movq	64(%r12), %rdi
100003b94:	49 8b 4c 24 78 	movq	120(%r12), %rcx
100003b99:	48 29 fb 	subq	%rdi, %rbx
100003b9c:	be 01 00 00 00 	movl	$1, %esi
100003ba1:	48 89 da 	movq	%rbx, %rdx
100003ba4:	e8 25 16 00 00 	callq	5669
100003ba9:	48 39 d8 	cmpq	%rbx, %rax
100003bac:	0f 85 8a 00 00 00 	jne	138 <__ZNSt3__113basic_filebufIcNS_11char_traitsIcEEE8overflowEi+0x2dc>
100003bb2:	41 83 fd 01 	cmpl	$1, %r13d
100003bb6:	75 77 	jne	119 <__ZNSt3__113basic_filebufIcNS_11char_traitsIcEEE8overflowEi+0x2cf>
100003bb8:	48 8b 55 c0 	movq	-64(%rbp), %rdx
100003bbc:	49 8b 4c 24 30 	movq	48(%r12), %rcx
100003bc1:	48 8b 45 b8 	movq	-72(%rbp), %rax
100003bc5:	48 89 10 	movq	%rdx, (%rax)
100003bc8:	48 8b 45 c8 	movq	-56(%rbp), %rax
100003bcc:	48 89 08 	movq	%rcx, (%rax)
100003bcf:	49 89 4c 24 30 	movq	%rcx, 48(%r12)
100003bd4:	49 8b bc 24 80 00 00 00 	movq	128(%r12), %rdi
100003bdc:	48 85 ff 	testq	%rdi, %rdi
100003bdf:	0f 85 5b ff ff ff 	jne	-165 <__ZNSt3__113basic_filebufIcNS_11char_traitsIcEEE8overflowEi+0x1e0>
100003be5:	bf 08 00 00 00 	movl	$8, %edi
100003bea:	e8 8b 15 00 00 	callq	5515
100003bef:	48 89 c3 	movq	%rax, %rbx
100003bf2:	48 89 df 	movq	%rbx, %rdi
100003bf5:	e8 56 15 00 00 	callq	5462
100003bfa:	48 8b 35 47 24 00 00 	movq	9287(%rip), %rsi
100003c01:	48 8b 15 30 24 00 00 	movq	9264(%rip), %rdx
100003c08:	48 89 df 	movq	%rbx, %rdi
100003c0b:	e8 82 15 00 00 	callq	5506
100003c10:	49 8b 5c 24 30 	movq	48(%r12), %rbx
100003c15:	49 8b 4c 24 78 	movq	120(%r12), %rcx
100003c1a:	48 29 fb 	subq	%rdi, %rbx
100003c1d:	be 01 00 00 00 	movl	$1, %esi
100003c22:	48 89 da 	movq	%rbx, %rdx
100003c25:	e8 a4 15 00 00 	callq	5540
100003c2a:	48 39 d8 	cmpq	%rbx, %rax
100003c2d:	75 0d 	jne	13 <__ZNSt3__113basic_filebufIcNS_11char_traitsIcEEE8overflowEi+0x2dc>
100003c2f:	4c 8b 7d b8 	movq	-72(%rbp), %r15
100003c33:	4c 8b 6d a8 	movq	-88(%rbp), %r13
100003c37:	e9 8d fe ff ff 	jmp	-371 <__ZNSt3__113basic_filebufIcNS_11char_traitsIcEEE8overflowEi+0x169>
100003c3c:	b8 ff ff ff ff 	movl	$4294967295, %eax
100003c41:	48 83 c4 38 	addq	$56, %rsp
100003c45:	5b 	popq	%rbx
100003c46:	41 5c 	popq	%r12
100003c48:	41 5d 	popq	%r13
100003c4a:	41 5e 	popq	%r14
100003c4c:	41 5f 	popq	%r15
100003c4e:	5d 	popq	%rbp
100003c4f:	c3 	retq
100003c50:	55 	pushq	%rbp
100003c51:	48 89 e5 	movq	%rsp, %rbp
100003c54:	41 57 	pushq	%r15
100003c56:	41 56 	pushq	%r14
100003c58:	53 	pushq	%rbx
100003c59:	50 	pushq	%rax
100003c5a:	48 89 fb 	movq	%rdi, %rbx
100003c5d:	e8 be 14 00 00 	callq	5310
100003c62:	48 8b 05 ef 23 00 00 	movq	9199(%rip), %rax
100003c69:	48 83 c0 10 	addq	$16, %rax
100003c6d:	48 89 03 	movq	%rax, (%rbx)
100003c70:	48 8d 7b 60 	leaq	96(%rbx), %rdi
100003c74:	48 c7 43 50 00 00 00 00 	movq	$0, 80(%rbx)
100003c7c:	48 c7 43 48 00 00 00 00 	movq	$0, 72(%rbx)
100003c84:	48 c7 43 40 00 00 00 00 	movq	$0, 64(%rbx)
100003c8c:	be 33 01 00 00 	movl	$307, %esi
100003c91:	e8 de 14 00 00 	callq	5342
100003c96:	4c 8d 73 08 	leaq	8(%rbx), %r14
100003c9a:	4c 8d 7d e0 	leaq	-32(%rbp), %r15
100003c9e:	4c 89 ff 	movq	%r15, %rdi
100003ca1:	4c 89 f6 	movq	%r14, %rsi
100003ca4:	e8 83 14 00 00 	callq	5251
100003ca9:	48 8b 35 80 23 00 00 	movq	9088(%rip), %rsi
100003cb0:	4c 89 ff 	movq	%r15, %rdi
100003cb3:	e8 14 14 00 00 	callq	5140
100003cb8:	41 89 c7 	movl	%eax, %r15d
100003cbb:	48 8d 7d e0 	leaq	-32(%rbp), %rdi
100003cbf:	e8 6e 14 00 00 	callq	5230
100003cc4:	45 84 ff 	testb	%r15b, %r15b
100003cc7:	74 41 	je	65 <__ZNSt3__113basic_filebufIcNS_11char_traitsIcEEEC2Ev+0xba>
100003cc9:	4c 8d 7d e0 	leaq	-32(%rbp), %r15
100003ccd:	4c 89 ff 	movq	%r15, %rdi
100003cd0:	4c 89 f6 	movq	%r14, %rsi
100003cd3:	e8 54 14 00 00 	callq	5204
100003cd8:	48 8b 35 51 23 00 00 	movq	9041(%rip), %rsi
100003cdf:	4c 89 ff 	movq	%r15, %rdi
100003ce2:	e8 eb 13 00 00 	callq	5099
100003ce7:	48 89 83 80 00 00 00 	movq	%rax, 128(%rbx)
100003cee:	48 8d 7d e0 	leaq	-32(%rbp), %rdi
100003cf2:	e8 3b 14 00 00 	callq	5179
100003cf7:	48 8b bb 80 00 00 00 	movq	128(%rbx), %rdi
100003cfe:	48 8b 07 	movq	(%rdi), %rax
100003d01:	ff 50 38 	callq	*56(%rax)
100003d04:	88 83 92 01 00 00 	movb	%al, 402(%rbx)
100003d0a:	48 8b 03 	movq	(%rbx), %rax
100003d0d:	31 f6 	xorl	%esi, %esi
100003d0f:	ba 00 10 00 00 	movl	$4096, %edx
100003d14:	48 89 df 	movq	%rbx, %rdi
100003d17:	ff 50 18 	callq	*24(%rax)
100003d1a:	48 83 c4 08 	addq	$8, %rsp
100003d1e:	5b 	popq	%rbx
100003d1f:	41 5e 	popq	%r14
100003d21:	41 5f 	popq	%r15
100003d23:	5d 	popq	%rbp
100003d24:	c3 	retq
100003d25:	eb 10 	jmp	16 <__ZNSt3__113basic_filebufIcNS_11char_traitsIcEEEC2Ev+0xe7>
100003d27:	49 89 c6 	movq	%rax, %r14
100003d2a:	48 8d 7d e0 	leaq	-32(%rbp), %rdi
100003d2e:	e8 ff 13 00 00 	callq	5119
100003d33:	eb 05 	jmp	5 <__ZNSt3__113basic_filebufIcNS_11char_traitsIcEEEC2Ev+0xea>
100003d35:	eb 00 	jmp	0 <__ZNSt3__113basic_filebufIcNS_11char_traitsIcEEEC2Ev+0xe7>
100003d37:	49 89 c6 	movq	%rax, %r14
100003d3a:	48 89 df 	movq	%rbx, %rdi
100003d3d:	e8 e4 13 00 00 	callq	5092
100003d42:	4c 89 f7 	movq	%r14, %rdi
100003d45:	e8 76 13 00 00 	callq	4982
100003d4a:	0f 0b 	ud2
100003d4c:	48 89 c7 	movq	%rax, %rdi
100003d4f:	e8 3c da ff ff 	callq	-9668 <___clang_call_terminate>
100003d54:	48 89 c7 	movq	%rax, %rdi
100003d57:	e8 2a 14 00 00 	callq	5162
100003d5c:	0f 1f 40 00 	nopl	(%rax)
100003d60:	55 	pushq	%rbp
100003d61:	48 89 e5 	movq	%rsp, %rbp
100003d64:	41 57 	pushq	%r15
100003d66:	41 56 	pushq	%r14
100003d68:	41 55 	pushq	%r13
100003d6a:	41 54 	pushq	%r12
100003d6c:	53 	pushq	%rbx
100003d6d:	48 83 ec 18 	subq	$24, %rsp
100003d71:	49 89 f4 	movq	%rsi, %r12
100003d74:	49 89 fd 	movq	%rdi, %r13
100003d77:	48 bf aa aa aa aa aa aa aa 0a 	movabsq	$768614336404564650, %rdi
100003d81:	49 8b 55 00 	movq	(%r13), %rdx
100003d85:	49 8b 5d 08 	movq	8(%r13), %rbx
100003d89:	48 29 d3 	subq	%rdx, %rbx
100003d8c:	48 c1 fb 03 	sarq	$3, %rbx
100003d90:	48 be ab aa aa aa aa aa aa aa 	movabsq	$-6148914691236517205, %rsi
100003d9a:	48 0f af de 	imulq	%rsi, %rbx
100003d9e:	48 8d 43 01 	leaq	1(%rbx), %rax
100003da2:	48 39 f8 	cmpq	%rdi, %rax
100003da5:	0f 87 38 01 00 00 	ja	312 <__ZNSt3__16vectorINS_12basic_stringIcNS_11char_traitsIcEENS_9allocatorIcEEEENS4_IS6_EEE21__push_back_slow_pathIKS6_EEvRT_+0x183>
100003dab:	49 8b 4d 10 	movq	16(%r13), %rcx
100003daf:	48 29 d1 	subq	%rdx, %rcx
100003db2:	48 c1 f9 03 	sarq	$3, %rcx
100003db6:	48 0f af ce 	imulq	%rsi, %rcx
100003dba:	48 ba 54 55 55 55 55 55 55 05 	movabsq	$384307168202282324, %rdx
100003dc4:	48 39 d1 	cmpq	%rdx, %rcx
100003dc7:	77 16 	ja	22 <__ZNSt3__16vectorINS_12basic_stringIcNS_11char_traitsIcEENS_9allocatorIcEEEENS4_IS6_EEE21__push_back_slow_pathIKS6_EEvRT_+0x7f>
100003dc9:	48 01 c9 	addq	%rcx, %rcx
100003dcc:	48 39 c1 	cmpq	%rax, %rcx
100003dcf:	48 0f 42 c8 	cmovbq	%rax, %rcx
100003dd3:	48 89 cf 	movq	%rcx, %rdi
100003dd6:	48 85 c9 	testq	%rcx, %rcx
100003dd9:	0f 84 f7 00 00 00 	je	247 <__ZNSt3__16vectorINS_12basic_stringIcNS_11char_traitsIcEENS_9allocatorIcEEEENS4_IS6_EEE21__push_back_slow_pathIKS6_EEvRT_+0x176>
100003ddf:	48 89 7d d0 	movq	%rdi, -48(%rbp)
100003de3:	48 8d 04 fd 00 00 00 00 	leaq	(,%rdi,8), %rax
100003deb:	48 8d 3c 40 	leaq	(%rax,%rax,2), %rdi
100003def:	e8 7a 13 00 00 	callq	4986
100003df4:	48 8d 0c 5b 	leaq	(%rbx,%rbx,2), %rcx
100003df8:	48 89 45 c8 	movq	%rax, -56(%rbp)
100003dfc:	48 8d 1c c8 	leaq	(%rax,%rcx,8), %rbx
100003e00:	48 89 df 	movq	%rbx, %rdi
100003e03:	4c 89 e6 	movq	%r12, %rsi
100003e06:	e8 d9 12 00 00 	callq	4825
100003e0b:	4c 8d 7b 18 	leaq	24(%rbx), %r15
100003e0f:	4d 8b 75 00 	movq	(%r13), %r14
100003e13:	4d 8b 65 08 	movq	8(%r13), %r12
100003e17:	4d 39 f4 	cmpq	%r14, %r12
100003e1a:	74 42 	je	66 <__ZNSt3__16vectorINS_12basic_stringIcNS_11char_traitsIcEENS_9allocatorIcEEEENS4_IS6_EEE21__push_back_slow_pathIKS6_EEvRT_+0xfe>
100003e1c:	4c 89 6d c0 	movq	%r13, -64(%rbp)
100003e20:	4d 29 e6 	subq	%r12, %r14
100003e23:	49 83 c4 e8 	addq	$-24, %r12
100003e27:	49 89 dd 	movq	%rbx, %r13
100003e2a:	66 0f 1f 44 00 00 	nopw	(%rax,%rax)
100003e30:	48 83 c3 e8 	addq	$-24, %rbx
100003e34:	48 89 df 	movq	%rbx, %rdi
100003e37:	4c 89 e6 	movq	%r12, %rsi
100003e3a:	e8 a5 12 00 00 	callq	4773
100003e3f:	49 83 c5 e8 	addq	$-24, %r13
100003e43:	4c 89 eb 	movq	%r13, %rbx
100003e46:	49 83 c4 e8 	addq	$-24, %r12
100003e4a:	49 83 c6 18 	addq	$24, %r14
100003e4e:	75 e0 	jne	-32 <__ZNSt3__16vectorINS_12basic_stringIcNS_11char_traitsIcEENS_9allocatorIcEEEENS4_IS6_EEE21__push_back_slow_pathIKS6_EEvRT_+0xd0>
100003e50:	4c 8b 6d c0 	movq	-64(%rbp), %r13
100003e54:	4d 8b 65 00 	movq	(%r13), %r12
100003e58:	4d 8b 75 08 	movq	8(%r13), %r14
100003e5c:	eb 03 	jmp	3 <__ZNSt3__16vectorINS_12basic_stringIcNS_11char_traitsIcEENS_9allocatorIcEEEENS4_IS6_EEE21__push_back_slow_pathIKS6_EEvRT_+0x101>
100003e5e:	4d 89 f4 	movq	%r14, %r12
100003e61:	48 8b 45 d0 	movq	-48(%rbp), %rax
100003e65:	48 8d 04 40 	leaq	(%rax,%rax,2), %rax
100003e69:	49 89 5d 00 	movq	%rbx, (%r13)
100003e6d:	4d 89 7d 08 	movq	%r15, 8(%r13)
100003e71:	48 8b 4d c8 	movq	-56(%rbp), %rcx
100003e75:	48 8d 04 c1 	leaq	(%rcx,%rax,8), %rax
100003e79:	49 89 45 10 	movq	%rax, 16(%r13)
100003e7d:	4d 39 e6 	cmpq	%r12, %r14
100003e80:	74 2a 	je	42 <__ZNSt3__16vectorINS_12basic_stringIcNS_11char_traitsIcEENS_9allocatorIcEEEENS4_IS6_EEE21__push_back_slow_pathIKS6_EEvRT_+0x14c>
100003e82:	66 66 66 66 66 2e 0f 1f 84 00 00 00 00 00 	nopw	%cs:(%rax,%rax)
100003e90:	49 8d 5e e8 	leaq	-24(%r14), %rbx
100003e94:	41 f6 46 e8 01 	testb	$1, -24(%r14)
100003e99:	74 09 	je	9 <__ZNSt3__16vectorINS_12basic_stringIcNS_11char_traitsIcEENS_9allocatorIcEEEENS4_IS6_EEE21__push_back_slow_pathIKS6_EEvRT_+0x144>
100003e9b:	49 8b 7e f8 	movq	-8(%r14), %rdi
100003e9f:	e8 be 12 00 00 	callq	4798
100003ea4:	49 89 de 	movq	%rbx, %r14
100003ea7:	49 39 dc 	cmpq	%rbx, %r12
100003eaa:	75 e4 	jne	-28 <__ZNSt3__16vectorINS_12basic_stringIcNS_11char_traitsIcEENS_9allocatorIcEEEENS4_IS6_EEE21__push_back_slow_pathIKS6_EEvRT_+0x130>
100003eac:	4d 85 e4 	testq	%r12, %r12
100003eaf:	74 16 	je	22 <__ZNSt3__16vectorINS_12basic_stringIcNS_11char_traitsIcEENS_9allocatorIcEEEENS4_IS6_EEE21__push_back_slow_pathIKS6_EEvRT_+0x167>
100003eb1:	4c 89 e7 	movq	%r12, %rdi
100003eb4:	48 83 c4 18 	addq	$24, %rsp
100003eb8:	5b 	popq	%rbx
100003eb9:	41 5c 	popq	%r12
100003ebb:	41 5d 	popq	%r13
100003ebd:	41 5e 	popq	%r14
100003ebf:	41 5f 	popq	%r15
100003ec1:	5d 	popq	%rbp
100003ec2:	e9 9b 12 00 00 	jmp	4763
100003ec7:	48 83 c4 18 	addq	$24, %rsp
100003ecb:	5b 	popq	%rbx
100003ecc:	41 5c 	popq	%r12
100003ece:	41 5d 	popq	%r13
100003ed0:	41 5e 	popq	%r14
100003ed2:	41 5f 	popq	%r15
100003ed4:	5d 	popq	%rbp
100003ed5:	c3 	retq
100003ed6:	31 c0 	xorl	%eax, %eax
100003ed8:	48 89 45 d0 	movq	%rax, -48(%rbp)
100003edc:	31 c0 	xorl	%eax, %eax
100003ede:	e9 11 ff ff ff 	jmp	-239 <__ZNSt3__16vectorINS_12basic_stringIcNS_11char_traitsIcEENS_9allocatorIcEEEENS4_IS6_EEE21__push_back_slow_pathIKS6_EEvRT_+0x94>
100003ee3:	4c 89 ef 	movq	%r13, %rdi
100003ee6:	e8 db 11 00 00 	callq	4571
100003eeb:	49 89 c6 	movq	%rax, %r14
100003eee:	49 89 dd 	movq	%rbx, %r13
100003ef1:	49 89 df 	movq	%rbx, %r15
100003ef4:	4d 39 ef 	cmpq	%r13, %r15
100003ef7:	75 17 	jne	23 <__ZNSt3__16vectorINS_12basic_stringIcNS_11char_traitsIcEENS_9allocatorIcEEEENS4_IS6_EEE21__push_back_slow_pathIKS6_EEvRT_+0x1b0>
100003ef9:	eb 31 	jmp	49 <__ZNSt3__16vectorINS_12basic_stringIcNS_11char_traitsIcEENS_9allocatorIcEEEENS4_IS6_EEE21__push_back_slow_pathIKS6_EEvRT_+0x1cc>
100003efb:	49 89 c6 	movq	%rax, %r14
100003efe:	4d 39 ef 	cmpq	%r13, %r15
100003f01:	74 29 	je	41 <__ZNSt3__16vectorINS_12basic_stringIcNS_11char_traitsIcEENS_9allocatorIcEEEENS4_IS6_EEE21__push_back_slow_pathIKS6_EEvRT_+0x1cc>
100003f03:	66 66 66 66 2e 0f 1f 84 00 00 00 00 00 	nopw	%cs:(%rax,%rax)
100003f10:	49 8d 5f e8 	leaq	-24(%r15), %rbx
100003f14:	41 f6 47 e8 01 	testb	$1, -24(%r15)
100003f19:	74 09 	je	9 <__ZNSt3__16vectorINS_12basic_stringIcNS_11char_traitsIcEENS_9allocatorIcEEEENS4_IS6_EEE21__push_back_slow_pathIKS6_EEvRT_+0x1c4>
100003f1b:	49 8b 7f f8 	movq	-8(%r15), %rdi
100003f1f:	e8 3e 12 00 00 	callq	4670
100003f24:	49 89 df 	movq	%rbx, %r15
100003f27:	49 39 dd 	cmpq	%rbx, %r13
100003f2a:	75 e4 	jne	-28 <__ZNSt3__16vectorINS_12basic_stringIcNS_11char_traitsIcEENS_9allocatorIcEEEENS4_IS6_EEE21__push_back_slow_pathIKS6_EEvRT_+0x1b0>
100003f2c:	48 8b 7d c8 	movq	-56(%rbp), %rdi
100003f30:	48 85 ff 	testq	%rdi, %rdi
100003f33:	74 05 	je	5 <__ZNSt3__16vectorINS_12basic_stringIcNS_11char_traitsIcEENS_9allocatorIcEEEENS4_IS6_EEE21__push_back_slow_pathIKS6_EEvRT_+0x1da>
100003f35:	e8 28 12 00 00 	callq	4648
100003f3a:	4c 89 f7 	movq	%r14, %rdi
100003f3d:	e8 7e 11 00 00 	callq	4478
100003f42:	0f 0b 	ud2
100003f44:	66 66 66 2e 0f 1f 84 00 00 00 00 00 	nopw	%cs:(%rax,%rax)
100003f50:	55 	pushq	%rbp
100003f51:	48 89 e5 	movq	%rsp, %rbp
100003f54:	41 57 	pushq	%r15
100003f56:	41 56 	pushq	%r14
100003f58:	41 55 	pushq	%r13
100003f5a:	41 54 	pushq	%r12
100003f5c:	53 	pushq	%rbx
100003f5d:	48 83 ec 38 	subq	$56, %rsp
100003f61:	48 89 55 b8 	movq	%rdx, -72(%rbp)
100003f65:	49 89 f5 	movq	%rsi, %r13
100003f68:	48 89 fb 	movq	%rdi, %rbx
100003f6b:	eb 23 	jmp	35 <__ZNSt3__16__sortIR7comparePNS_12basic_stringIcNS_11char_traitsIcEENS_9allocatorIcEEEEEEvT0_SA_T_+0x40>
100003f6d:	49 8d 7e 18 	leaq	24(%r14), %rdi
100003f71:	4c 89 ee 	movq	%r13, %rsi
100003f74:	48 8b 55 b8 	movq	-72(%rbp), %rdx
100003f78:	e8 d3 ff ff ff 	callq	-45 <__ZNSt3__16__sortIR7comparePNS_12basic_stringIcNS_11char_traitsIcEENS_9allocatorIcEEEEEEvT0_SA_T_>
100003f7d:	4d 89 f5 	movq	%r14, %r13
100003f80:	4c 89 e3 	movq	%r12, %rbx
100003f83:	66 66 66 66 2e 0f 1f 84 00 00 00 00 00 	nopw	%cs:(%rax,%rax)
100003f90:	49 be ab aa aa aa aa aa aa aa 	movabsq	$-6148914691236517205, %r14
100003f9a:	4d 8d 7d e8 	leaq	-24(%r13), %r15
100003f9e:	49 8d 45 d0 	leaq	-48(%r13), %rax
100003fa2:	48 89 45 a8 	movq	%rax, -88(%rbp)
100003fa6:	49 89 dc 	movq	%rbx, %r12
100003fa9:	4c 89 6d b0 	movq	%r13, -80(%rbp)
100003fad:	eb 21 	jmp	33 <__ZNSt3__16__sortIR7comparePNS_12basic_stringIcNS_11char_traitsIcEENS_9allocatorIcEEEEEEvT0_SA_T_+0x80>
100003faf:	90 	nop
100003fb0:	4c 89 e7 	movq	%r12, %rdi
100003fb3:	4c 89 f6 	movq	%r14, %rsi
100003fb6:	48 8b 55 b8 	movq	-72(%rbp), %rdx
100003fba:	e8 91 ff ff ff 	callq	-111 <__ZNSt3__16__sortIR7comparePNS_12basic_stringIcNS_11char_traitsIcEENS_9allocatorIcEEEEEEvT0_SA_T_>
100003fbf:	49 83 c6 18 	addq	$24, %r14
100003fc3:	4d 89 f4 	movq	%r14, %r12
100003fc6:	49 be ab aa aa aa aa aa aa aa 	movabsq	$-6148914691236517205, %r14
100003fd0:	4c 89 e9 	movq	%r13, %rcx
100003fd3:	4c 29 e1 	subq	%r12, %rcx
100003fd6:	48 89 c8 	movq	%rcx, %rax
100003fd9:	48 c1 f8 03 	sarq	$3, %rax
100003fdd:	49 0f af c6 	imulq	%r14, %rax
100003fe1:	48 83 f8 05 	cmpq	$5, %rax
100003fe5:	0f 86 50 05 00 00 	jbe	1360 <__ZNSt3__16__sortIR7comparePNS_12basic_stringIcNS_11char_traitsIcEENS_9allocatorIcEEEEEEvT0_SA_T_+0x5eb>
100003feb:	48 81 f9 a7 00 00 00 	cmpq	$167, %rcx
100003ff2:	0f 8e 68 05 00 00 	jle	1384 <__ZNSt3__16__sortIR7comparePNS_12basic_stringIcNS_11char_traitsIcEENS_9allocatorIcEEEEEEvT0_SA_T_+0x610>
100003ff8:	48 89 c8 	movq	%rcx, %rax
100003ffb:	49 f7 e6 	mulq	%r14
100003ffe:	48 c1 ea 05 	shrq	$5, %rdx
100004002:	48 8d 1c 52 	leaq	(%rdx,%rdx,2), %rbx
100004006:	4d 8d 2c dc 	leaq	(%r12,%rbx,8), %r13
10000400a:	48 81 f9 a9 5d 00 00 	cmpq	$23977, %rcx
100004011:	7c 2d 	jl	45 <__ZNSt3__16__sortIR7comparePNS_12basic_stringIcNS_11char_traitsIcEENS_9allocatorIcEEEEEEvT0_SA_T_+0xf0>
100004013:	48 89 c8 	movq	%rcx, %rax
100004016:	49 f7 e6 	mulq	%r14
100004019:	48 c1 ea 06 	shrq	$6, %rdx
10000401d:	48 c1 e2 03 	shlq	$3, %rdx
100004021:	48 8d 0c 52 	leaq	(%rdx,%rdx,2), %rcx
100004025:	49 8d 34 0c 	leaq	(%r12,%rcx), %rsi
100004029:	4c 01 e9 	addq	%r13, %rcx
10000402c:	4c 89 e7 	movq	%r12, %rdi
10000402f:	4c 89 ea 	movq	%r13, %rdx
100004032:	4d 89 f8 	movq	%r15, %r8
100004035:	4c 8b 4d b8 	movq	-72(%rbp), %r9
100004039:	e8 32 0a 00 00 	callq	2610 <__ZNSt3__17__sort5IR7comparePNS_12basic_stringIcNS_11char_traitsIcEENS_9allocatorIcEEEEEEjT0_SA_SA_SA_SA_T_>
10000403e:	eb 12 	jmp	18 <__ZNSt3__16__sortIR7comparePNS_12basic_stringIcNS_11char_traitsIcEENS_9allocatorIcEEEEEEvT0_SA_T_+0x102>
100004040:	4c 89 e7 	movq	%r12, %rdi
100004043:	4c 89 ee 	movq	%r13, %rsi
100004046:	4c 89 fa 	movq	%r15, %rdx
100004049:	48 8b 4d b8 	movq	-72(%rbp), %rcx
10000404d:	e8 4e 06 00 00 	callq	1614 <__ZNSt3__17__sort3IR7comparePNS_12basic_stringIcNS_11char_traitsIcEENS_9allocatorIcEEEEEEjT0_SA_SA_T_>
100004052:	41 8a 0c 24 	movb	(%r12), %cl
100004056:	f6 c1 01 	testb	$1, %cl
100004059:	74 15 	je	21 <__ZNSt3__16__sortIR7comparePNS_12basic_stringIcNS_11char_traitsIcEENS_9allocatorIcEEEEEEvT0_SA_T_+0x120>
10000405b:	49 8b 54 24 08 	movq	8(%r12), %rdx
100004060:	eb 13 	jmp	19 <__ZNSt3__16__sortIR7comparePNS_12basic_stringIcNS_11char_traitsIcEENS_9allocatorIcEEEEEEvT0_SA_T_+0x125>
100004062:	66 66 66 66 66 2e 0f 1f 84 00 00 00 00 00 	nopw	%cs:(%rax,%rax)
100004070:	d0 e9 	shrb	%cl
100004072:	0f b6 d1 	movzbl	%cl, %edx
100004075:	41 8a 4d 00 	movb	(%r13), %cl
100004079:	f6 c1 01 	testb	$1, %cl
10000407c:	74 62 	je	98 <__ZNSt3__16__sortIR7comparePNS_12basic_stringIcNS_11char_traitsIcEENS_9allocatorIcEEEEEEvT0_SA_T_+0x190>
10000407e:	49 8b 74 dc 08 	movq	8(%r12,%rbx,8), %rsi
100004083:	48 39 f2 	cmpq	%rsi, %rdx
100004086:	77 62 	ja	98 <__ZNSt3__16__sortIR7comparePNS_12basic_stringIcNS_11char_traitsIcEENS_9allocatorIcEEEEEEvT0_SA_T_+0x19a>
100004088:	48 8b 7d a8 	movq	-88(%rbp), %rdi
10000408c:	48 89 f9 	movq	%rdi, %rcx
10000408f:	49 39 fc 	cmpq	%rdi, %r12
100004092:	0f 84 a8 02 00 00 	je	680 <__ZNSt3__16__sortIR7comparePNS_12basic_stringIcNS_11char_traitsIcEENS_9allocatorIcEEEEEEvT0_SA_T_+0x3f0>
100004098:	0f 1f 84 00 00 00 00 00 	nopl	(%rax,%rax)
1000040a0:	0f b6 19 	movzbl	(%rcx), %ebx
1000040a3:	f6 c3 01 	testb	$1, %bl
1000040a6:	74 18 	je	24 <__ZNSt3__16__sortIR7comparePNS_12basic_stringIcNS_11char_traitsIcEENS_9allocatorIcEEEEEEvT0_SA_T_+0x170>
1000040a8:	48 8b 79 08 	movq	8(%rcx), %rdi
1000040ac:	48 39 f7 	cmpq	%rsi, %rdi
1000040af:	76 19 	jbe	25 <__ZNSt3__16__sortIR7comparePNS_12basic_stringIcNS_11char_traitsIcEENS_9allocatorIcEEEEEEvT0_SA_T_+0x17a>
1000040b1:	eb 3d 	jmp	61 <__ZNSt3__16__sortIR7comparePNS_12basic_stringIcNS_11char_traitsIcEENS_9allocatorIcEEEEEEvT0_SA_T_+0x1a0>
1000040b3:	66 66 66 66 2e 0f 1f 84 00 00 00 00 00 	nopw	%cs:(%rax,%rax)
1000040c0:	d0 eb 	shrb	%bl
1000040c2:	0f b6 fb 	movzbl	%bl, %edi
1000040c5:	48 39 f7 	cmpq	%rsi, %rdi
1000040c8:	77 26 	ja	38 <__ZNSt3__16__sortIR7comparePNS_12basic_stringIcNS_11char_traitsIcEENS_9allocatorIcEEEEEEvT0_SA_T_+0x1a0>
1000040ca:	48 83 c1 e8 	addq	$-24, %rcx
1000040ce:	49 39 cc 	cmpq	%rcx, %r12
1000040d1:	75 cd 	jne	-51 <__ZNSt3__16__sortIR7comparePNS_12basic_stringIcNS_11char_traitsIcEENS_9allocatorIcEEEEEEvT0_SA_T_+0x150>
1000040d3:	e9 68 02 00 00 	jmp	616 <__ZNSt3__16__sortIR7comparePNS_12basic_stringIcNS_11char_traitsIcEENS_9allocatorIcEEEEEEvT0_SA_T_+0x3f0>
1000040d8:	0f 1f 84 00 00 00 00 00 	nopl	(%rax,%rax)
1000040e0:	d0 e9 	shrb	%cl
1000040e2:	0f b6 f1 	movzbl	%cl, %esi
1000040e5:	48 39 f2 	cmpq	%rsi, %rdx
1000040e8:	76 9e 	jbe	-98 <__ZNSt3__16__sortIR7comparePNS_12basic_stringIcNS_11char_traitsIcEENS_9allocatorIcEEEEEEvT0_SA_T_+0x138>
1000040ea:	4c 89 f9 	movq	%r15, %rcx
1000040ed:	eb 4d 	jmp	77 <__ZNSt3__16__sortIR7comparePNS_12basic_stringIcNS_11char_traitsIcEENS_9allocatorIcEEEEEEvT0_SA_T_+0x1ec>
1000040ef:	90 	nop
1000040f0:	49 8b 54 24 10 	movq	16(%r12), %rdx
1000040f5:	48 89 55 d0 	movq	%rdx, -48(%rbp)
1000040f9:	49 8b 14 24 	movq	(%r12), %rdx
1000040fd:	49 8b 74 24 08 	movq	8(%r12), %rsi
100004102:	48 89 75 c8 	movq	%rsi, -56(%rbp)
100004106:	48 89 55 c0 	movq	%rdx, -64(%rbp)
10000410a:	48 8b 51 10 	movq	16(%rcx), %rdx
10000410e:	49 89 54 24 10 	movq	%rdx, 16(%r12)
100004113:	48 8b 11 	movq	(%rcx), %rdx
100004116:	48 8b 71 08 	movq	8(%rcx), %rsi
10000411a:	49 89 74 24 08 	movq	%rsi, 8(%r12)
10000411f:	49 89 14 24 	movq	%rdx, (%r12)
100004123:	48 8b 55 d0 	movq	-48(%rbp), %rdx
100004127:	48 89 51 10 	movq	%rdx, 16(%rcx)
10000412b:	48 8b 55 c0 	movq	-64(%rbp), %rdx
10000412f:	48 8b 75 c8 	movq	-56(%rbp), %rsi
100004133:	48 89 71 08 	movq	%rsi, 8(%rcx)
100004137:	48 89 11 	movq	%rdx, (%rcx)
10000413a:	ff c0 	incl	%eax
10000413c:	4d 8d 74 24 18 	leaq	24(%r12), %r14
100004141:	49 39 ce 	cmpq	%rcx, %r14
100004144:	72 67 	jb	103 <__ZNSt3__16__sortIR7comparePNS_12basic_stringIcNS_11char_traitsIcEENS_9allocatorIcEEEEEEvT0_SA_T_+0x25d>
100004146:	4d 39 ee 	cmpq	%r13, %r14
100004149:	0f 85 e4 00 00 00 	jne	228 <__ZNSt3__16__sortIR7comparePNS_12basic_stringIcNS_11char_traitsIcEENS_9allocatorIcEEEEEEvT0_SA_T_+0x2e3>
10000414f:	e9 6e 01 00 00 	jmp	366 <__ZNSt3__16__sortIR7comparePNS_12basic_stringIcNS_11char_traitsIcEENS_9allocatorIcEEEEEEvT0_SA_T_+0x372>
100004154:	66 66 66 2e 0f 1f 84 00 00 00 00 00 	nopw	%cs:(%rax,%rax)
100004160:	48 8b 72 10 	movq	16(%rdx), %rsi
100004164:	48 89 75 d0 	movq	%rsi, -48(%rbp)
100004168:	48 8b 32 	movq	(%rdx), %rsi
10000416b:	48 8b 7a 08 	movq	8(%rdx), %rdi
10000416f:	48 89 7d c8 	movq	%rdi, -56(%rbp)
100004173:	48 89 75 c0 	movq	%rsi, -64(%rbp)
100004177:	48 8b 71 10 	movq	16(%rcx), %rsi
10000417b:	48 89 72 10 	movq	%rsi, 16(%rdx)
10000417f:	48 8b 31 	movq	(%rcx), %rsi
100004182:	48 8b 79 08 	movq	8(%rcx), %rdi
100004186:	48 89 7a 08 	movq	%rdi, 8(%rdx)
10000418a:	48 89 32 	movq	%rsi, (%rdx)
10000418d:	48 8b 75 d0 	movq	-48(%rbp), %rsi
100004191:	48 89 71 10 	movq	%rsi, 16(%rcx)
100004195:	48 8b 75 c0 	movq	-64(%rbp), %rsi
100004199:	48 8b 7d c8 	movq	-56(%rbp), %rdi
10000419d:	48 89 79 08 	movq	%rdi, 8(%rcx)
1000041a1:	48 89 31 	movq	%rsi, (%rcx)
1000041a4:	ff c0 	incl	%eax
1000041a6:	49 39 d5 	cmpq	%rdx, %r13
1000041a9:	4c 0f 44 e9 	cmoveq	%rcx, %r13
1000041ad:	41 8a 55 00 	movb	(%r13), %dl
1000041b1:	f6 c2 01 	testb	$1, %dl
1000041b4:	74 0a 	je	10 <__ZNSt3__16__sortIR7comparePNS_12basic_stringIcNS_11char_traitsIcEENS_9allocatorIcEEEEEEvT0_SA_T_+0x270>
1000041b6:	49 8b 75 08 	movq	8(%r13), %rsi
1000041ba:	eb 09 	jmp	9 <__ZNSt3__16__sortIR7comparePNS_12basic_stringIcNS_11char_traitsIcEENS_9allocatorIcEEEEEEvT0_SA_T_+0x275>
1000041bc:	0f 1f 40 00 	nopl	(%rax)
1000041c0:	d0 ea 	shrb	%dl
1000041c2:	0f b6 f2 	movzbl	%dl, %esi
1000041c5:	49 83 c6 e8 	addq	$-24, %r14
1000041c9:	4c 89 f2 	movq	%r14, %rdx
1000041cc:	0f 1f 40 00 	nopl	(%rax)
1000041d0:	0f b6 5a 18 	movzbl	24(%rdx), %ebx
1000041d4:	f6 c3 01 	testb	$1, %bl
1000041d7:	74 07 	je	7 <__ZNSt3__16__sortIR7comparePNS_12basic_stringIcNS_11char_traitsIcEENS_9allocatorIcEEEEEEvT0_SA_T_+0x290>
1000041d9:	48 8b 7a 20 	movq	32(%rdx), %rdi
1000041dd:	eb 06 	jmp	6 <__ZNSt3__16__sortIR7comparePNS_12basic_stringIcNS_11char_traitsIcEENS_9allocatorIcEEEEEEvT0_SA_T_+0x295>
1000041df:	90 	nop
1000041e0:	d0 eb 	shrb	%bl
1000041e2:	0f b6 fb 	movzbl	%bl, %edi
1000041e5:	48 83 c2 18 	addq	$24, %rdx
1000041e9:	48 39 f7 	cmpq	%rsi, %rdi
1000041ec:	77 e2 	ja	-30 <__ZNSt3__16__sortIR7comparePNS_12basic_stringIcNS_11char_traitsIcEENS_9allocatorIcEEEEEEvT0_SA_T_+0x280>
1000041ee:	4c 8d 72 18 	leaq	24(%rdx), %r14
1000041f2:	66 66 66 66 66 2e 0f 1f 84 00 00 00 00 00 	nopw	%cs:(%rax,%rax)
100004200:	0f b6 59 e8 	movzbl	-24(%rcx), %ebx
100004204:	f6 c3 01 	testb	$1, %bl
100004207:	74 07 	je	7 <__ZNSt3__16__sortIR7comparePNS_12basic_stringIcNS_11char_traitsIcEENS_9allocatorIcEEEEEEvT0_SA_T_+0x2c0>
100004209:	48 8b 79 f0 	movq	-16(%rcx), %rdi
10000420d:	eb 06 	jmp	6 <__ZNSt3__16__sortIR7comparePNS_12basic_stringIcNS_11char_traitsIcEENS_9allocatorIcEEEEEEvT0_SA_T_+0x2c5>
10000420f:	90 	nop
100004210:	d0 eb 	shrb	%bl
100004212:	0f b6 fb 	movzbl	%bl, %edi
100004215:	48 83 c1 e8 	addq	$-24, %rcx
100004219:	48 39 f7 	cmpq	%rsi, %rdi
10000421c:	76 e2 	jbe	-30 <__ZNSt3__16__sortIR7comparePNS_12basic_stringIcNS_11char_traitsIcEENS_9allocatorIcEEEEEEvT0_SA_T_+0x2b0>
10000421e:	48 39 ca 	cmpq	%rcx, %rdx
100004221:	0f 86 39 ff ff ff 	jbe	-199 <__ZNSt3__16__sortIR7comparePNS_12basic_stringIcNS_11char_traitsIcEENS_9allocatorIcEEEEEEvT0_SA_T_+0x210>
100004227:	49 89 d6 	movq	%rdx, %r14
10000422a:	4d 39 ee 	cmpq	%r13, %r14
10000422d:	0f 84 8f 00 00 00 	je	143 <__ZNSt3__16__sortIR7comparePNS_12basic_stringIcNS_11char_traitsIcEENS_9allocatorIcEEEEEEvT0_SA_T_+0x372>
100004233:	41 8a 4d 00 	movb	(%r13), %cl
100004237:	f6 c1 01 	testb	$1, %cl
10000423a:	74 14 	je	20 <__ZNSt3__16__sortIR7comparePNS_12basic_stringIcNS_11char_traitsIcEENS_9allocatorIcEEEEEEvT0_SA_T_+0x300>
10000423c:	49 8b 4d 08 	movq	8(%r13), %rcx
100004240:	eb 13 	jmp	19 <__ZNSt3__16__sortIR7comparePNS_12basic_stringIcNS_11char_traitsIcEENS_9allocatorIcEEEEEEvT0_SA_T_+0x305>
100004242:	66 66 66 66 66 2e 0f 1f 84 00 00 00 00 00 	nopw	%cs:(%rax,%rax)
100004250:	d0 e9 	shrb	%cl
100004252:	0f b6 c9 	movzbl	%cl, %ecx
100004255:	41 8a 16 	movb	(%r14), %dl
100004258:	f6 c2 01 	testb	$1, %dl
10000425b:	74 13 	je	19 <__ZNSt3__16__sortIR7comparePNS_12basic_stringIcNS_11char_traitsIcEENS_9allocatorIcEEEEEEvT0_SA_T_+0x320>
10000425d:	49 8b 56 08 	movq	8(%r14), %rdx
100004261:	48 39 d1 	cmpq	%rdx, %rcx
100004264:	77 14 	ja	20 <__ZNSt3__16__sortIR7comparePNS_12basic_stringIcNS_11char_traitsIcEENS_9allocatorIcEEEEEEvT0_SA_T_+0x32a>
100004266:	eb 5a 	jmp	90 <__ZNSt3__16__sortIR7comparePNS_12basic_stringIcNS_11char_traitsIcEENS_9allocatorIcEEEEEEvT0_SA_T_+0x372>
100004268:	0f 1f 84 00 00 00 00 00 	nopl	(%rax,%rax)
100004270:	d0 ea 	shrb	%dl
100004272:	0f b6 d2 	movzbl	%dl, %edx
100004275:	48 39 d1 	cmpq	%rdx, %rcx
100004278:	76 48 	jbe	72 <__ZNSt3__16__sortIR7comparePNS_12basic_stringIcNS_11char_traitsIcEENS_9allocatorIcEEEEEEvT0_SA_T_+0x372>
10000427a:	49 8b 4e 10 	movq	16(%r14), %rcx
10000427e:	48 89 4d d0 	movq	%rcx, -48(%rbp)
100004282:	49 8b 0e 	movq	(%r14), %rcx
100004285:	49 8b 56 08 	movq	8(%r14), %rdx
100004289:	48 89 55 c8 	movq	%rdx, -56(%rbp)
10000428d:	48 89 4d c0 	movq	%rcx, -64(%rbp)
100004291:	49 8b 4d 10 	movq	16(%r13), %rcx
100004295:	49 89 4e 10 	movq	%rcx, 16(%r14)
100004299:	49 8b 4d 00 	movq	(%r13), %rcx
10000429d:	49 8b 55 08 	movq	8(%r13), %rdx
1000042a1:	49 89 56 08 	movq	%rdx, 8(%r14)
1000042a5:	49 89 0e 	movq	%rcx, (%r14)
1000042a8:	48 8b 4d d0 	movq	-48(%rbp), %rcx
1000042ac:	49 89 4d 10 	movq	%rcx, 16(%r13)
1000042b0:	48 8b 4d c0 	movq	-64(%rbp), %rcx
1000042b4:	48 8b 55 c8 	movq	-56(%rbp), %rdx
1000042b8:	49 89 55 08 	movq	%rdx, 8(%r13)
1000042bc:	49 89 4d 00 	movq	%rcx, (%r13)
1000042c0:	ff c0 	incl	%eax
1000042c2:	85 c0 	testl	%eax, %eax
1000042c4:	4c 8b 6d b0 	movq	-80(%rbp), %r13
1000042c8:	75 3a 	jne	58 <__ZNSt3__16__sortIR7comparePNS_12basic_stringIcNS_11char_traitsIcEENS_9allocatorIcEEEEEEvT0_SA_T_+0x3b4>
1000042ca:	4c 89 e7 	movq	%r12, %rdi
1000042cd:	4c 89 f6 	movq	%r14, %rsi
1000042d0:	48 8b 55 b8 	movq	-72(%rbp), %rdx
1000042d4:	e8 37 0b 00 00 	callq	2871 <__ZNSt3__127__insertion_sort_incompleteIR7comparePNS_12basic_stringIcNS_11char_traitsIcEENS_9allocatorIcEEEEEEbT0_SA_T_>
1000042d9:	4c 89 ee 	movq	%r13, %rsi
1000042dc:	41 89 c5 	movl	%eax, %r13d
1000042df:	49 8d 5e 18 	leaq	24(%r14), %rbx
1000042e3:	48 89 df 	movq	%rbx, %rdi
1000042e6:	48 8b 55 b8 	movq	-72(%rbp), %rdx
1000042ea:	e8 21 0b 00 00 	callq	2849 <__ZNSt3__127__insertion_sort_incompleteIR7comparePNS_12basic_stringIcNS_11char_traitsIcEENS_9allocatorIcEEEEEEbT0_SA_T_>
1000042ef:	84 c0 	testb	%al, %al
1000042f1:	0f 85 15 02 00 00 	jne	533 <__ZNSt3__16__sortIR7comparePNS_12basic_stringIcNS_11char_traitsIcEENS_9allocatorIcEEEEEEvT0_SA_T_+0x5bc>
1000042f7:	45 84 ed 	testb	%r13b, %r13b
1000042fa:	4c 8b 6d b0 	movq	-80(%rbp), %r13
1000042fe:	0f 85 26 02 00 00 	jne	550 <__ZNSt3__16__sortIR7comparePNS_12basic_stringIcNS_11char_traitsIcEENS_9allocatorIcEEEEEEvT0_SA_T_+0x5da>
100004304:	4c 89 f0 	movq	%r14, %rax
100004307:	4c 29 e0 	subq	%r12, %rax
10000430a:	48 c1 f8 03 	sarq	$3, %rax
10000430e:	48 b9 ab aa aa aa aa aa aa aa 	movabsq	$-6148914691236517205, %rcx
100004318:	48 89 ca 	movq	%rcx, %rdx
10000431b:	48 0f af c2 	imulq	%rdx, %rax
10000431f:	4c 89 e9 	movq	%r13, %rcx
100004322:	4c 29 f1 	subq	%r14, %rcx
100004325:	48 c1 f9 03 	sarq	$3, %rcx
100004329:	48 0f af ca 	imulq	%rdx, %rcx
10000432d:	48 39 c8 	cmpq	%rcx, %rax
100004330:	0f 8c 7a fc ff ff 	jl	-902 <__ZNSt3__16__sortIR7comparePNS_12basic_stringIcNS_11char_traitsIcEENS_9allocatorIcEEEEEEvT0_SA_T_+0x60>
100004336:	e9 32 fc ff ff 	jmp	-974 <__ZNSt3__16__sortIR7comparePNS_12basic_stringIcNS_11char_traitsIcEENS_9allocatorIcEEEEEEvT0_SA_T_+0x1d>
10000433b:	0f 1f 44 00 00 	nopl	(%rax,%rax)
100004340:	4c 8b 6d b0 	movq	-80(%rbp), %r13
100004344:	41 8a 45 e8 	movb	-24(%r13), %al
100004348:	a8 01 	testb	$1, %al
10000434a:	74 14 	je	20 <__ZNSt3__16__sortIR7comparePNS_12basic_stringIcNS_11char_traitsIcEENS_9allocatorIcEEEEEEvT0_SA_T_+0x410>
10000434c:	49 8b 4d f0 	movq	-16(%r13), %rcx
100004350:	eb 13 	jmp	19 <__ZNSt3__16__sortIR7comparePNS_12basic_stringIcNS_11char_traitsIcEENS_9allocatorIcEEEEEEvT0_SA_T_+0x415>
100004352:	66 66 66 66 66 2e 0f 1f 84 00 00 00 00 00 	nopw	%cs:(%rax,%rax)
100004360:	d0 e8 	shrb	%al
100004362:	0f b6 c8 	movzbl	%al, %ecx
100004365:	49 8d 44 24 18 	leaq	24(%r12), %rax
10000436a:	48 39 ca 	cmpq	%rcx, %rdx
10000436d:	0f 87 a3 00 00 00 	ja	163 <__ZNSt3__16__sortIR7comparePNS_12basic_stringIcNS_11char_traitsIcEENS_9allocatorIcEEEEEEvT0_SA_T_+0x4c6>
100004373:	4c 39 f8 	cmpq	%r15, %rax
100004376:	0f 84 f6 02 00 00 	je	758 <__ZNSt3__16__sortIR7comparePNS_12basic_stringIcNS_11char_traitsIcEENS_9allocatorIcEEEEEEvT0_SA_T_+0x722>
10000437c:	49 8d 44 24 30 	leaq	48(%r12), %rax
100004381:	66 66 66 66 66 66 2e 0f 1f 84 00 00 00 00 00 	nopw	%cs:(%rax,%rax)
100004390:	0f b6 48 e8 	movzbl	-24(%rax), %ecx
100004394:	f6 c1 01 	testb	$1, %cl
100004397:	74 17 	je	23 <__ZNSt3__16__sortIR7comparePNS_12basic_stringIcNS_11char_traitsIcEENS_9allocatorIcEEEEEEvT0_SA_T_+0x460>
100004399:	48 8b 48 f0 	movq	-16(%rax), %rcx
10000439d:	48 39 ca 	cmpq	%rcx, %rdx
1000043a0:	76 18 	jbe	24 <__ZNSt3__16__sortIR7comparePNS_12basic_stringIcNS_11char_traitsIcEENS_9allocatorIcEEEEEEvT0_SA_T_+0x46a>
1000043a2:	eb 2c 	jmp	44 <__ZNSt3__16__sortIR7comparePNS_12basic_stringIcNS_11char_traitsIcEENS_9allocatorIcEEEEEEvT0_SA_T_+0x480>
1000043a4:	66 66 66 2e 0f 1f 84 00 00 00 00 00 	nopw	%cs:(%rax,%rax)
1000043b0:	d0 e9 	shrb	%cl
1000043b2:	0f b6 c9 	movzbl	%cl, %ecx
1000043b5:	48 39 ca 	cmpq	%rcx, %rdx
1000043b8:	77 16 	ja	22 <__ZNSt3__16__sortIR7comparePNS_12basic_stringIcNS_11char_traitsIcEENS_9allocatorIcEEEEEEvT0_SA_T_+0x480>
1000043ba:	48 8d 48 e8 	leaq	-24(%rax), %rcx
1000043be:	48 83 c0 18 	addq	$24, %rax
1000043c2:	48 83 c1 18 	addq	$24, %rcx
1000043c6:	4c 39 f9 	cmpq	%r15, %rcx
1000043c9:	75 c5 	jne	-59 <__ZNSt3__16__sortIR7comparePNS_12basic_stringIcNS_11char_traitsIcEENS_9allocatorIcEEEEEEvT0_SA_T_+0x440>
1000043cb:	e9 a2 02 00 00 	jmp	674 <__ZNSt3__16__sortIR7comparePNS_12basic_stringIcNS_11char_traitsIcEENS_9allocatorIcEEEEEEvT0_SA_T_+0x722>
1000043d0:	48 8b 48 f8 	movq	-8(%rax), %rcx
1000043d4:	48 89 4d d0 	movq	%rcx, -48(%rbp)
1000043d8:	48 8b 48 e8 	movq	-24(%rax), %rcx
1000043dc:	48 8b 50 f0 	movq	-16(%rax), %rdx
1000043e0:	48 89 55 c8 	movq	%rdx, -56(%rbp)
1000043e4:	48 89 4d c0 	movq	%rcx, -64(%rbp)
1000043e8:	49 8b 4f 10 	movq	16(%r15), %rcx
1000043ec:	48 89 48 f8 	movq	%rcx, -8(%rax)
1000043f0:	49 8b 0f 	movq	(%r15), %rcx
1000043f3:	49 8b 57 08 	movq	8(%r15), %rdx
1000043f7:	48 89 50 f0 	movq	%rdx, -16(%rax)
1000043fb:	48 89 48 e8 	movq	%rcx, -24(%rax)
1000043ff:	48 8b 4d d0 	movq	-48(%rbp), %rcx
100004403:	49 89 4f 10 	movq	%rcx, 16(%r15)
100004407:	48 8b 4d c0 	movq	-64(%rbp), %rcx
10000440b:	48 8b 55 c8 	movq	-56(%rbp), %rdx
10000440f:	49 89 57 08 	movq	%rdx, 8(%r15)
100004413:	49 89 0f 	movq	%rcx, (%r15)
100004416:	4c 39 f8 	cmpq	%r15, %rax
100004419:	75 49 	jne	73 <__ZNSt3__16__sortIR7comparePNS_12basic_stringIcNS_11char_traitsIcEENS_9allocatorIcEEEEEEvT0_SA_T_+0x514>
10000441b:	e9 52 02 00 00 	jmp	594 <__ZNSt3__16__sortIR7comparePNS_12basic_stringIcNS_11char_traitsIcEENS_9allocatorIcEEEEEEvT0_SA_T_+0x722>
100004420:	48 8b 4b 10 	movq	16(%rbx), %rcx
100004424:	48 89 4d d0 	movq	%rcx, -48(%rbp)
100004428:	48 8b 0b 	movq	(%rbx), %rcx
10000442b:	48 8b 53 08 	movq	8(%rbx), %rdx
10000442f:	48 89 55 c8 	movq	%rdx, -56(%rbp)
100004433:	48 89 4d c0 	movq	%rcx, -64(%rbp)
100004437:	49 8b 4f 10 	movq	16(%r15), %rcx
10000443b:	48 89 4b 10 	movq	%rcx, 16(%rbx)
10000443f:	49 8b 0f 	movq	(%r15), %rcx
100004442:	49 8b 57 08 	movq	8(%r15), %rdx
100004446:	48 89 53 08 	movq	%rdx, 8(%rbx)
10000444a:	48 89 0b 	movq	%rcx, (%rbx)
10000444d:	48 8b 4d d0 	movq	-48(%rbp), %rcx
100004451:	49 89 4f 10 	movq	%rcx, 16(%r15)
100004455:	48 8b 4d c0 	movq	-64(%rbp), %rcx
100004459:	48 8b 55 c8 	movq	-56(%rbp), %rdx
10000445d:	49 89 57 08 	movq	%rdx, 8(%r15)
100004461:	49 89 0f 	movq	%rcx, (%r15)
100004464:	41 8a 0c 24 	movb	(%r12), %cl
100004468:	f6 c1 01 	testb	$1, %cl
10000446b:	74 13 	je	19 <__ZNSt3__16__sortIR7comparePNS_12basic_stringIcNS_11char_traitsIcEENS_9allocatorIcEEEEEEvT0_SA_T_+0x530>
10000446d:	49 8b 4c 24 08 	movq	8(%r12), %rcx
100004472:	eb 11 	jmp	17 <__ZNSt3__16__sortIR7comparePNS_12basic_stringIcNS_11char_traitsIcEENS_9allocatorIcEEEEEEvT0_SA_T_+0x535>
100004474:	66 66 66 2e 0f 1f 84 00 00 00 00 00 	nopw	%cs:(%rax,%rax)
100004480:	d0 e9 	shrb	%cl
100004482:	0f b6 c9 	movzbl	%cl, %ecx
100004485:	48 83 c0 e8 	addq	$-24, %rax
100004489:	48 89 c3 	movq	%rax, %rbx
10000448c:	0f 1f 40 00 	nopl	(%rax)
100004490:	0f b6 43 18 	movzbl	24(%rbx), %eax
100004494:	a8 01 	testb	$1, %al
100004496:	74 08 	je	8 <__ZNSt3__16__sortIR7comparePNS_12basic_stringIcNS_11char_traitsIcEENS_9allocatorIcEEEEEEvT0_SA_T_+0x550>
100004498:	48 8b 43 20 	movq	32(%rbx), %rax
10000449c:	eb 07 	jmp	7 <__ZNSt3__16__sortIR7comparePNS_12basic_stringIcNS_11char_traitsIcEENS_9allocatorIcEEEEEEvT0_SA_T_+0x555>
10000449e:	66 90 	nop
1000044a0:	d0 e8 	shrb	%al
1000044a2:	0f b6 c0 	movzbl	%al, %eax
1000044a5:	48 83 c3 18 	addq	$24, %rbx
1000044a9:	48 39 c1 	cmpq	%rax, %rcx
1000044ac:	76 e2 	jbe	-30 <__ZNSt3__16__sortIR7comparePNS_12basic_stringIcNS_11char_traitsIcEENS_9allocatorIcEEEEEEvT0_SA_T_+0x540>
1000044ae:	48 8d 43 18 	leaq	24(%rbx), %rax
1000044b2:	66 66 66 66 66 2e 0f 1f 84 00 00 00 00 00 	nopw	%cs:(%rax,%rax)
1000044c0:	41 0f b6 57 e8 	movzbl	-24(%r15), %edx
1000044c5:	f6 c2 01 	testb	$1, %dl
1000044c8:	74 06 	je	6 <__ZNSt3__16__sortIR7comparePNS_12basic_stringIcNS_11char_traitsIcEENS_9allocatorIcEEEEEEvT0_SA_T_+0x580>
1000044ca:	49 8b 57 f0 	movq	-16(%r15), %rdx
1000044ce:	eb 05 	jmp	5 <__ZNSt3__16__sortIR7comparePNS_12basic_stringIcNS_11char_traitsIcEENS_9allocatorIcEEEEEEvT0_SA_T_+0x585>
1000044d0:	d0 ea 	shrb	%dl
1000044d2:	0f b6 d2 	movzbl	%dl, %edx
1000044d5:	49 83 c7 e8 	addq	$-24, %r15
1000044d9:	48 39 d1 	cmpq	%rdx, %rcx
1000044dc:	77 e2 	ja	-30 <__ZNSt3__16__sortIR7comparePNS_12basic_stringIcNS_11char_traitsIcEENS_9allocatorIcEEEEEEvT0_SA_T_+0x570>
1000044de:	4c 39 fb 	cmpq	%r15, %rbx
1000044e1:	0f 82 39 ff ff ff 	jb	-199 <__ZNSt3__16__sortIR7comparePNS_12basic_stringIcNS_11char_traitsIcEENS_9allocatorIcEEEEEEvT0_SA_T_+0x4d0>
1000044e7:	b8 04 00 00 00 	movl	$4, %eax
1000044ec:	24 07 	andb	$7, %al
1000044ee:	3c 04 	cmpb	$4, %al
1000044f0:	0f 87 7c 01 00 00 	ja	380 <__ZNSt3__16__sortIR7comparePNS_12basic_stringIcNS_11char_traitsIcEENS_9allocatorIcEEEEEEvT0_SA_T_+0x722>
1000044f6:	0f b6 c0 	movzbl	%al, %eax
1000044f9:	b9 15 00 00 00 	movl	$21, %ecx
1000044fe:	0f a3 c1 	btl	%eax, %ecx
100004501:	0f 82 93 fa ff ff 	jb	-1389 <__ZNSt3__16__sortIR7comparePNS_12basic_stringIcNS_11char_traitsIcEENS_9allocatorIcEEEEEEvT0_SA_T_+0x4a>
100004507:	e9 66 01 00 00 	jmp	358 <__ZNSt3__16__sortIR7comparePNS_12basic_stringIcNS_11char_traitsIcEENS_9allocatorIcEEEEEEvT0_SA_T_+0x722>
10000450c:	45 84 ed 	testb	%r13b, %r13b
10000450f:	48 8b 45 b0 	movq	-80(%rbp), %rax
100004513:	49 0f 44 c6 	cmoveq	%r14, %rax
100004517:	41 0f b6 cd 	movzbl	%r13b, %ecx
10000451b:	49 89 c5 	movq	%rax, %r13
10000451e:	b8 02 00 00 00 	movl	$2, %eax
100004523:	29 c8 	subl	%ecx, %eax
100004525:	4c 89 e3 	movq	%r12, %rbx
100004528:	eb 05 	jmp	5 <__ZNSt3__16__sortIR7comparePNS_12basic_stringIcNS_11char_traitsIcEENS_9allocatorIcEEEEEEvT0_SA_T_+0x5df>
10000452a:	b8 02 00 00 00 	movl	$2, %eax
10000452f:	49 be ab aa aa aa aa aa aa aa 	movabsq	$-6148914691236517205, %r14
100004539:	eb b1 	jmp	-79 <__ZNSt3__16__sortIR7comparePNS_12basic_stringIcNS_11char_traitsIcEENS_9allocatorIcEEEEEEvT0_SA_T_+0x59c>
10000453b:	48 8d 0d 42 01 00 00 	leaq	322(%rip), %rcx
100004542:	48 63 04 81 	movslq	(%rcx,%rax,4), %rax
100004546:	48 01 c8 	addq	%rcx, %rax
100004549:	ff e0 	jmpq	*%rax
10000454b:	41 8a 45 e8 	movb	-24(%r13), %al
10000454f:	a8 01 	testb	$1, %al
100004551:	0f 84 a7 00 00 00 	je	167 <__ZNSt3__16__sortIR7comparePNS_12basic_stringIcNS_11char_traitsIcEENS_9allocatorIcEEEEEEvT0_SA_T_+0x6ae>
100004557:	49 8b 45 f0 	movq	-16(%r13), %rax
10000455b:	e9 a3 00 00 00 	jmp	163 <__ZNSt3__16__sortIR7comparePNS_12basic_stringIcNS_11char_traitsIcEENS_9allocatorIcEEEEEEvT0_SA_T_+0x6b3>
100004560:	4c 89 e7 	movq	%r12, %rdi
100004563:	4c 89 ee 	movq	%r13, %rsi
100004566:	48 8b 55 b8 	movq	-72(%rbp), %rdx
10000456a:	48 83 c4 38 	addq	$56, %rsp
10000456e:	5b 	popq	%rbx
10000456f:	41 5c 	popq	%r12
100004571:	41 5d 	popq	%r13
100004573:	41 5e 	popq	%r14
100004575:	41 5f 	popq	%r15
100004577:	5d 	popq	%rbp
100004578:	e9 23 07 00 00 	jmp	1827 <__ZNSt3__118__insertion_sort_3IR7comparePNS_12basic_stringIcNS_11char_traitsIcEENS_9allocatorIcEEEEEEvT0_SA_T_>
10000457d:	49 8d 74 24 18 	leaq	24(%r12), %rsi
100004582:	49 83 c5 e8 	addq	$-24, %r13
100004586:	4c 89 e7 	movq	%r12, %rdi
100004589:	4c 89 ea 	movq	%r13, %rdx
10000458c:	48 8b 4d b8 	movq	-72(%rbp), %rcx
100004590:	48 83 c4 38 	addq	$56, %rsp
100004594:	5b 	popq	%rbx
100004595:	41 5c 	popq	%r12
100004597:	41 5d 	popq	%r13
100004599:	41 5e 	popq	%r14
10000459b:	41 5f 	popq	%r15
10000459d:	5d 	popq	%rbp
10000459e:	e9 fd 00 00 00 	jmp	253 <__ZNSt3__17__sort3IR7comparePNS_12basic_stringIcNS_11char_traitsIcEENS_9allocatorIcEEEEEEjT0_SA_SA_T_>
1000045a3:	49 8d 74 24 18 	leaq	24(%r12), %rsi
1000045a8:	49 8d 54 24 30 	leaq	48(%r12), %rdx
1000045ad:	49 83 c5 e8 	addq	$-24, %r13
1000045b1:	4c 89 e7 	movq	%r12, %rdi
1000045b4:	4c 89 e9 	movq	%r13, %rcx
1000045b7:	4c 8b 45 b8 	movq	-72(%rbp), %r8
1000045bb:	48 83 c4 38 	addq	$56, %rsp
1000045bf:	5b 	popq	%rbx
1000045c0:	41 5c 	popq	%r12
1000045c2:	41 5d 	popq	%r13
1000045c4:	41 5e 	popq	%r14
1000045c6:	41 5f 	popq	%r15
1000045c8:	5d 	popq	%rbp
1000045c9:	e9 f2 02 00 00 	jmp	754 <__ZNSt3__17__sort4IR7comparePNS_12basic_stringIcNS_11char_traitsIcEENS_9allocatorIcEEEEEEjT0_SA_SA_SA_T_>
1000045ce:	49 8d 54 24 30 	leaq	48(%r12), %rdx
1000045d3:	49 8d 4c 24 48 	leaq	72(%r12), %rcx
1000045d8:	49 83 c5 e8 	addq	$-24, %r13
1000045dc:	49 8d 74 24 18 	leaq	24(%r12), %rsi
1000045e1:	4c 89 e7 	movq	%r12, %rdi
1000045e4:	4d 89 e8 	movq	%r13, %r8
1000045e7:	4c 8b 4d b8 	movq	-72(%rbp), %r9
1000045eb:	48 83 c4 38 	addq	$56, %rsp
1000045ef:	5b 	popq	%rbx
1000045f0:	41 5c 	popq	%r12
1000045f2:	41 5d 	popq	%r13
1000045f4:	41 5e 	popq	%r14
1000045f6:	41 5f 	popq	%r15
1000045f8:	5d 	popq	%rbp
1000045f9:	e9 72 04 00 00 	jmp	1138 <__ZNSt3__17__sort5IR7comparePNS_12basic_stringIcNS_11char_traitsIcEENS_9allocatorIcEEEEEEjT0_SA_SA_SA_SA_T_>
1000045fe:	d0 e8 	shrb	%al
100004600:	0f b6 c0 	movzbl	%al, %eax
100004603:	41 8a 0c 24 	movb	(%r12), %cl
100004607:	f6 c1 01 	testb	$1, %cl
10000460a:	74 0c 	je	12 <__ZNSt3__16__sortIR7comparePNS_12basic_stringIcNS_11char_traitsIcEENS_9allocatorIcEEEEEEvT0_SA_T_+0x6c8>
10000460c:	49 8b 4c 24 08 	movq	8(%r12), %rcx
100004611:	48 39 c8 	cmpq	%rcx, %rax
100004614:	77 0c 	ja	12 <__ZNSt3__16__sortIR7comparePNS_12basic_stringIcNS_11char_traitsIcEENS_9allocatorIcEEEEEEvT0_SA_T_+0x6d2>
100004616:	eb 5a 	jmp	90 <__ZNSt3__16__sortIR7comparePNS_12basic_stringIcNS_11char_traitsIcEENS_9allocatorIcEEEEEEvT0_SA_T_+0x722>
100004618:	d0 e9 	shrb	%cl
10000461a:	0f b6 c9 	movzbl	%cl, %ecx
10000461d:	48 39 c8 	cmpq	%rcx, %rax
100004620:	76 50 	jbe	80 <__ZNSt3__16__sortIR7comparePNS_12basic_stringIcNS_11char_traitsIcEENS_9allocatorIcEEEEEEvT0_SA_T_+0x722>
100004622:	49 8b 44 24 10 	movq	16(%r12), %rax
100004627:	48 89 45 d0 	movq	%rax, -48(%rbp)
10000462b:	49 8b 04 24 	movq	(%r12), %rax
10000462f:	49 8b 4c 24 08 	movq	8(%r12), %rcx
100004634:	48 89 4d c8 	movq	%rcx, -56(%rbp)
100004638:	48 89 45 c0 	movq	%rax, -64(%rbp)
10000463c:	49 83 c5 e8 	addq	$-24, %r13
100004640:	49 8b 45 10 	movq	16(%r13), %rax
100004644:	49 89 44 24 10 	movq	%rax, 16(%r12)
100004649:	49 8b 45 00 	movq	(%r13), %rax
10000464d:	49 8b 4d 08 	movq	8(%r13), %rcx
100004651:	49 89 4c 24 08 	movq	%rcx, 8(%r12)
100004656:	49 89 04 24 	movq	%rax, (%r12)
10000465a:	48 8b 45 d0 	movq	-48(%rbp), %rax
10000465e:	49 89 45 10 	movq	%rax, 16(%r13)
100004662:	48 8b 45 c0 	movq	-64(%rbp), %rax
100004666:	48 8b 4d c8 	movq	-56(%rbp), %rcx
10000466a:	49 89 4d 08 	movq	%rcx, 8(%r13)
10000466e:	49 89 45 00 	movq	%rax, (%r13)
100004672:	48 83 c4 38 	addq	$56, %rsp
100004676:	5b 	popq	%rbx
100004677:	41 5c 	popq	%r12
100004679:	41 5d 	popq	%r13
10000467b:	41 5e 	popq	%r14
10000467d:	41 5f 	popq	%r15
10000467f:	5d 	popq	%rbp
100004680:	c3 	retq
100004681:	0f 1f 00 	nopl	(%rax)
100004684:	ee 	outb	%al, %dx
100004685:	ff ff  <unknown>
100004687:	ff ee  <unknown>
100004689:	ff ff  <unknown>
10000468b:	ff c7 	incl	%edi
10000468d:	fe ff  <unknown>
10000468f:	ff f9  <unknown>
100004691:	fe ff  <unknown>
100004693:	ff 1f 	lcalll	*(%rdi)
100004695:	ff ff  <unknown>
100004697:	ff 4a ff 	decl	-1(%rdx)
10000469a:	ff ff  <unknown>
10000469c:	0f 1f 40 00 	nopl	(%rax)
1000046a0:	8a 06 	movb	(%rsi), %al
1000046a2:	a8 01 	testb	$1, %al
1000046a4:	74 06 	je	6 <__ZNSt3__17__sort3IR7comparePNS_12basic_stringIcNS_11char_traitsIcEENS_9allocatorIcEEEEEEjT0_SA_SA_T_+0xc>
1000046a6:	4c 8b 46 08 	movq	8(%rsi), %r8
1000046aa:	eb 06 	jmp	6 <__ZNSt3__17__sort3IR7comparePNS_12basic_stringIcNS_11char_traitsIcEENS_9allocatorIcEEEEEEjT0_SA_SA_T_+0x12>
1000046ac:	d0 e8 	shrb	%al
1000046ae:	44 0f b6 c0 	movzbl	%al, %r8d
1000046b2:	8a 07 	movb	(%rdi), %al
1000046b4:	a8 01 	testb	$1, %al
1000046b6:	74 06 	je	6 <__ZNSt3__17__sort3IR7comparePNS_12basic_stringIcNS_11char_traitsIcEENS_9allocatorIcEEEEEEjT0_SA_SA_T_+0x1e>
1000046b8:	48 8b 47 08 	movq	8(%rdi), %rax
1000046bc:	eb 05 	jmp	5 <__ZNSt3__17__sort3IR7comparePNS_12basic_stringIcNS_11char_traitsIcEENS_9allocatorIcEEEEEEjT0_SA_SA_T_+0x23>
1000046be:	d0 e8 	shrb	%al
1000046c0:	0f b6 c0 	movzbl	%al, %eax
1000046c3:	8a 0a 	movb	(%rdx), %cl
1000046c5:	f6 c1 01 	testb	$1, %cl
1000046c8:	74 06 	je	6 <__ZNSt3__17__sort3IR7comparePNS_12basic_stringIcNS_11char_traitsIcEENS_9allocatorIcEEEEEEjT0_SA_SA_T_+0x30>
1000046ca:	48 8b 4a 08 	movq	8(%rdx), %rcx
1000046ce:	eb 05 	jmp	5 <__ZNSt3__17__sort3IR7comparePNS_12basic_stringIcNS_11char_traitsIcEENS_9allocatorIcEEEEEEjT0_SA_SA_T_+0x35>
1000046d0:	d0 e9 	shrb	%cl
1000046d2:	0f b6 c9 	movzbl	%cl, %ecx
1000046d5:	55 	pushq	%rbp
1000046d6:	48 89 e5 	movq	%rsp, %rbp
1000046d9:	49 39 c0 	cmpq	%rax, %r8
1000046dc:	76 54 	jbe	84 <__ZNSt3__17__sort3IR7comparePNS_12basic_stringIcNS_11char_traitsIcEENS_9allocatorIcEEEEEEjT0_SA_SA_T_+0x92>
1000046de:	4c 39 c1 	cmpq	%r8, %rcx
1000046e1:	0f 86 a6 00 00 00 	jbe	166 <__ZNSt3__17__sort3IR7comparePNS_12basic_stringIcNS_11char_traitsIcEENS_9allocatorIcEEEEEEjT0_SA_SA_T_+0xed>
1000046e7:	48 8b 47 10 	movq	16(%rdi), %rax
1000046eb:	48 89 45 f8 	movq	%rax, -8(%rbp)
1000046ef:	48 8b 07 	movq	(%rdi), %rax
1000046f2:	48 8b 4f 08 	movq	8(%rdi), %rcx
1000046f6:	48 89 4d f0 	movq	%rcx, -16(%rbp)
1000046fa:	48 89 45 e8 	movq	%rax, -24(%rbp)
1000046fe:	48 8b 42 10 	movq	16(%rdx), %rax
100004702:	48 89 47 10 	movq	%rax, 16(%rdi)
100004706:	48 8b 02 	movq	(%rdx), %rax
100004709:	48 8b 4a 08 	movq	8(%rdx), %rcx
10000470d:	48 89 4f 08 	movq	%rcx, 8(%rdi)
100004711:	48 89 07 	movq	%rax, (%rdi)
100004714:	48 8b 45 f8 	movq	-8(%rbp), %rax
100004718:	48 89 42 10 	movq	%rax, 16(%rdx)
10000471c:	48 8b 45 e8 	movq	-24(%rbp), %rax
100004720:	48 8b 4d f0 	movq	-16(%rbp), %rcx
100004724:	48 89 4a 08 	movq	%rcx, 8(%rdx)
100004728:	48 89 02 	movq	%rax, (%rdx)
10000472b:	b8 01 00 00 00 	movl	$1, %eax
100004730:	5d 	popq	%rbp
100004731:	c3 	retq
100004732:	31 c0 	xorl	%eax, %eax
100004734:	4c 39 c1 	cmpq	%r8, %rcx
100004737:	0f 86 73 01 00 00 	jbe	371 <__ZNSt3__17__sort3IR7comparePNS_12basic_stringIcNS_11char_traitsIcEENS_9allocatorIcEEEEEEjT0_SA_SA_T_+0x210>
10000473d:	48 8b 46 10 	movq	16(%rsi), %rax
100004741:	48 89 45 f8 	movq	%rax, -8(%rbp)
100004745:	48 8b 06 	movq	(%rsi), %rax
100004748:	48 8b 4e 08 	movq	8(%rsi), %rcx
10000474c:	48 89 4d f0 	movq	%rcx, -16(%rbp)
100004750:	48 89 45 e8 	movq	%rax, -24(%rbp)
100004754:	48 8b 42 10 	movq	16(%rdx), %rax
100004758:	48 89 46 10 	movq	%rax, 16(%rsi)
10000475c:	48 8b 02 	movq	(%rdx), %rax
10000475f:	48 8b 4a 08 	movq	8(%rdx), %rcx
100004763:	48 89 4e 08 	movq	%rcx, 8(%rsi)
100004767:	48 89 06 	movq	%rax, (%rsi)
10000476a:	48 8b 45 f8 	movq	-8(%rbp), %rax
10000476e:	48 89 42 10 	movq	%rax, 16(%rdx)
100004772:	48 8b 45 e8 	movq	-24(%rbp), %rax
100004776:	48 8b 4d f0 	movq	-16(%rbp), %rcx
10000477a:	48 89 4a 08 	movq	%rcx, 8(%rdx)
10000477e:	48 89 02 	movq	%rax, (%rdx)
100004781:	8a 06 	movb	(%rsi), %al
100004783:	a8 01 	testb	$1, %al
100004785:	74 56 	je	86 <__ZNSt3__17__sort3IR7comparePNS_12basic_stringIcNS_11char_traitsIcEENS_9allocatorIcEEEEEEjT0_SA_SA_T_+0x13d>
100004787:	48 8b 4e 08 	movq	8(%rsi), %rcx
10000478b:	eb 55 	jmp	85 <__ZNSt3__17__sort3IR7comparePNS_12basic_stringIcNS_11char_traitsIcEENS_9allocatorIcEEEEEEjT0_SA_SA_T_+0x142>
10000478d:	48 8b 47 10 	movq	16(%rdi), %rax
100004791:	48 89 45 f8 	movq	%rax, -8(%rbp)
100004795:	48 8b 07 	movq	(%rdi), %rax
100004798:	48 8b 4f 08 	movq	8(%rdi), %rcx
10000479c:	48 89 4d f0 	movq	%rcx, -16(%rbp)
1000047a0:	48 89 45 e8 	movq	%rax, -24(%rbp)
1000047a4:	48 8b 46 10 	movq	16(%rsi), %rax
1000047a8:	48 89 47 10 	movq	%rax, 16(%rdi)
1000047ac:	48 8b 06 	movq	(%rsi), %rax
1000047af:	48 8b 4e 08 	movq	8(%rsi), %rcx
1000047b3:	48 89 4f 08 	movq	%rcx, 8(%rdi)
1000047b7:	48 89 07 	movq	%rax, (%rdi)
1000047ba:	48 8b 45 f8 	movq	-8(%rbp), %rax
1000047be:	48 89 46 10 	movq	%rax, 16(%rsi)
1000047c2:	48 8b 45 e8 	movq	-24(%rbp), %rax
1000047c6:	48 8b 4d f0 	movq	-16(%rbp), %rcx
1000047ca:	48 89 4e 08 	movq	%rcx, 8(%rsi)
1000047ce:	48 89 06 	movq	%rax, (%rsi)
1000047d1:	8a 02 	movb	(%rdx), %al
1000047d3:	a8 01 	testb	$1, %al
1000047d5:	74 17 	je	23 <__ZNSt3__17__sort3IR7comparePNS_12basic_stringIcNS_11char_traitsIcEENS_9allocatorIcEEEEEEjT0_SA_SA_T_+0x14e>
1000047d7:	48 8b 4a 08 	movq	8(%rdx), %rcx
1000047db:	eb 16 	jmp	22 <__ZNSt3__17__sort3IR7comparePNS_12basic_stringIcNS_11char_traitsIcEENS_9allocatorIcEEEEEEjT0_SA_SA_T_+0x153>
1000047dd:	d0 e8 	shrb	%al
1000047df:	0f b6 c8 	movzbl	%al, %ecx
1000047e2:	8a 07 	movb	(%rdi), %al
1000047e4:	a8 01 	testb	$1, %al
1000047e6:	74 17 	je	23 <__ZNSt3__17__sort3IR7comparePNS_12basic_stringIcNS_11char_traitsIcEENS_9allocatorIcEEEEEEjT0_SA_SA_T_+0x15f>
1000047e8:	48 8b 57 08 	movq	8(%rdi), %rdx
1000047ec:	eb 16 	jmp	22 <__ZNSt3__17__sort3IR7comparePNS_12basic_stringIcNS_11char_traitsIcEENS_9allocatorIcEEEEEEjT0_SA_SA_T_+0x164>
1000047ee:	d0 e8 	shrb	%al
1000047f0:	0f b6 c8 	movzbl	%al, %ecx
1000047f3:	8a 06 	movb	(%rsi), %al
1000047f5:	a8 01 	testb	$1, %al
1000047f7:	74 5f 	je	95 <__ZNSt3__17__sort3IR7comparePNS_12basic_stringIcNS_11char_traitsIcEENS_9allocatorIcEEEEEEjT0_SA_SA_T_+0x1b8>
1000047f9:	48 8b 7e 08 	movq	8(%rsi), %rdi
1000047fd:	eb 5e 	jmp	94 <__ZNSt3__17__sort3IR7comparePNS_12basic_stringIcNS_11char_traitsIcEENS_9allocatorIcEEEEEEjT0_SA_SA_T_+0x1bd>
1000047ff:	d0 e8 	shrb	%al
100004801:	0f b6 d0 	movzbl	%al, %edx
100004804:	b8 01 00 00 00 	movl	$1, %eax
100004809:	48 39 d1 	cmpq	%rdx, %rcx
10000480c:	0f 86 9e 00 00 00 	jbe	158 <__ZNSt3__17__sort3IR7comparePNS_12basic_stringIcNS_11char_traitsIcEENS_9allocatorIcEEEEEEjT0_SA_SA_T_+0x210>
100004812:	48 8b 47 10 	movq	16(%rdi), %rax
100004816:	48 89 45 f8 	movq	%rax, -8(%rbp)
10000481a:	48 8b 07 	movq	(%rdi), %rax
10000481d:	48 8b 4f 08 	movq	8(%rdi), %rcx
100004821:	48 89 4d f0 	movq	%rcx, -16(%rbp)
100004825:	48 89 45 e8 	movq	%rax, -24(%rbp)
100004829:	48 8b 46 10 	movq	16(%rsi), %rax
10000482d:	48 89 47 10 	movq	%rax, 16(%rdi)
100004831:	48 8b 06 	movq	(%rsi), %rax
100004834:	48 8b 4e 08 	movq	8(%rsi), %rcx
100004838:	48 89 4f 08 	movq	%rcx, 8(%rdi)
10000483c:	48 89 07 	movq	%rax, (%rdi)
10000483f:	48 8b 45 f8 	movq	-8(%rbp), %rax
100004843:	48 89 46 10 	movq	%rax, 16(%rsi)
100004847:	48 8b 45 e8 	movq	-24(%rbp), %rax
10000484b:	48 8b 4d f0 	movq	-16(%rbp), %rcx
10000484f:	48 89 4e 08 	movq	%rcx, 8(%rsi)
100004853:	48 89 06 	movq	%rax, (%rsi)
100004856:	eb 53 	jmp	83 <__ZNSt3__17__sort3IR7comparePNS_12basic_stringIcNS_11char_traitsIcEENS_9allocatorIcEEEEEEjT0_SA_SA_T_+0x20b>
100004858:	d0 e8 	shrb	%al
10000485a:	0f b6 f8 	movzbl	%al, %edi
10000485d:	b8 01 00 00 00 	movl	$1, %eax
100004862:	48 39 f9 	cmpq	%rdi, %rcx
100004865:	76 49 	jbe	73 <__ZNSt3__17__sort3IR7comparePNS_12basic_stringIcNS_11char_traitsIcEENS_9allocatorIcEEEEEEjT0_SA_SA_T_+0x210>
100004867:	48 8b 46 10 	movq	16(%rsi), %rax
10000486b:	48 89 45 f8 	movq	%rax, -8(%rbp)
10000486f:	48 8b 06 	movq	(%rsi), %rax
100004872:	48 8b 4e 08 	movq	8(%rsi), %rcx
100004876:	48 89 4d f0 	movq	%rcx, -16(%rbp)
10000487a:	48 89 45 e8 	movq	%rax, -24(%rbp)
10000487e:	48 8b 42 10 	movq	16(%rdx), %rax
100004882:	48 89 46 10 	movq	%rax, 16(%rsi)
100004886:	48 8b 02 	movq	(%rdx), %rax
100004889:	48 8b 4a 08 	movq	8(%rdx), %rcx
10000488d:	48 89 4e 08 	movq	%rcx, 8(%rsi)
100004891:	48 89 06 	movq	%rax, (%rsi)
100004894:	48 8b 45 f8 	movq	-8(%rbp), %rax
100004898:	48 89 42 10 	movq	%rax, 16(%rdx)
10000489c:	48 8b 45 e8 	movq	-24(%rbp), %rax
1000048a0:	48 8b 4d f0 	movq	-16(%rbp), %rcx
1000048a4:	48 89 4a 08 	movq	%rcx, 8(%rdx)
1000048a8:	48 89 02 	movq	%rax, (%rdx)
1000048ab:	b8 02 00 00 00 	movl	$2, %eax
1000048b0:	5d 	popq	%rbp
1000048b1:	c3 	retq
1000048b2:	66 66 66 66 66 2e 0f 1f 84 00 00 00 00 00 	nopw	%cs:(%rax,%rax)
1000048c0:	55 	pushq	%rbp
1000048c1:	48 89 e5 	movq	%rsp, %rbp
1000048c4:	41 57 	pushq	%r15
1000048c6:	41 56 	pushq	%r14
1000048c8:	41 54 	pushq	%r12
1000048ca:	53 	pushq	%rbx
1000048cb:	48 83 ec 20 	subq	$32, %rsp
1000048cf:	49 89 cc 	movq	%rcx, %r12
1000048d2:	48 89 d3 	movq	%rdx, %rbx
1000048d5:	49 89 f7 	movq	%rsi, %r15
1000048d8:	49 89 fe 	movq	%rdi, %r14
1000048db:	4c 89 c1 	movq	%r8, %rcx
1000048de:	e8 bd fd ff ff 	callq	-579 <__ZNSt3__17__sort3IR7comparePNS_12basic_stringIcNS_11char_traitsIcEENS_9allocatorIcEEEEEEjT0_SA_SA_T_>
1000048e3:	41 8a 0c 24 	movb	(%r12), %cl
1000048e7:	f6 c1 01 	testb	$1, %cl
1000048ea:	74 07 	je	7 <__ZNSt3__17__sort4IR7comparePNS_12basic_stringIcNS_11char_traitsIcEENS_9allocatorIcEEEEEEjT0_SA_SA_SA_T_+0x33>
1000048ec:	49 8b 4c 24 08 	movq	8(%r12), %rcx
1000048f1:	eb 05 	jmp	5 <__ZNSt3__17__sort4IR7comparePNS_12basic_stringIcNS_11char_traitsIcEENS_9allocatorIcEEEEEEjT0_SA_SA_SA_T_+0x38>
1000048f3:	d0 e9 	shrb	%cl
1000048f5:	0f b6 c9 	movzbl	%cl, %ecx
1000048f8:	8a 13 	movb	(%rbx), %dl
1000048fa:	f6 c2 01 	testb	$1, %dl
1000048fd:	74 0e 	je	14 <__ZNSt3__17__sort4IR7comparePNS_12basic_stringIcNS_11char_traitsIcEENS_9allocatorIcEEEEEEjT0_SA_SA_SA_T_+0x4d>
1000048ff:	48 8b 53 08 	movq	8(%rbx), %rdx
100004903:	48 39 d1 	cmpq	%rdx, %rcx
100004906:	77 13 	ja	19 <__ZNSt3__17__sort4IR7comparePNS_12basic_stringIcNS_11char_traitsIcEENS_9allocatorIcEEEEEEjT0_SA_SA_SA_T_+0x5b>
100004908:	e9 4a 01 00 00 	jmp	330 <__ZNSt3__17__sort4IR7comparePNS_12basic_stringIcNS_11char_traitsIcEENS_9allocatorIcEEEEEEjT0_SA_SA_SA_T_+0x197>
10000490d:	d0 ea 	shrb	%dl
10000490f:	0f b6 d2 	movzbl	%dl, %edx
100004912:	48 39 d1 	cmpq	%rdx, %rcx
100004915:	0f 86 3c 01 00 00 	jbe	316 <__ZNSt3__17__sort4IR7comparePNS_12basic_stringIcNS_11char_traitsIcEENS_9allocatorIcEEEEEEjT0_SA_SA_SA_T_+0x197>
10000491b:	48 8b 4b 10 	movq	16(%rbx), %rcx
10000491f:	48 89 4d d8 	movq	%rcx, -40(%rbp)
100004923:	48 8b 0b 	movq	(%rbx), %rcx
100004926:	48 8b 53 08 	movq	8(%rbx), %rdx
10000492a:	48 89 55 d0 	movq	%rdx, -48(%rbp)
10000492e:	48 89 4d c8 	movq	%rcx, -56(%rbp)
100004932:	49 8b 4c 24 10 	movq	16(%r12), %rcx
100004937:	48 89 4b 10 	movq	%rcx, 16(%rbx)
10000493b:	49 8b 0c 24 	movq	(%r12), %rcx
10000493f:	49 8b 54 24 08 	movq	8(%r12), %rdx
100004944:	48 89 53 08 	movq	%rdx, 8(%rbx)
100004948:	48 89 0b 	movq	%rcx, (%rbx)
10000494b:	48 8b 4d d8 	movq	-40(%rbp), %rcx
10000494f:	49 89 4c 24 10 	movq	%rcx, 16(%r12)
100004954:	48 8b 4d c8 	movq	-56(%rbp), %rcx
100004958:	48 8b 55 d0 	movq	-48(%rbp), %rdx
10000495c:	49 89 54 24 08 	movq	%rdx, 8(%r12)
100004961:	49 89 0c 24 	movq	%rcx, (%r12)
100004965:	8a 0b 	movb	(%rbx), %cl
100004967:	f6 c1 01 	testb	$1, %cl
10000496a:	74 06 	je	6 <__ZNSt3__17__sort4IR7comparePNS_12basic_stringIcNS_11char_traitsIcEENS_9allocatorIcEEEEEEjT0_SA_SA_SA_T_+0xb2>
10000496c:	48 8b 4b 08 	movq	8(%rbx), %rcx
100004970:	eb 05 	jmp	5 <__ZNSt3__17__sort4IR7comparePNS_12basic_stringIcNS_11char_traitsIcEENS_9allocatorIcEEEEEEjT0_SA_SA_SA_T_+0xb7>
100004972:	d0 e9 	shrb	%cl
100004974:	0f b6 c9 	movzbl	%cl, %ecx
100004977:	41 8a 17 	movb	(%r15), %dl
10000497a:	f6 c2 01 	testb	$1, %dl
10000497d:	74 10 	je	16 <__ZNSt3__17__sort4IR7comparePNS_12basic_stringIcNS_11char_traitsIcEENS_9allocatorIcEEEEEEjT0_SA_SA_SA_T_+0xcf>
10000497f:	49 8b 57 08 	movq	8(%r15), %rdx
100004983:	48 39 d1 	cmpq	%rdx, %rcx
100004986:	77 11 	ja	17 <__ZNSt3__17__sort4IR7comparePNS_12basic_stringIcNS_11char_traitsIcEENS_9allocatorIcEEEEEEjT0_SA_SA_SA_T_+0xd9>
100004988:	ff c0 	incl	%eax
10000498a:	e9 c8 00 00 00 	jmp	200 <__ZNSt3__17__sort4IR7comparePNS_12basic_stringIcNS_11char_traitsIcEENS_9allocatorIcEEEEEEjT0_SA_SA_SA_T_+0x197>
10000498f:	d0 ea 	shrb	%dl
100004991:	0f b6 d2 	movzbl	%dl, %edx
100004994:	48 39 d1 	cmpq	%rdx, %rcx
100004997:	76 ef 	jbe	-17 <__ZNSt3__17__sort4IR7comparePNS_12basic_stringIcNS_11char_traitsIcEENS_9allocatorIcEEEEEEjT0_SA_SA_SA_T_+0xc8>
100004999:	49 8b 4f 10 	movq	16(%r15), %rcx
10000499d:	48 89 4d d8 	movq	%rcx, -40(%rbp)
1000049a1:	49 8b 0f 	movq	(%r15), %rcx
1000049a4:	49 8b 57 08 	movq	8(%r15), %rdx
1000049a8:	48 89 55 d0 	movq	%rdx, -48(%rbp)
1000049ac:	48 89 4d c8 	movq	%rcx, -56(%rbp)
1000049b0:	48 8b 4b 10 	movq	16(%rbx), %rcx
1000049b4:	49 89 4f 10 	movq	%rcx, 16(%r15)
1000049b8:	48 8b 0b 	movq	(%rbx), %rcx
1000049bb:	48 8b 53 08 	movq	8(%rbx), %rdx
1000049bf:	49 89 57 08 	movq	%rdx, 8(%r15)
1000049c3:	49 89 0f 	movq	%rcx, (%r15)
1000049c6:	48 8b 4d d8 	movq	-40(%rbp), %rcx
1000049ca:	48 89 4b 10 	movq	%rcx, 16(%rbx)
1000049ce:	48 8b 4d c8 	movq	-56(%rbp), %rcx
1000049d2:	48 8b 55 d0 	movq	-48(%rbp), %rdx
1000049d6:	48 89 53 08 	movq	%rdx, 8(%rbx)
1000049da:	48 89 0b 	movq	%rcx, (%rbx)
1000049dd:	41 8a 0f 	movb	(%r15), %cl
1000049e0:	f6 c1 01 	testb	$1, %cl
1000049e3:	74 06 	je	6 <__ZNSt3__17__sort4IR7comparePNS_12basic_stringIcNS_11char_traitsIcEENS_9allocatorIcEEEEEEjT0_SA_SA_SA_T_+0x12b>
1000049e5:	49 8b 4f 08 	movq	8(%r15), %rcx
1000049e9:	eb 05 	jmp	5 <__ZNSt3__17__sort4IR7comparePNS_12basic_stringIcNS_11char_traitsIcEENS_9allocatorIcEEEEEEjT0_SA_SA_SA_T_+0x130>
1000049eb:	d0 e9 	shrb	%cl
1000049ed:	0f b6 c9 	movzbl	%cl, %ecx
1000049f0:	41 8a 16 	movb	(%r14), %dl
1000049f3:	f6 c2 01 	testb	$1, %dl
1000049f6:	74 0e 	je	14 <__ZNSt3__17__sort4IR7comparePNS_12basic_stringIcNS_11char_traitsIcEENS_9allocatorIcEEEEEEjT0_SA_SA_SA_T_+0x146>
1000049f8:	49 8b 56 08 	movq	8(%r14), %rdx
1000049fc:	48 39 d1 	cmpq	%rdx, %rcx
1000049ff:	77 0f 	ja	15 <__ZNSt3__17__sort4IR7comparePNS_12basic_stringIcNS_11char_traitsIcEENS_9allocatorIcEEEEEEjT0_SA_SA_SA_T_+0x150>
100004a01:	83 c0 02 	addl	$2, %eax
100004a04:	eb 51 	jmp	81 <__ZNSt3__17__sort4IR7comparePNS_12basic_stringIcNS_11char_traitsIcEENS_9allocatorIcEEEEEEjT0_SA_SA_SA_T_+0x197>
100004a06:	d0 ea 	shrb	%dl
100004a08:	0f b6 d2 	movzbl	%dl, %edx
100004a0b:	48 39 d1 	cmpq	%rdx, %rcx
100004a0e:	76 f1 	jbe	-15 <__ZNSt3__17__sort4IR7comparePNS_12basic_stringIcNS_11char_traitsIcEENS_9allocatorIcEEEEEEjT0_SA_SA_SA_T_+0x141>
100004a10:	49 8b 4e 10 	movq	16(%r14), %rcx
100004a14:	48 89 4d d8 	movq	%rcx, -40(%rbp)
100004a18:	49 8b 0e 	movq	(%r14), %rcx
100004a1b:	49 8b 56 08 	movq	8(%r14), %rdx
100004a1f:	48 89 55 d0 	movq	%rdx, -48(%rbp)
100004a23:	48 89 4d c8 	movq	%rcx, -56(%rbp)
100004a27:	49 8b 4f 10 	movq	16(%r15), %rcx
100004a2b:	49 89 4e 10 	movq	%rcx, 16(%r14)
100004a2f:	49 8b 0f 	movq	(%r15), %rcx
100004a32:	49 8b 57 08 	movq	8(%r15), %rdx
100004a36:	49 89 56 08 	movq	%rdx, 8(%r14)
100004a3a:	49 89 0e 	movq	%rcx, (%r14)
100004a3d:	48 8b 4d d8 	movq	-40(%rbp), %rcx
100004a41:	49 89 4f 10 	movq	%rcx, 16(%r15)
100004a45:	48 8b 4d c8 	movq	-56(%rbp), %rcx
100004a49:	48 8b 55 d0 	movq	-48(%rbp), %rdx
100004a4d:	49 89 57 08 	movq	%rdx, 8(%r15)
100004a51:	49 89 0f 	movq	%rcx, (%r15)
100004a54:	83 c0 03 	addl	$3, %eax
100004a57:	48 83 c4 20 	addq	$32, %rsp
100004a5b:	5b 	popq	%rbx
100004a5c:	41 5c 	popq	%r12
100004a5e:	41 5e 	popq	%r14
100004a60:	41 5f 	popq	%r15
100004a62:	5d 	popq	%rbp
100004a63:	c3 	retq
100004a64:	66 66 66 2e 0f 1f 84 00 00 00 00 00 	nopw	%cs:(%rax,%rax)
100004a70:	55 	pushq	%rbp
100004a71:	48 89 e5 	movq	%rsp, %rbp
100004a74:	41 57 	pushq	%r15
100004a76:	41 56 	pushq	%r14
100004a78:	41 55 	pushq	%r13
100004a7a:	41 54 	pushq	%r12
100004a7c:	53 	pushq	%rbx
100004a7d:	48 83 ec 18 	subq	$24, %rsp
100004a81:	4d 89 c5 	movq	%r8, %r13
100004a84:	48 89 cb 	movq	%rcx, %rbx
100004a87:	49 89 d4 	movq	%rdx, %r12
100004a8a:	49 89 f7 	movq	%rsi, %r15
100004a8d:	49 89 fe 	movq	%rdi, %r14
100004a90:	4d 89 c8 	movq	%r9, %r8
100004a93:	e8 28 fe ff ff 	callq	-472 <__ZNSt3__17__sort4IR7comparePNS_12basic_stringIcNS_11char_traitsIcEENS_9allocatorIcEEEEEEjT0_SA_SA_SA_T_>
100004a98:	41 8a 4d 00 	movb	(%r13), %cl
100004a9c:	f6 c1 01 	testb	$1, %cl
100004a9f:	74 06 	je	6 <__ZNSt3__17__sort5IR7comparePNS_12basic_stringIcNS_11char_traitsIcEENS_9allocatorIcEEEEEEjT0_SA_SA_SA_SA_T_+0x37>
100004aa1:	49 8b 4d 08 	movq	8(%r13), %rcx
100004aa5:	eb 05 	jmp	5 <__ZNSt3__17__sort5IR7comparePNS_12basic_stringIcNS_11char_traitsIcEENS_9allocatorIcEEEEEEjT0_SA_SA_SA_SA_T_+0x3c>
100004aa7:	d0 e9 	shrb	%cl
100004aa9:	0f b6 c9 	movzbl	%cl, %ecx
100004aac:	8a 13 	movb	(%rbx), %dl
100004aae:	f6 c2 01 	testb	$1, %dl
100004ab1:	74 0e 	je	14 <__ZNSt3__17__sort5IR7comparePNS_12basic_stringIcNS_11char_traitsIcEENS_9allocatorIcEEEEEEjT0_SA_SA_SA_SA_T_+0x51>
100004ab3:	48 8b 53 08 	movq	8(%rbx), %rdx
100004ab7:	48 39 d1 	cmpq	%rdx, %rcx
100004aba:	77 13 	ja	19 <__ZNSt3__17__sort5IR7comparePNS_12basic_stringIcNS_11char_traitsIcEENS_9allocatorIcEEEEEEjT0_SA_SA_SA_SA_T_+0x5f>
100004abc:	e9 d0 01 00 00 	jmp	464 <__ZNSt3__17__sort5IR7comparePNS_12basic_stringIcNS_11char_traitsIcEENS_9allocatorIcEEEEEEjT0_SA_SA_SA_SA_T_+0x221>
100004ac1:	d0 ea 	shrb	%dl
100004ac3:	0f b6 d2 	movzbl	%dl, %edx
100004ac6:	48 39 d1 	cmpq	%rdx, %rcx
100004ac9:	0f 86 c2 01 00 00 	jbe	450 <__ZNSt3__17__sort5IR7comparePNS_12basic_stringIcNS_11char_traitsIcEENS_9allocatorIcEEEEEEjT0_SA_SA_SA_SA_T_+0x221>
100004acf:	48 8b 4b 10 	movq	16(%rbx), %rcx
100004ad3:	48 89 4d d0 	movq	%rcx, -48(%rbp)
100004ad7:	48 8b 0b 	movq	(%rbx), %rcx
100004ada:	48 8b 53 08 	movq	8(%rbx), %rdx
100004ade:	48 89 55 c8 	movq	%rdx, -56(%rbp)
100004ae2:	48 89 4d c0 	movq	%rcx, -64(%rbp)
100004ae6:	49 8b 4d 10 	movq	16(%r13), %rcx
100004aea:	48 89 4b 10 	movq	%rcx, 16(%rbx)
100004aee:	49 8b 4d 00 	movq	(%r13), %rcx
100004af2:	49 8b 55 08 	movq	8(%r13), %rdx
100004af6:	48 89 53 08 	movq	%rdx, 8(%rbx)
100004afa:	48 89 0b 	movq	%rcx, (%rbx)
100004afd:	48 8b 4d d0 	movq	-48(%rbp), %rcx
100004b01:	49 89 4d 10 	movq	%rcx, 16(%r13)
100004b05:	48 8b 4d c0 	movq	-64(%rbp), %rcx
100004b09:	48 8b 55 c8 	movq	-56(%rbp), %rdx
100004b0d:	49 89 55 08 	movq	%rdx, 8(%r13)
100004b11:	49 89 4d 00 	movq	%rcx, (%r13)
100004b15:	8a 0b 	movb	(%rbx), %cl
100004b17:	f6 c1 01 	testb	$1, %cl
100004b1a:	74 06 	je	6 <__ZNSt3__17__sort5IR7comparePNS_12basic_stringIcNS_11char_traitsIcEENS_9allocatorIcEEEEEEjT0_SA_SA_SA_SA_T_+0xb2>
100004b1c:	48 8b 4b 08 	movq	8(%rbx), %rcx
100004b20:	eb 05 	jmp	5 <__ZNSt3__17__sort5IR7comparePNS_12basic_stringIcNS_11char_traitsIcEENS_9allocatorIcEEEEEEjT0_SA_SA_SA_SA_T_+0xb7>
100004b22:	d0 e9 	shrb	%cl
100004b24:	0f b6 c9 	movzbl	%cl, %ecx
100004b27:	41 8a 14 24 	movb	(%r12), %dl
100004b2b:	f6 c2 01 	testb	$1, %dl
100004b2e:	74 11 	je	17 <__ZNSt3__17__sort5IR7comparePNS_12basic_stringIcNS_11char_traitsIcEENS_9allocatorIcEEEEEEjT0_SA_SA_SA_SA_T_+0xd1>
100004b30:	49 8b 54 24 08 	movq	8(%r12), %rdx
100004b35:	48 39 d1 	cmpq	%rdx, %rcx
100004b38:	77 11 	ja	17 <__ZNSt3__17__sort5IR7comparePNS_12basic_stringIcNS_11char_traitsIcEENS_9allocatorIcEEEEEEjT0_SA_SA_SA_SA_T_+0xdb>
100004b3a:	ff c0 	incl	%eax
100004b3c:	e9 50 01 00 00 	jmp	336 <__ZNSt3__17__sort5IR7comparePNS_12basic_stringIcNS_11char_traitsIcEENS_9allocatorIcEEEEEEjT0_SA_SA_SA_SA_T_+0x221>
100004b41:	d0 ea 	shrb	%dl
100004b43:	0f b6 d2 	movzbl	%dl, %edx
100004b46:	48 39 d1 	cmpq	%rdx, %rcx
100004b49:	76 ef 	jbe	-17 <__ZNSt3__17__sort5IR7comparePNS_12basic_stringIcNS_11char_traitsIcEENS_9allocatorIcEEEEEEjT0_SA_SA_SA_SA_T_+0xca>
100004b4b:	49 8b 4c 24 10 	movq	16(%r12), %rcx
100004b50:	48 89 4d d0 	movq	%rcx, -48(%rbp)
100004b54:	49 8b 0c 24 	movq	(%r12), %rcx
100004b58:	49 8b 54 24 08 	movq	8(%r12), %rdx
100004b5d:	48 89 55 c8 	movq	%rdx, -56(%rbp)
100004b61:	48 89 4d c0 	movq	%rcx, -64(%rbp)
100004b65:	48 8b 4b 10 	movq	16(%rbx), %rcx
100004b69:	49 89 4c 24 10 	movq	%rcx, 16(%r12)
100004b6e:	48 8b 0b 	movq	(%rbx), %rcx
100004b71:	48 8b 53 08 	movq	8(%rbx), %rdx
100004b75:	49 89 54 24 08 	movq	%rdx, 8(%r12)
100004b7a:	49 89 0c 24 	movq	%rcx, (%r12)
100004b7e:	48 8b 4d d0 	movq	-48(%rbp), %rcx
100004b82:	48 89 4b 10 	movq	%rcx, 16(%rbx)
100004b86:	48 8b 4d c0 	movq	-64(%rbp), %rcx
100004b8a:	48 8b 55 c8 	movq	-56(%rbp), %rdx
100004b8e:	48 89 53 08 	movq	%rdx, 8(%rbx)
100004b92:	48 89 0b 	movq	%rcx, (%rbx)
100004b95:	41 8a 0c 24 	movb	(%r12), %cl
100004b99:	f6 c1 01 	testb	$1, %cl
100004b9c:	74 07 	je	7 <__ZNSt3__17__sort5IR7comparePNS_12basic_stringIcNS_11char_traitsIcEENS_9allocatorIcEEEEEEjT0_SA_SA_SA_SA_T_+0x135>
100004b9e:	49 8b 4c 24 08 	movq	8(%r12), %rcx
100004ba3:	eb 05 	jmp	5 <__ZNSt3__17__sort5IR7comparePNS_12basic_stringIcNS_11char_traitsIcEENS_9allocatorIcEEEEEEjT0_SA_SA_SA_SA_T_+0x13a>
100004ba5:	d0 e9 	shrb	%cl
100004ba7:	0f b6 c9 	movzbl	%cl, %ecx
100004baa:	41 8a 17 	movb	(%r15), %dl
100004bad:	f6 c2 01 	testb	$1, %dl
100004bb0:	74 11 	je	17 <__ZNSt3__17__sort5IR7comparePNS_12basic_stringIcNS_11char_traitsIcEENS_9allocatorIcEEEEEEjT0_SA_SA_SA_SA_T_+0x153>
100004bb2:	49 8b 57 08 	movq	8(%r15), %rdx
100004bb6:	48 39 d1 	cmpq	%rdx, %rcx
100004bb9:	77 12 	ja	18 <__ZNSt3__17__sort5IR7comparePNS_12basic_stringIcNS_11char_traitsIcEENS_9allocatorIcEEEEEEjT0_SA_SA_SA_SA_T_+0x15d>
100004bbb:	83 c0 02 	addl	$2, %eax
100004bbe:	e9 ce 00 00 00 	jmp	206 <__ZNSt3__17__sort5IR7comparePNS_12basic_stringIcNS_11char_traitsIcEENS_9allocatorIcEEEEEEjT0_SA_SA_SA_SA_T_+0x221>
100004bc3:	d0 ea 	shrb	%dl
100004bc5:	0f b6 d2 	movzbl	%dl, %edx
100004bc8:	48 39 d1 	cmpq	%rdx, %rcx
100004bcb:	76 ee 	jbe	-18 <__ZNSt3__17__sort5IR7comparePNS_12basic_stringIcNS_11char_traitsIcEENS_9allocatorIcEEEEEEjT0_SA_SA_SA_SA_T_+0x14b>
100004bcd:	49 8b 4f 10 	movq	16(%r15), %rcx
100004bd1:	48 89 4d d0 	movq	%rcx, -48(%rbp)
100004bd5:	49 8b 0f 	movq	(%r15), %rcx
100004bd8:	49 8b 57 08 	movq	8(%r15), %rdx
100004bdc:	48 89 55 c8 	movq	%rdx, -56(%rbp)
100004be0:	48 89 4d c0 	movq	%rcx, -64(%rbp)
100004be4:	49 8b 4c 24 10 	movq	16(%r12), %rcx
100004be9:	49 89 4f 10 	movq	%rcx, 16(%r15)
100004bed:	49 8b 0c 24 	movq	(%r12), %rcx
100004bf1:	49 8b 54 24 08 	movq	8(%r12), %rdx
100004bf6:	49 89 57 08 	movq	%rdx, 8(%r15)
100004bfa:	49 89 0f 	movq	%rcx, (%r15)
100004bfd:	48 8b 4d d0 	movq	-48(%rbp), %rcx
100004c01:	49 89 4c 24 10 	movq	%rcx, 16(%r12)
100004c06:	48 8b 4d c0 	movq	-64(%rbp), %rcx
100004c0a:	48 8b 55 c8 	movq	-56(%rbp), %rdx
100004c0e:	49 89 54 24 08 	movq	%rdx, 8(%r12)
100004c13:	49 89 0c 24 	movq	%rcx, (%r12)
100004c17:	41 8a 0f 	movb	(%r15), %cl
100004c1a:	f6 c1 01 	testb	$1, %cl
100004c1d:	74 06 	je	6 <__ZNSt3__17__sort5IR7comparePNS_12basic_stringIcNS_11char_traitsIcEENS_9allocatorIcEEEEEEjT0_SA_SA_SA_SA_T_+0x1b5>
100004c1f:	49 8b 4f 08 	movq	8(%r15), %rcx
100004c23:	eb 05 	jmp	5 <__ZNSt3__17__sort5IR7comparePNS_12basic_stringIcNS_11char_traitsIcEENS_9allocatorIcEEEEEEjT0_SA_SA_SA_SA_T_+0x1ba>
100004c25:	d0 e9 	shrb	%cl
100004c27:	0f b6 c9 	movzbl	%cl, %ecx
100004c2a:	41 8a 16 	movb	(%r14), %dl
100004c2d:	f6 c2 01 	testb	$1, %dl
100004c30:	74 0e 	je	14 <__ZNSt3__17__sort5IR7comparePNS_12basic_stringIcNS_11char_traitsIcEENS_9allocatorIcEEEEEEjT0_SA_SA_SA_SA_T_+0x1d0>
100004c32:	49 8b 56 08 	movq	8(%r14), %rdx
100004c36:	48 39 d1 	cmpq	%rdx, %rcx
100004c39:	77 0f 	ja	15 <__ZNSt3__17__sort5IR7comparePNS_12basic_stringIcNS_11char_traitsIcEENS_9allocatorIcEEEEEEjT0_SA_SA_SA_SA_T_+0x1da>
100004c3b:	83 c0 03 	addl	$3, %eax
100004c3e:	eb 51 	jmp	81 <__ZNSt3__17__sort5IR7comparePNS_12basic_stringIcNS_11char_traitsIcEENS_9allocatorIcEEEEEEjT0_SA_SA_SA_SA_T_+0x221>
100004c40:	d0 ea 	shrb	%dl
100004c42:	0f b6 d2 	movzbl	%dl, %edx
100004c45:	48 39 d1 	cmpq	%rdx, %rcx
100004c48:	76 f1 	jbe	-15 <__ZNSt3__17__sort5IR7comparePNS_12basic_stringIcNS_11char_traitsIcEENS_9allocatorIcEEEEEEjT0_SA_SA_SA_SA_T_+0x1cb>
100004c4a:	49 8b 4e 10 	movq	16(%r14), %rcx
100004c4e:	48 89 4d d0 	movq	%rcx, -48(%rbp)
100004c52:	49 8b 0e 	movq	(%r14), %rcx
100004c55:	49 8b 56 08 	movq	8(%r14), %rdx
100004c59:	48 89 55 c8 	movq	%rdx, -56(%rbp)
100004c5d:	48 89 4d c0 	movq	%rcx, -64(%rbp)
100004c61:	49 8b 4f 10 	movq	16(%r15), %rcx
100004c65:	49 89 4e 10 	movq	%rcx, 16(%r14)
100004c69:	49 8b 0f 	movq	(%r15), %rcx
100004c6c:	49 8b 57 08 	movq	8(%r15), %rdx
100004c70:	49 89 56 08 	movq	%rdx, 8(%r14)
100004c74:	49 89 0e 	movq	%rcx, (%r14)
100004c77:	48 8b 4d d0 	movq	-48(%rbp), %rcx
100004c7b:	49 89 4f 10 	movq	%rcx, 16(%r15)
100004c7f:	48 8b 4d c0 	movq	-64(%rbp), %rcx
100004c83:	48 8b 55 c8 	movq	-56(%rbp), %rdx
100004c87:	49 89 57 08 	movq	%rdx, 8(%r15)
100004c8b:	49 89 0f 	movq	%rcx, (%r15)
100004c8e:	83 c0 04 	addl	$4, %eax
100004c91:	48 83 c4 18 	addq	$24, %rsp
100004c95:	5b 	popq	%rbx
100004c96:	41 5c 	popq	%r12
100004c98:	41 5d 	popq	%r13
100004c9a:	41 5e 	popq	%r14
100004c9c:	41 5f 	popq	%r15
100004c9e:	5d 	popq	%rbp
100004c9f:	c3 	retq
100004ca0:	55 	pushq	%rbp
100004ca1:	48 89 e5 	movq	%rsp, %rbp
100004ca4:	41 57 	pushq	%r15
100004ca6:	41 56 	pushq	%r14
100004ca8:	41 55 	pushq	%r13
100004caa:	41 54 	pushq	%r12
100004cac:	53 	pushq	%rbx
100004cad:	48 83 ec 28 	subq	$40, %rsp
100004cb1:	48 89 d0 	movq	%rdx, %rax
100004cb4:	49 89 f4 	movq	%rsi, %r12
100004cb7:	49 89 ff 	movq	%rdi, %r15
100004cba:	49 8d 5f 30 	leaq	48(%r15), %rbx
100004cbe:	49 8d 77 18 	leaq	24(%r15), %rsi
100004cc2:	48 89 da 	movq	%rbx, %rdx
100004cc5:	48 89 c1 	movq	%rax, %rcx
100004cc8:	e8 d3 f9 ff ff 	callq	-1581 <__ZNSt3__17__sort3IR7comparePNS_12basic_stringIcNS_11char_traitsIcEENS_9allocatorIcEEEEEEjT0_SA_SA_T_>
100004ccd:	4d 8d 6f 48 	leaq	72(%r15), %r13
100004cd1:	4d 39 e5 	cmpq	%r12, %r13
100004cd4:	0f 84 fd 00 00 00 	je	253 <__ZNSt3__118__insertion_sort_3IR7comparePNS_12basic_stringIcNS_11char_traitsIcEENS_9allocatorIcEEEEEEvT0_SA_T_+0x137>
100004cda:	49 c7 c6 d0 ff ff ff 	movq	$-48, %r14
100004ce1:	4c 89 65 d0 	movq	%r12, -48(%rbp)
100004ce5:	41 8a 45 00 	movb	(%r13), %al
100004ce9:	a8 01 	testb	$1, %al
100004ceb:	74 13 	je	19 <__ZNSt3__118__insertion_sort_3IR7comparePNS_12basic_stringIcNS_11char_traitsIcEENS_9allocatorIcEEEEEEvT0_SA_T_+0x60>
100004ced:	49 8b 45 08 	movq	8(%r13), %rax
100004cf1:	eb 12 	jmp	18 <__ZNSt3__118__insertion_sort_3IR7comparePNS_12basic_stringIcNS_11char_traitsIcEENS_9allocatorIcEEEEEEvT0_SA_T_+0x65>
100004cf3:	66 66 66 66 2e 0f 1f 84 00 00 00 00 00 	nopw	%cs:(%rax,%rax)
100004d00:	d0 e8 	shrb	%al
100004d02:	0f b6 c0 	movzbl	%al, %eax
100004d05:	8a 0b 	movb	(%rbx), %cl
100004d07:	f6 c1 01 	testb	$1, %cl
100004d0a:	74 14 	je	20 <__ZNSt3__118__insertion_sort_3IR7comparePNS_12basic_stringIcNS_11char_traitsIcEENS_9allocatorIcEEEEEEvT0_SA_T_+0x80>
100004d0c:	48 8b 4b 08 	movq	8(%rbx), %rcx
100004d10:	48 39 c8 	cmpq	%rcx, %rax
100004d13:	77 19 	ja	25 <__ZNSt3__118__insertion_sort_3IR7comparePNS_12basic_stringIcNS_11char_traitsIcEENS_9allocatorIcEEEEEEvT0_SA_T_+0x8e>
100004d15:	e9 a6 00 00 00 	jmp	166 <__ZNSt3__118__insertion_sort_3IR7comparePNS_12basic_stringIcNS_11char_traitsIcEENS_9allocatorIcEEEEEEvT0_SA_T_+0x120>
100004d1a:	66 0f 1f 44 00 00 	nopw	(%rax,%rax)
100004d20:	d0 e9 	shrb	%cl
100004d22:	0f b6 c9 	movzbl	%cl, %ecx
100004d25:	48 39 c8 	cmpq	%rcx, %rax
100004d28:	0f 86 92 00 00 00 	jbe	146 <__ZNSt3__118__insertion_sort_3IR7comparePNS_12basic_stringIcNS_11char_traitsIcEENS_9allocatorIcEEEEEEvT0_SA_T_+0x120>
100004d2e:	48 8d 7d b8 	leaq	-72(%rbp), %rdi
100004d32:	4c 89 ee 	movq	%r13, %rsi
100004d35:	e8 aa 03 00 00 	callq	938
100004d3a:	4d 89 f4 	movq	%r14, %r12
100004d3d:	0f 1f 00 	nopl	(%rax)
100004d40:	48 8d 7b 18 	leaq	24(%rbx), %rdi
100004d44:	48 89 de 	movq	%rbx, %rsi
100004d47:	e8 9e 03 00 00 	callq	926
100004d4c:	4d 85 e4 	testq	%r12, %r12
100004d4f:	74 47 	je	71 <__ZNSt3__118__insertion_sort_3IR7comparePNS_12basic_stringIcNS_11char_traitsIcEENS_9allocatorIcEEEEEEvT0_SA_T_+0xf8>
100004d51:	0f b6 45 b8 	movzbl	-72(%rbp), %eax
100004d55:	a8 01 	testb	$1, %al
100004d57:	74 07 	je	7 <__ZNSt3__118__insertion_sort_3IR7comparePNS_12basic_stringIcNS_11char_traitsIcEENS_9allocatorIcEEEEEEvT0_SA_T_+0xc0>
100004d59:	48 8b 45 c0 	movq	-64(%rbp), %rax
100004d5d:	eb 06 	jmp	6 <__ZNSt3__118__insertion_sort_3IR7comparePNS_12basic_stringIcNS_11char_traitsIcEENS_9allocatorIcEEEEEEvT0_SA_T_+0xc5>
100004d5f:	90 	nop
100004d60:	d0 e8 	shrb	%al
100004d62:	0f b6 c0 	movzbl	%al, %eax
100004d65:	0f b6 4b e8 	movzbl	-24(%rbx), %ecx
100004d69:	f6 c1 01 	testb	$1, %cl
100004d6c:	74 12 	je	18 <__ZNSt3__118__insertion_sort_3IR7comparePNS_12basic_stringIcNS_11char_traitsIcEENS_9allocatorIcEEEEEEvT0_SA_T_+0xe0>
100004d6e:	48 8b 4b f0 	movq	-16(%rbx), %rcx
100004d72:	eb 11 	jmp	17 <__ZNSt3__118__insertion_sort_3IR7comparePNS_12basic_stringIcNS_11char_traitsIcEENS_9allocatorIcEEEEEEvT0_SA_T_+0xe5>
100004d74:	66 66 66 2e 0f 1f 84 00 00 00 00 00 	nopw	%cs:(%rax,%rax)
100004d80:	d0 e9 	shrb	%cl
100004d82:	0f b6 c9 	movzbl	%cl, %ecx
100004d85:	48 83 c3 e8 	addq	$-24, %rbx
100004d89:	49 83 c4 18 	addq	$24, %r12
100004d8d:	48 39 c8 	cmpq	%rcx, %rax
100004d90:	77 ae 	ja	-82 <__ZNSt3__118__insertion_sort_3IR7comparePNS_12basic_stringIcNS_11char_traitsIcEENS_9allocatorIcEEEEEEvT0_SA_T_+0xa0>
100004d92:	48 83 c3 18 	addq	$24, %rbx
100004d96:	eb 03 	jmp	3 <__ZNSt3__118__insertion_sort_3IR7comparePNS_12basic_stringIcNS_11char_traitsIcEENS_9allocatorIcEEEEEEvT0_SA_T_+0xfb>
100004d98:	4c 89 fb 	movq	%r15, %rbx
100004d9b:	4c 8b 65 d0 	movq	-48(%rbp), %r12
100004d9f:	48 89 df 	movq	%rbx, %rdi
100004da2:	48 8d 75 b8 	leaq	-72(%rbp), %rsi
100004da6:	e8 3f 03 00 00 	callq	831
100004dab:	f6 45 b8 01 	testb	$1, -72(%rbp)
100004daf:	74 0f 	je	15 <__ZNSt3__118__insertion_sort_3IR7comparePNS_12basic_stringIcNS_11char_traitsIcEENS_9allocatorIcEEEEEEvT0_SA_T_+0x120>
100004db1:	48 8b 7d c8 	movq	-56(%rbp), %rdi
100004db5:	e8 a8 03 00 00 	callq	936
100004dba:	66 0f 1f 44 00 00 	nopw	(%rax,%rax)
100004dc0:	4c 89 eb 	movq	%r13, %rbx
100004dc3:	49 8d 45 18 	leaq	24(%r13), %rax
100004dc7:	49 83 c6 e8 	addq	$-24, %r14
100004dcb:	49 89 c5 	movq	%rax, %r13
100004dce:	4c 39 e0 	cmpq	%r12, %rax
100004dd1:	0f 85 0e ff ff ff 	jne	-242 <__ZNSt3__118__insertion_sort_3IR7comparePNS_12basic_stringIcNS_11char_traitsIcEENS_9allocatorIcEEEEEEvT0_SA_T_+0x45>
100004dd7:	48 83 c4 28 	addq	$40, %rsp
100004ddb:	5b 	popq	%rbx
100004ddc:	41 5c 	popq	%r12
100004dde:	41 5d 	popq	%r13
100004de0:	41 5e 	popq	%r14
100004de2:	41 5f 	popq	%r15
100004de4:	5d 	popq	%rbp
100004de5:	c3 	retq
100004de6:	eb 00 	jmp	0 <__ZNSt3__118__insertion_sort_3IR7comparePNS_12basic_stringIcNS_11char_traitsIcEENS_9allocatorIcEEEEEEvT0_SA_T_+0x148>
100004de8:	48 89 c3 	movq	%rax, %rbx
100004deb:	f6 45 b8 01 	testb	$1, -72(%rbp)
100004def:	74 09 	je	9 <__ZNSt3__118__insertion_sort_3IR7comparePNS_12basic_stringIcNS_11char_traitsIcEENS_9allocatorIcEEEEEEvT0_SA_T_+0x15a>
100004df1:	48 8b 7d c8 	movq	-56(%rbp), %rdi
100004df5:	e8 68 03 00 00 	callq	872
100004dfa:	48 89 df 	movq	%rbx, %rdi
100004dfd:	e8 be 02 00 00 	callq	702
100004e02:	0f 0b 	ud2
100004e04:	66 66 66 2e 0f 1f 84 00 00 00 00 00 	nopw	%cs:(%rax,%rax)
100004e10:	55 	pushq	%rbp
100004e11:	48 89 e5 	movq	%rsp, %rbp
100004e14:	41 57 	pushq	%r15
100004e16:	41 56 	pushq	%r14
100004e18:	41 55 	pushq	%r13
100004e1a:	41 54 	pushq	%r12
100004e1c:	53 	pushq	%rbx
100004e1d:	48 83 ec 28 	subq	$40, %rsp
100004e21:	48 89 d0 	movq	%rdx, %rax
100004e24:	49 89 f7 	movq	%rsi, %r15
100004e27:	48 89 fb 	movq	%rdi, %rbx
100004e2a:	4c 89 fa 	movq	%r15, %rdx
100004e2d:	48 29 da 	subq	%rbx, %rdx
100004e30:	48 c1 fa 03 	sarq	$3, %rdx
100004e34:	48 b9 ab aa aa aa aa aa aa aa 	movabsq	$-6148914691236517205, %rcx
100004e3e:	48 0f af ca 	imulq	%rdx, %rcx
100004e42:	41 b6 01 	movb	$1, %r14b
100004e45:	48 83 f9 05 	cmpq	$5, %rcx
100004e49:	77 25 	ja	37 <__ZNSt3__127__insertion_sort_incompleteIR7comparePNS_12basic_stringIcNS_11char_traitsIcEENS_9allocatorIcEEEEEEbT0_SA_T_+0x60>
100004e4b:	48 8d 15 56 02 00 00 	leaq	598(%rip), %rdx
100004e52:	48 63 0c 8a 	movslq	(%rdx,%rcx,4), %rcx
100004e56:	48 01 d1 	addq	%rdx, %rcx
100004e59:	ff e1 	jmpq	*%rcx
100004e5b:	41 8a 47 e8 	movb	-24(%r15), %al
100004e5f:	a8 01 	testb	$1, %al
100004e61:	0f 84 9a 01 00 00 	je	410 <__ZNSt3__127__insertion_sort_incompleteIR7comparePNS_12basic_stringIcNS_11char_traitsIcEENS_9allocatorIcEEEEEEbT0_SA_T_+0x1f1>
100004e67:	49 8b 47 f0 	movq	-16(%r15), %rax
100004e6b:	e9 96 01 00 00 	jmp	406 <__ZNSt3__127__insertion_sort_incompleteIR7comparePNS_12basic_stringIcNS_11char_traitsIcEENS_9allocatorIcEEEEEEbT0_SA_T_+0x1f6>
100004e70:	4c 8d 63 30 	leaq	48(%rbx), %r12
100004e74:	48 8d 73 18 	leaq	24(%rbx), %rsi
100004e78:	48 89 df 	movq	%rbx, %rdi
100004e7b:	4c 89 e2 	movq	%r12, %rdx
100004e7e:	48 89 c1 	movq	%rax, %rcx
100004e81:	e8 1a f8 ff ff 	callq	-2022 <__ZNSt3__17__sort3IR7comparePNS_12basic_stringIcNS_11char_traitsIcEENS_9allocatorIcEEEEEEjT0_SA_SA_T_>
100004e86:	48 8d 43 48 	leaq	72(%rbx), %rax
100004e8a:	4c 39 f8 	cmpq	%r15, %rax
100004e8d:	0f 84 d7 01 00 00 	je	471 <__ZNSt3__127__insertion_sort_incompleteIR7comparePNS_12basic_stringIcNS_11char_traitsIcEENS_9allocatorIcEEEEEEbT0_SA_T_+0x25a>
100004e93:	45 31 f6 	xorl	%r14d, %r14d
100004e96:	49 c7 c5 d0 ff ff ff 	movq	$-48, %r13
100004e9d:	48 89 c6 	movq	%rax, %rsi
100004ea0:	8a 06 	movb	(%rsi), %al
100004ea2:	a8 01 	testb	$1, %al
100004ea4:	74 0a 	je	10 <__ZNSt3__127__insertion_sort_incompleteIR7comparePNS_12basic_stringIcNS_11char_traitsIcEENS_9allocatorIcEEEEEEbT0_SA_T_+0xa0>
100004ea6:	48 8b 46 08 	movq	8(%rsi), %rax
100004eaa:	eb 09 	jmp	9 <__ZNSt3__127__insertion_sort_incompleteIR7comparePNS_12basic_stringIcNS_11char_traitsIcEENS_9allocatorIcEEEEEEbT0_SA_T_+0xa5>
100004eac:	0f 1f 40 00 	nopl	(%rax)
100004eb0:	d0 e8 	shrb	%al
100004eb2:	0f b6 c0 	movzbl	%al, %eax
100004eb5:	41 8a 0c 24 	movb	(%r12), %cl
100004eb9:	f6 c1 01 	testb	$1, %cl
100004ebc:	74 12 	je	18 <__ZNSt3__127__insertion_sort_incompleteIR7comparePNS_12basic_stringIcNS_11char_traitsIcEENS_9allocatorIcEEEEEEbT0_SA_T_+0xc0>
100004ebe:	49 8b 4c 24 08 	movq	8(%r12), %rcx
100004ec3:	48 39 c8 	cmpq	%rcx, %rax
100004ec6:	77 16 	ja	22 <__ZNSt3__127__insertion_sort_incompleteIR7comparePNS_12basic_stringIcNS_11char_traitsIcEENS_9allocatorIcEEEEEEbT0_SA_T_+0xce>
100004ec8:	e9 be 00 00 00 	jmp	190 <__ZNSt3__127__insertion_sort_incompleteIR7comparePNS_12basic_stringIcNS_11char_traitsIcEENS_9allocatorIcEEEEEEbT0_SA_T_+0x17b>
100004ecd:	0f 1f 00 	nopl	(%rax)
100004ed0:	d0 e9 	shrb	%cl
100004ed2:	0f b6 c9 	movzbl	%cl, %ecx
100004ed5:	48 39 c8 	cmpq	%rcx, %rax
100004ed8:	0f 86 ad 00 00 00 	jbe	173 <__ZNSt3__127__insertion_sort_incompleteIR7comparePNS_12basic_stringIcNS_11char_traitsIcEENS_9allocatorIcEEEEEEbT0_SA_T_+0x17b>
100004ede:	44 89 75 bc 	movl	%r14d, -68(%rbp)
100004ee2:	48 8d 7d c0 	leaq	-64(%rbp), %rdi
100004ee6:	48 89 75 b0 	movq	%rsi, -80(%rbp)
100004eea:	e8 f5 01 00 00 	callq	501
100004eef:	4d 89 ee 	movq	%r13, %r14
100004ef2:	66 66 66 66 66 2e 0f 1f 84 00 00 00 00 00 	nopw	%cs:(%rax,%rax)
100004f00:	49 8d 7c 24 18 	leaq	24(%r12), %rdi
100004f05:	4c 89 e6 	movq	%r12, %rsi
100004f08:	e8 dd 01 00 00 	callq	477
100004f0d:	4d 85 f6 	testq	%r14, %r14
100004f10:	74 46 	je	70 <__ZNSt3__127__insertion_sort_incompleteIR7comparePNS_12basic_stringIcNS_11char_traitsIcEENS_9allocatorIcEEEEEEbT0_SA_T_+0x148>
100004f12:	0f b6 45 c0 	movzbl	-64(%rbp), %eax
100004f16:	a8 01 	testb	$1, %al
100004f18:	74 06 	je	6 <__ZNSt3__127__insertion_sort_incompleteIR7comparePNS_12basic_stringIcNS_11char_traitsIcEENS_9allocatorIcEEEEEEbT0_SA_T_+0x110>
100004f1a:	48 8b 45 c8 	movq	-56(%rbp), %rax
100004f1e:	eb 05 	jmp	5 <__ZNSt3__127__insertion_sort_incompleteIR7comparePNS_12basic_stringIcNS_11char_traitsIcEENS_9allocatorIcEEEEEEbT0_SA_T_+0x115>
100004f20:	d0 e8 	shrb	%al
100004f22:	0f b6 c0 	movzbl	%al, %eax
100004f25:	41 0f b6 4c 24 e8 	movzbl	-24(%r12), %ecx
100004f2b:	f6 c1 01 	testb	$1, %cl
100004f2e:	74 10 	je	16 <__ZNSt3__127__insertion_sort_incompleteIR7comparePNS_12basic_stringIcNS_11char_traitsIcEENS_9allocatorIcEEEEEEbT0_SA_T_+0x130>
100004f30:	49 8b 4c 24 f0 	movq	-16(%r12), %rcx
100004f35:	eb 0e 	jmp	14 <__ZNSt3__127__insertion_sort_incompleteIR7comparePNS_12basic_stringIcNS_11char_traitsIcEENS_9allocatorIcEEEEEEbT0_SA_T_+0x135>
100004f37:	66 0f 1f 84 00 00 00 00 00 	nopw	(%rax,%rax)
100004f40:	d0 e9 	shrb	%cl
100004f42:	0f b6 c9 	movzbl	%cl, %ecx
100004f45:	49 83 c4 e8 	addq	$-24, %r12
100004f49:	49 83 c6 18 	addq	$24, %r14
100004f4d:	48 39 c8 	cmpq	%rcx, %rax
100004f50:	77 ae 	ja	-82 <__ZNSt3__127__insertion_sort_incompleteIR7comparePNS_12basic_stringIcNS_11char_traitsIcEENS_9allocatorIcEEEEEEbT0_SA_T_+0xf0>
100004f52:	49 83 c4 18 	addq	$24, %r12
100004f56:	eb 03 	jmp	3 <__ZNSt3__127__insertion_sort_incompleteIR7comparePNS_12basic_stringIcNS_11char_traitsIcEENS_9allocatorIcEEEEEEbT0_SA_T_+0x14b>
100004f58:	49 89 dc 	movq	%rbx, %r12
100004f5b:	4c 89 e7 	movq	%r12, %rdi
100004f5e:	48 8d 75 c0 	leaq	-64(%rbp), %rsi
100004f62:	e8 83 01 00 00 	callq	387
100004f67:	44 8b 75 bc 	movl	-68(%rbp), %r14d
100004f6b:	41 ff c6 	incl	%r14d
100004f6e:	f6 45 c0 01 	testb	$1, -64(%rbp)
100004f72:	74 09 	je	9 <__ZNSt3__127__insertion_sort_incompleteIR7comparePNS_12basic_stringIcNS_11char_traitsIcEENS_9allocatorIcEEEEEEbT0_SA_T_+0x16d>
100004f74:	48 8b 7d d0 	movq	-48(%rbp), %rdi
100004f78:	e8 e5 01 00 00 	callq	485
100004f7d:	41 83 fe 08 	cmpl	$8, %r14d
100004f81:	48 8b 75 b0 	movq	-80(%rbp), %rsi
100004f85:	0f 84 f1 00 00 00 	je	241 <__ZNSt3__127__insertion_sort_incompleteIR7comparePNS_12basic_stringIcNS_11char_traitsIcEENS_9allocatorIcEEEEEEbT0_SA_T_+0x26c>
100004f8b:	48 8d 46 18 	leaq	24(%rsi), %rax
100004f8f:	49 83 c5 e8 	addq	$-24, %r13
100004f93:	49 89 f4 	movq	%rsi, %r12
100004f96:	4c 39 f8 	cmpq	%r15, %rax
100004f99:	0f 85 fe fe ff ff 	jne	-258 <__ZNSt3__127__insertion_sort_incompleteIR7comparePNS_12basic_stringIcNS_11char_traitsIcEENS_9allocatorIcEEEEEEbT0_SA_T_+0x8d>
100004f9f:	41 b6 01 	movb	$1, %r14b
100004fa2:	e9 c3 00 00 00 	jmp	195 <__ZNSt3__127__insertion_sort_incompleteIR7comparePNS_12basic_stringIcNS_11char_traitsIcEENS_9allocatorIcEEEEEEbT0_SA_T_+0x25a>
100004fa7:	48 8d 73 18 	leaq	24(%rbx), %rsi
100004fab:	49 83 c7 e8 	addq	$-24, %r15
100004faf:	48 89 df 	movq	%rbx, %rdi
100004fb2:	4c 89 fa 	movq	%r15, %rdx
100004fb5:	48 89 c1 	movq	%rax, %rcx
100004fb8:	e8 e3 f6 ff ff 	callq	-2333 <__ZNSt3__17__sort3IR7comparePNS_12basic_stringIcNS_11char_traitsIcEENS_9allocatorIcEEEEEEjT0_SA_SA_T_>
100004fbd:	e9 a8 00 00 00 	jmp	168 <__ZNSt3__127__insertion_sort_incompleteIR7comparePNS_12basic_stringIcNS_11char_traitsIcEENS_9allocatorIcEEEEEEbT0_SA_T_+0x25a>
100004fc2:	48 8d 73 18 	leaq	24(%rbx), %rsi
100004fc6:	48 8d 53 30 	leaq	48(%rbx), %rdx
100004fca:	49 83 c7 e8 	addq	$-24, %r15
100004fce:	48 89 df 	movq	%rbx, %rdi
100004fd1:	4c 89 f9 	movq	%r15, %rcx
100004fd4:	49 89 c0 	movq	%rax, %r8
100004fd7:	e8 e4 f8 ff ff 	callq	-1820 <__ZNSt3__17__sort4IR7comparePNS_12basic_stringIcNS_11char_traitsIcEENS_9allocatorIcEEEEEEjT0_SA_SA_SA_T_>
100004fdc:	e9 89 00 00 00 	jmp	137 <__ZNSt3__127__insertion_sort_incompleteIR7comparePNS_12basic_stringIcNS_11char_traitsIcEENS_9allocatorIcEEEEEEbT0_SA_T_+0x25a>
100004fe1:	48 8d 53 30 	leaq	48(%rbx), %rdx
100004fe5:	48 8d 4b 48 	leaq	72(%rbx), %rcx
100004fe9:	49 83 c7 e8 	addq	$-24, %r15
100004fed:	48 8d 73 18 	leaq	24(%rbx), %rsi
100004ff1:	48 89 df 	movq	%rbx, %rdi
100004ff4:	4d 89 f8 	movq	%r15, %r8
100004ff7:	49 89 c1 	movq	%rax, %r9
100004ffa:	e8 71 fa ff ff 	callq	-1423 <__ZNSt3__17__sort5IR7comparePNS_12basic_stringIcNS_11char_traitsIcEENS_9allocatorIcEEEEEEjT0_SA_SA_SA_SA_T_>
100004fff:	eb 69 	jmp	105 <__ZNSt3__127__insertion_sort_incompleteIR7comparePNS_12basic_stringIcNS_11char_traitsIcEENS_9allocatorIcEEEEEEbT0_SA_T_+0x25a>
100005001:	d0 e8 	shrb	%al
100005003:	0f b6 c0 	movzbl	%al, %eax
100005006:	8a 0b 	movb	(%rbx), %cl
100005008:	f6 c1 01 	testb	$1, %cl
10000500b:	74 0b 	je	11 <__ZNSt3__127__insertion_sort_incompleteIR7comparePNS_12basic_stringIcNS_11char_traitsIcEENS_9allocatorIcEEEEEEbT0_SA_T_+0x208>
10000500d:	48 8b 4b 08 	movq	8(%rbx), %rcx
100005011:	48 39 c8 	cmpq	%rcx, %rax
100005014:	77 0c 	ja	12 <__ZNSt3__127__insertion_sort_incompleteIR7comparePNS_12basic_stringIcNS_11char_traitsIcEENS_9allocatorIcEEEEEEbT0_SA_T_+0x212>
100005016:	eb 52 	jmp	82 <__ZNSt3__127__insertion_sort_incompleteIR7comparePNS_12basic_stringIcNS_11char_traitsIcEENS_9allocatorIcEEEEEEbT0_SA_T_+0x25a>
100005018:	d0 e9 	shrb	%cl
10000501a:	0f b6 c9 	movzbl	%cl, %ecx
10000501d:	48 39 c8 	cmpq	%rcx, %rax
100005020:	76 48 	jbe	72 <__ZNSt3__127__insertion_sort_incompleteIR7comparePNS_12basic_stringIcNS_11char_traitsIcEENS_9allocatorIcEEEEEEbT0_SA_T_+0x25a>
100005022:	48 8b 43 10 	movq	16(%rbx), %rax
100005026:	48 89 45 d0 	movq	%rax, -48(%rbp)
10000502a:	48 8b 03 	movq	(%rbx), %rax
10000502d:	48 8b 4b 08 	movq	8(%rbx), %rcx
100005031:	48 89 4d c8 	movq	%rcx, -56(%rbp)
100005035:	48 89 45 c0 	movq	%rax, -64(%rbp)
100005039:	49 83 c7 e8 	addq	$-24, %r15
10000503d:	49 8b 47 10 	movq	16(%r15), %rax
100005041:	48 89 43 10 	movq	%rax, 16(%rbx)
100005045:	49 8b 07 	movq	(%r15), %rax
100005048:	49 8b 4f 08 	movq	8(%r15), %rcx
10000504c:	48 89 4b 08 	movq	%rcx, 8(%rbx)
100005050:	48 89 03 	movq	%rax, (%rbx)
100005053:	48 8b 45 d0 	movq	-48(%rbp), %rax
100005057:	49 89 47 10 	movq	%rax, 16(%r15)
10000505b:	48 8b 45 c0 	movq	-64(%rbp), %rax
10000505f:	48 8b 4d c8 	movq	-56(%rbp), %rcx
100005063:	49 89 4f 08 	movq	%rcx, 8(%r15)
100005067:	49 89 07 	movq	%rax, (%r15)
10000506a:	44 89 f0 	movl	%r14d, %eax
10000506d:	48 83 c4 28 	addq	$40, %rsp
100005071:	5b 	popq	%rbx
100005072:	41 5c 	popq	%r12
100005074:	41 5d 	popq	%r13
100005076:	41 5e 	popq	%r14
100005078:	41 5f 	popq	%r15
10000507a:	5d 	popq	%rbp
10000507b:	c3 	retq
10000507c:	48 83 c6 18 	addq	$24, %rsi
100005080:	4c 39 fe 	cmpq	%r15, %rsi
100005083:	41 0f 94 c6 	sete	%r14b
100005087:	eb e1 	jmp	-31 <__ZNSt3__127__insertion_sort_incompleteIR7comparePNS_12basic_stringIcNS_11char_traitsIcEENS_9allocatorIcEEEEEEbT0_SA_T_+0x25a>
100005089:	eb 00 	jmp	0 <__ZNSt3__127__insertion_sort_incompleteIR7comparePNS_12basic_stringIcNS_11char_traitsIcEENS_9allocatorIcEEEEEEbT0_SA_T_+0x27b>
10000508b:	48 89 c3 	movq	%rax, %rbx
10000508e:	f6 45 c0 01 	testb	$1, -64(%rbp)
100005092:	74 09 	je	9 <__ZNSt3__127__insertion_sort_incompleteIR7comparePNS_12basic_stringIcNS_11char_traitsIcEENS_9allocatorIcEEEEEEbT0_SA_T_+0x28d>
100005094:	48 8b 7d d0 	movq	-48(%rbp), %rdi
100005098:	e8 c5 00 00 00 	callq	197
10000509d:	48 89 df 	movq	%rbx, %rdi
1000050a0:	e8 1b 00 00 00 	callq	27
1000050a5:	0f 0b 	ud2
1000050a7:	90 	nop
1000050a8:	c2 ff ff 	retq	$-1
1000050ab:	ff c2 	incl	%edx
1000050ad:	ff ff  <unknown>
1000050af:	ff b3 fd ff ff ff 	pushq	-3(%rbx)
1000050b5:	fe ff  <unknown>
1000050b7:	ff 1a 	lcalll	*(%rdx)
1000050b9:	ff ff  <unknown>
1000050bb:	ff 39  <unknown>
1000050bd:	ff ff  <unknown>
1000050bf:	ff  <unknown>

__Z6searchv:
1000011e0:	55 	pushq	%rbp
1000011e1:	48 89 e5 	movq	%rsp, %rbp
1000011e4:	41 56 	pushq	%r14
1000011e6:	53 	pushq	%rbx
1000011e7:	48 83 ec 10 	subq	$16, %rsp
1000011eb:	48 8d 3d ba 4a 00 00 	leaq	19130(%rip), %rdi
1000011f2:	e8 f5 3f 00 00 	callq	16373
1000011f7:	48 8b 3d 22 4e 00 00 	movq	20002(%rip), %rdi
1000011fe:	48 8d 35 ad 4a 00 00 	leaq	19117(%rip), %rsi
100001205:	ba 1d 00 00 00 	movl	$29, %edx
10000120a:	e8 c1 02 00 00 	callq	705 <__ZNSt3__124__put_character_sequenceIcNS_11char_traitsIcEEEERNS_13basic_ostreamIT_T0_EES7_PKS4_m>
10000120f:	48 89 c3 	movq	%rax, %rbx
100001212:	48 8b 03 	movq	(%rbx), %rax
100001215:	48 8b 70 e8 	movq	-24(%rax), %rsi
100001219:	48 01 de 	addq	%rbx, %rsi
10000121c:	4c 8d 75 e8 	leaq	-24(%rbp), %r14
100001220:	4c 89 f7 	movq	%r14, %rdi
100001223:	e8 b0 3e 00 00 	callq	16048
100001228:	48 8b 35 f9 4d 00 00 	movq	19961(%rip), %rsi
10000122f:	4c 89 f7 	movq	%r14, %rdi
100001232:	e8 9b 3e 00 00 	callq	16027
100001237:	48 8b 08 	movq	(%rax), %rcx
10000123a:	be 0a 00 00 00 	movl	$10, %esi
10000123f:	48 89 c7 	movq	%rax, %rdi
100001242:	ff 51 38 	callq	*56(%rcx)
100001245:	41 89 c6 	movl	%eax, %r14d
100001248:	48 8d 7d e8 	leaq	-24(%rbp), %rdi
10000124c:	e8 e1 3e 00 00 	callq	16097
100001251:	41 0f be f6 	movsbl	%r14b, %esi
100001255:	48 89 df 	movq	%rbx, %rdi
100001258:	e8 a5 3e 00 00 	callq	16037
10000125d:	48 89 df 	movq	%rbx, %rdi
100001260:	e8 a3 3e 00 00 	callq	16035
100001265:	bf 80 00 00 00 	movl	$128, %edi
10000126a:	e8 ff 3e 00 00 	callq	16127
10000126f:	48 89 c3 	movq	%rax, %rbx
100001272:	48 89 df 	movq	%rbx, %rdi
100001275:	e8 16 0e 00 00 	callq	3606 <__ZN2SEC1Ev>
10000127a:	48 89 df 	movq	%rbx, %rdi
10000127d:	e8 4e 12 00 00 	callq	4686 <__ZN2SE9get_inputEv>
100001282:	48 89 df 	movq	%rbx, %rdi
100001285:	e8 16 14 00 00 	callq	5142 <__ZN2SE11search_dictEv>
10000128a:	48 89 df 	movq	%rbx, %rdi
10000128d:	e8 9e 17 00 00 	callq	6046 <__ZN2SE14display_resultEv>
100001292:	48 89 df 	movq	%rbx, %rdi
100001295:	e8 96 0f 00 00 	callq	3990 <__ZN2SED1Ev>
10000129a:	48 89 df 	movq	%rbx, %rdi
10000129d:	e8 c0 3e 00 00 	callq	16064
1000012a2:	48 83 c4 10 	addq	$16, %rsp
1000012a6:	5b 	popq	%rbx
1000012a7:	41 5e 	popq	%r14
1000012a9:	5d 	popq	%rbp
1000012aa:	c3 	retq
1000012ab:	eb 00 	jmp	0 <__Z6searchv+0xcd>
1000012ad:	49 89 c6 	movq	%rax, %r14
1000012b0:	48 89 df 	movq	%rbx, %rdi
1000012b3:	e8 aa 3e 00 00 	callq	16042
1000012b8:	eb 0c 	jmp	12 <__Z6searchv+0xe6>
1000012ba:	49 89 c6 	movq	%rax, %r14
1000012bd:	48 8d 7d e8 	leaq	-24(%rbp), %rdi
1000012c1:	e8 6c 3e 00 00 	callq	15980
1000012c6:	4c 89 f7 	movq	%r14, %rdi
1000012c9:	e8 f2 3d 00 00 	callq	15858
1000012ce:	0f 0b 	ud2
1000012d0:	48 89 c7 	movq	%rax, %rdi
1000012d3:	e8 b8 04 00 00 	callq	1208 <___clang_call_terminate>
1000012d8:	0f 1f 84 00 00 00 00 00 	nopl	(%rax,%rax)

_main:
1000012e0:	55 	pushq	%rbp
1000012e1:	48 89 e5 	movq	%rsp, %rbp
1000012e4:	41 57 	pushq	%r15
1000012e6:	41 56 	pushq	%r14
1000012e8:	41 55 	pushq	%r13
1000012ea:	41 54 	pushq	%r12
1000012ec:	53 	pushq	%rbx
1000012ed:	48 83 ec 18 	subq	$24, %rsp
1000012f1:	4c 8b 3d 28 4d 00 00 	movq	19752(%rip), %r15
1000012f8:	4c 8d 75 d0 	leaq	-48(%rbp), %r14
1000012fc:	4c 8b 25 25 4d 00 00 	movq	19749(%rip), %r12
100001303:	eb 10 	jmp	16 <_main+0x35>
100001305:	66 66 2e 0f 1f 84 00 00 00 00 00 	nopw	%cs:(%rax,%rax)
100001310:	e8 cb fe ff ff 	callq	-309 <__Z6searchv>
100001315:	ba 1e 00 00 00 	movl	$30, %edx
10000131a:	4c 89 ff 	movq	%r15, %rdi
10000131d:	48 8d 35 ac 49 00 00 	leaq	18860(%rip), %rsi
100001324:	e8 a7 01 00 00 	callq	423 <__ZNSt3__124__put_character_sequenceIcNS_11char_traitsIcEEEERNS_13basic_ostreamIT_T0_EES7_PKS4_m>
100001329:	49 89 c5 	movq	%rax, %r13
10000132c:	49 8b 45 00 	movq	(%r13), %rax
100001330:	48 8b 70 e8 	movq	-24(%rax), %rsi
100001334:	4c 01 ee 	addq	%r13, %rsi
100001337:	4c 89 f7 	movq	%r14, %rdi
10000133a:	e8 99 3d 00 00 	callq	15769
10000133f:	4c 89 f7 	movq	%r14, %rdi
100001342:	4c 89 e6 	movq	%r12, %rsi
100001345:	e8 88 3d 00 00 	callq	15752
10000134a:	48 8b 08 	movq	(%rax), %rcx
10000134d:	be 0a 00 00 00 	movl	$10, %esi
100001352:	48 89 c7 	movq	%rax, %rdi
100001355:	ff 51 38 	callq	*56(%rcx)
100001358:	89 c3 	movl	%eax, %ebx
10000135a:	4c 89 f7 	movq	%r14, %rdi
10000135d:	e8 d0 3d 00 00 	callq	15824
100001362:	0f be f3 	movsbl	%bl, %esi
100001365:	4c 89 ef 	movq	%r13, %rdi
100001368:	e8 95 3d 00 00 	callq	15765
10000136d:	4c 89 ef 	movq	%r13, %rdi
100001370:	e8 93 3d 00 00 	callq	15763
100001375:	48 8b 3d 9c 4c 00 00 	movq	19612(%rip), %rdi
10000137c:	48 8d 75 cc 	leaq	-52(%rbp), %rsi
100001380:	e8 77 3d 00 00 	callq	15735
100001385:	8b 45 cc 	movl	-52(%rbp), %eax
100001388:	83 f8 01 	cmpl	$1, %eax
10000138b:	74 83 	je	-125 <_main+0x30>
10000138d:	83 f8 02 	cmpl	$2, %eax
100001390:	74 65 	je	101 <_main+0x117>
100001392:	ba 0e 00 00 00 	movl	$14, %edx
100001397:	4c 89 ff 	movq	%r15, %rdi
10000139a:	48 8d 35 4e 49 00 00 	leaq	18766(%rip), %rsi
1000013a1:	e8 2a 01 00 00 	callq	298 <__ZNSt3__124__put_character_sequenceIcNS_11char_traitsIcEEEERNS_13basic_ostreamIT_T0_EES7_PKS4_m>
1000013a6:	49 89 c5 	movq	%rax, %r13
1000013a9:	49 8b 45 00 	movq	(%r13), %rax
1000013ad:	48 8b 70 e8 	movq	-24(%rax), %rsi
1000013b1:	4c 01 ee 	addq	%r13, %rsi
1000013b4:	4c 89 f7 	movq	%r14, %rdi
1000013b7:	e8 1c 3d 00 00 	callq	15644
1000013bc:	4c 89 f7 	movq	%r14, %rdi
1000013bf:	4c 89 e6 	movq	%r12, %rsi
1000013c2:	e8 0b 3d 00 00 	callq	15627
1000013c7:	48 8b 08 	movq	(%rax), %rcx
1000013ca:	be 0a 00 00 00 	movl	$10, %esi
1000013cf:	48 89 c7 	movq	%rax, %rdi
1000013d2:	ff 51 38 	callq	*56(%rcx)
1000013d5:	89 c3 	movl	%eax, %ebx
1000013d7:	4c 89 f7 	movq	%r14, %rdi
1000013da:	e8 53 3d 00 00 	callq	15699
1000013df:	0f be f3 	movsbl	%bl, %esi
1000013e2:	4c 89 ef 	movq	%r13, %rdi
1000013e5:	e8 18 3d 00 00 	callq	15640
1000013ea:	4c 89 ef 	movq	%r13, %rdi
1000013ed:	e8 16 3d 00 00 	callq	15638
1000013f2:	e9 1e ff ff ff 	jmp	-226 <_main+0x35>
1000013f7:	48 8d 3d ae 48 00 00 	leaq	18606(%rip), %rdi
1000013fe:	e8 e9 3d 00 00 	callq	15849
100001403:	48 8b 3d 16 4c 00 00 	movq	19478(%rip), %rdi
10000140a:	48 8d 35 ed 48 00 00 	leaq	18669(%rip), %rsi
100001411:	ba 10 00 00 00 	movl	$16, %edx
100001416:	e8 b5 00 00 00 	callq	181 <__ZNSt3__124__put_character_sequenceIcNS_11char_traitsIcEEEERNS_13basic_ostreamIT_T0_EES7_PKS4_m>
10000141b:	48 89 c3 	movq	%rax, %rbx
10000141e:	48 8b 03 	movq	(%rbx), %rax
100001421:	48 8b 70 e8 	movq	-24(%rax), %rsi
100001425:	48 01 de 	addq	%rbx, %rsi
100001428:	4c 8d 75 d0 	leaq	-48(%rbp), %r14
10000142c:	4c 89 f7 	movq	%r14, %rdi
10000142f:	e8 a4 3c 00 00 	callq	15524
100001434:	48 8b 35 ed 4b 00 00 	movq	19437(%rip), %rsi
10000143b:	4c 89 f7 	movq	%r14, %rdi
10000143e:	e8 8f 3c 00 00 	callq	15503
100001443:	48 8b 08 	movq	(%rax), %rcx
100001446:	be 0a 00 00 00 	movl	$10, %esi
10000144b:	48 89 c7 	movq	%rax, %rdi
10000144e:	ff 51 38 	callq	*56(%rcx)
100001451:	41 89 c6 	movl	%eax, %r14d
100001454:	48 8d 7d d0 	leaq	-48(%rbp), %rdi
100001458:	e8 d5 3c 00 00 	callq	15573
10000145d:	41 0f be f6 	movsbl	%r14b, %esi
100001461:	48 89 df 	movq	%rbx, %rdi
100001464:	e8 99 3c 00 00 	callq	15513
100001469:	48 89 df 	movq	%rbx, %rdi
10000146c:	e8 97 3c 00 00 	callq	15511
100001471:	31 c0 	xorl	%eax, %eax
100001473:	48 83 c4 18 	addq	$24, %rsp
100001477:	5b 	popq	%rbx
100001478:	41 5c 	popq	%r12
10000147a:	41 5d 	popq	%r13
10000147c:	41 5e 	popq	%r14
10000147e:	41 5f 	popq	%r15
100001480:	5d 	popq	%rbp
100001481:	c3 	retq
100001482:	48 89 c3 	movq	%rax, %rbx
100001485:	48 8d 7d d0 	leaq	-48(%rbp), %rdi
100001489:	e8 a4 3c 00 00 	callq	15524
10000148e:	eb 2a 	jmp	42 <_main+0x1da>
100001490:	48 89 c7 	movq	%rax, %rdi
100001493:	e8 f8 02 00 00 	callq	760 <___clang_call_terminate>
100001498:	48 89 c3 	movq	%rax, %rbx
10000149b:	48 8d 7d d0 	leaq	-48(%rbp), %rdi
10000149f:	e8 8e 3c 00 00 	callq	15502
1000014a4:	eb 14 	jmp	20 <_main+0x1da>
1000014a6:	48 89 c7 	movq	%rax, %rdi
1000014a9:	e8 e2 02 00 00 	callq	738 <___clang_call_terminate>
1000014ae:	48 89 c3 	movq	%rax, %rbx
1000014b1:	48 8d 7d d0 	leaq	-48(%rbp), %rdi
1000014b5:	e8 78 3c 00 00 	callq	15480
1000014ba:	48 89 df 	movq	%rbx, %rdi
1000014bd:	e8 fe 3b 00 00 	callq	15358
1000014c2:	0f 0b 	ud2
1000014c4:	48 89 c7 	movq	%rax, %rdi
1000014c7:	e8 c4 02 00 00 	callq	708 <___clang_call_terminate>
1000014cc:	0f 1f 40 00 	nopl	(%rax)

__ZNSt3__124__put_character_sequenceIcNS_11char_traitsIcEEEERNS_13basic_ostreamIT_T0_EES7_PKS4_m:
1000014d0:	55 	pushq	%rbp
1000014d1:	48 89 e5 	movq	%rsp, %rbp
1000014d4:	41 57 	pushq	%r15
1000014d6:	41 56 	pushq	%r14
1000014d8:	41 55 	pushq	%r13
1000014da:	41 54 	pushq	%r12
1000014dc:	53 	pushq	%rbx
1000014dd:	48 83 ec 28 	subq	$40, %rsp
1000014e1:	49 89 d6 	movq	%rdx, %r14
1000014e4:	49 89 f7 	movq	%rsi, %r15
1000014e7:	48 89 fb 	movq	%rdi, %rbx
1000014ea:	48 8d 7d b0 	leaq	-80(%rbp), %rdi
1000014ee:	48 89 de 	movq	%rbx, %rsi
1000014f1:	e8 18 3c 00 00 	callq	15384
1000014f6:	80 7d b0 00 	cmpb	$0, -80(%rbp)
1000014fa:	0f 84 ae 00 00 00 	je	174 <__ZNSt3__124__put_character_sequenceIcNS_11char_traitsIcEEEERNS_13basic_ostreamIT_T0_EES7_PKS4_m+0xde>
100001500:	48 8b 03 	movq	(%rbx), %rax
100001503:	48 8b 40 e8 	movq	-24(%rax), %rax
100001507:	4c 8d 24 03 	leaq	(%rbx,%rax), %r12
10000150b:	48 8b 7c 03 28 	movq	40(%rbx,%rax), %rdi
100001510:	44 8b 6c 03 08 	movl	8(%rbx,%rax), %r13d
100001515:	8b 84 03 90 00 00 00 	movl	144(%rbx,%rax), %eax
10000151c:	83 f8 ff 	cmpl	$-1, %eax
10000151f:	75 4a 	jne	74 <__ZNSt3__124__put_character_sequenceIcNS_11char_traitsIcEEEERNS_13basic_ostreamIT_T0_EES7_PKS4_m+0x9b>
100001521:	48 89 7d c0 	movq	%rdi, -64(%rbp)
100001525:	48 8d 7d c8 	leaq	-56(%rbp), %rdi
100001529:	4c 89 e6 	movq	%r12, %rsi
10000152c:	e8 a7 3b 00 00 	callq	15271
100001531:	48 8b 35 f0 4a 00 00 	movq	19184(%rip), %rsi
100001538:	48 8d 7d c8 	leaq	-56(%rbp), %rdi
10000153c:	e8 91 3b 00 00 	callq	15249
100001541:	48 8b 08 	movq	(%rax), %rcx
100001544:	be 20 00 00 00 	movl	$32, %esi
100001549:	48 89 c7 	movq	%rax, %rdi
10000154c:	ff 51 38 	callq	*56(%rcx)
10000154f:	88 45 d7 	movb	%al, -41(%rbp)
100001552:	48 8d 7d c8 	leaq	-56(%rbp), %rdi
100001556:	e8 d7 3b 00 00 	callq	15319
10000155b:	0f be 45 d7 	movsbl	-41(%rbp), %eax
10000155f:	41 89 84 24 90 00 00 00 	movl	%eax, 144(%r12)
100001567:	48 8b 7d c0 	movq	-64(%rbp), %rdi
10000156b:	4d 01 fe 	addq	%r15, %r14
10000156e:	41 81 e5 b0 00 00 00 	andl	$176, %r13d
100001575:	41 83 fd 20 	cmpl	$32, %r13d
100001579:	4c 89 fa 	movq	%r15, %rdx
10000157c:	49 0f 44 d6 	cmoveq	%r14, %rdx
100001580:	44 0f be c8 	movsbl	%al, %r9d
100001584:	4c 89 fe 	movq	%r15, %rsi
100001587:	4c 89 f1 	movq	%r14, %rcx
10000158a:	4d 89 e0 	movq	%r12, %r8
10000158d:	e8 9e 00 00 00 	callq	158 <__ZNSt3__116__pad_and_outputIcNS_11char_traitsIcEEEENS_19ostreambuf_iteratorIT_T0_EES6_PKS4_S8_S8_RNS_8ios_baseES4_>
100001592:	48 85 c0 	testq	%rax, %rax
100001595:	75 17 	jne	23 <__ZNSt3__124__put_character_sequenceIcNS_11char_traitsIcEEEERNS_13basic_ostreamIT_T0_EES7_PKS4_m+0xde>
100001597:	48 8b 03 	movq	(%rbx), %rax
10000159a:	48 8b 40 e8 	movq	-24(%rax), %rax
10000159e:	48 8d 3c 03 	leaq	(%rbx,%rax), %rdi
1000015a2:	8b 74 03 20 	movl	32(%rbx,%rax), %esi
1000015a6:	83 ce 05 	orl	$5, %esi
1000015a9:	e8 96 3b 00 00 	callq	15254
1000015ae:	48 8d 7d b0 	leaq	-80(%rbp), %rdi
1000015b2:	e8 5d 3b 00 00 	callq	15197
1000015b7:	48 89 d8 	movq	%rbx, %rax
1000015ba:	48 83 c4 28 	addq	$40, %rsp
1000015be:	5b 	popq	%rbx
1000015bf:	41 5c 	popq	%r12
1000015c1:	41 5d 	popq	%r13
1000015c3:	41 5e 	popq	%r14
1000015c5:	41 5f 	popq	%r15
1000015c7:	5d 	popq	%rbp
1000015c8:	c3 	retq
1000015c9:	49 89 c6 	movq	%rax, %r14
1000015cc:	48 8d 7d c8 	leaq	-56(%rbp), %rdi
1000015d0:	e8 5d 3b 00 00 	callq	15197
1000015d5:	eb 0b 	jmp	11 <__ZNSt3__124__put_character_sequenceIcNS_11char_traitsIcEEEERNS_13basic_ostreamIT_T0_EES7_PKS4_m+0x112>
1000015d7:	48 89 c7 	movq	%rax, %rdi
1000015da:	e8 b1 01 00 00 	callq	433 <___clang_call_terminate>
1000015df:	49 89 c6 	movq	%rax, %r14
1000015e2:	48 8d 7d b0 	leaq	-80(%rbp), %rdi
1000015e6:	e8 29 3b 00 00 	callq	15145
1000015eb:	eb 03 	jmp	3 <__ZNSt3__124__put_character_sequenceIcNS_11char_traitsIcEEEERNS_13basic_ostreamIT_T0_EES7_PKS4_m+0x120>
1000015ed:	49 89 c6 	movq	%rax, %r14
1000015f0:	4c 89 f7 	movq	%r14, %rdi
1000015f3:	e8 88 3b 00 00 	callq	15240
1000015f8:	48 8b 03 	movq	(%rbx), %rax
1000015fb:	48 89 df 	movq	%rbx, %rdi
1000015fe:	48 03 78 e8 	addq	-24(%rax), %rdi
100001602:	e8 31 3b 00 00 	callq	15153
100001607:	e8 80 3b 00 00 	callq	15232
10000160c:	eb a9 	jmp	-87 <__ZNSt3__124__put_character_sequenceIcNS_11char_traitsIcEEEERNS_13basic_ostreamIT_T0_EES7_PKS4_m+0xe7>
10000160e:	48 89 c3 	movq	%rax, %rbx
100001611:	e8 76 3b 00 00 	callq	15222
100001616:	48 89 df 	movq	%rbx, %rdi
100001619:	e8 a2 3a 00 00 	callq	15010
10000161e:	0f 0b 	ud2
100001620:	48 89 c7 	movq	%rax, %rdi
100001623:	e8 68 01 00 00 	callq	360 <___clang_call_terminate>
100001628:	0f 1f 84 00 00 00 00 00 	nopl	(%rax,%rax)

__ZNSt3__116__pad_and_outputIcNS_11char_traitsIcEEEENS_19ostreambuf_iteratorIT_T0_EES6_PKS4_S8_S8_RNS_8ios_baseES4_:
100001630:	55 	pushq	%rbp
100001631:	48 89 e5 	movq	%rsp, %rbp
100001634:	41 57 	pushq	%r15
100001636:	41 56 	pushq	%r14
100001638:	41 55 	pushq	%r13
10000163a:	41 54 	pushq	%r12
10000163c:	53 	pushq	%rbx
10000163d:	48 83 ec 38 	subq	$56, %rsp
100001641:	4d 89 c4 	movq	%r8, %r12
100001644:	49 89 cf 	movq	%rcx, %r15
100001647:	49 89 fd 	movq	%rdi, %r13
10000164a:	4d 85 ed 	testq	%r13, %r13
10000164d:	0f 84 0a 01 00 00 	je	266 <__ZNSt3__116__pad_and_outputIcNS_11char_traitsIcEEEENS_19ostreambuf_iteratorIT_T0_EES6_PKS4_S8_S8_RNS_8ios_baseES4_+0x12d>
100001653:	44 89 4d bc 	movl	%r9d, -68(%rbp)
100001657:	4c 89 f8 	movq	%r15, %rax
10000165a:	48 29 f0 	subq	%rsi, %rax
10000165d:	49 8b 4c 24 18 	movq	24(%r12), %rcx
100001662:	45 31 f6 	xorl	%r14d, %r14d
100001665:	48 29 c1 	subq	%rax, %rcx
100001668:	4c 0f 4f f1 	cmovgq	%rcx, %r14
10000166c:	48 89 55 a8 	movq	%rdx, -88(%rbp)
100001670:	48 89 d3 	movq	%rdx, %rbx
100001673:	48 29 f3 	subq	%rsi, %rbx
100001676:	48 85 db 	testq	%rbx, %rbx
100001679:	7e 16 	jle	22 <__ZNSt3__116__pad_and_outputIcNS_11char_traitsIcEEEENS_19ostreambuf_iteratorIT_T0_EES6_PKS4_S8_S8_RNS_8ios_baseES4_+0x61>
10000167b:	49 8b 45 00 	movq	(%r13), %rax
10000167f:	4c 89 ef 	movq	%r13, %rdi
100001682:	48 89 da 	movq	%rbx, %rdx
100001685:	ff 50 60 	callq	*96(%rax)
100001688:	48 39 d8 	cmpq	%rbx, %rax
10000168b:	0f 85 cc 00 00 00 	jne	204 <__ZNSt3__116__pad_and_outputIcNS_11char_traitsIcEEEENS_19ostreambuf_iteratorIT_T0_EES6_PKS4_S8_S8_RNS_8ios_baseES4_+0x12d>
100001691:	4d 85 f6 	testq	%r14, %r14
100001694:	0f 8e 9a 00 00 00 	jle	154 <__ZNSt3__116__pad_and_outputIcNS_11char_traitsIcEEEENS_19ostreambuf_iteratorIT_T0_EES6_PKS4_S8_S8_RNS_8ios_baseES4_+0x104>
10000169a:	4c 89 65 b0 	movq	%r12, -80(%rbp)
10000169e:	0f 57 c0 	xorps	%xmm0, %xmm0
1000016a1:	0f 29 45 c0 	movaps	%xmm0, -64(%rbp)
1000016a5:	48 c7 45 d0 00 00 00 00 	movq	$0, -48(%rbp)
1000016ad:	49 83 fe 17 	cmpq	$23, %r14
1000016b1:	73 11 	jae	17 <__ZNSt3__116__pad_and_outputIcNS_11char_traitsIcEEEENS_19ostreambuf_iteratorIT_T0_EES6_PKS4_S8_S8_RNS_8ios_baseES4_+0x94>
1000016b3:	44 89 f0 	movl	%r14d, %eax
1000016b6:	00 c0 	addb	%al, %al
1000016b8:	88 45 c0 	movb	%al, -64(%rbp)
1000016bb:	48 8d 5d c1 	leaq	-63(%rbp), %rbx
1000016bf:	49 89 dc 	movq	%rbx, %r12
1000016c2:	eb 27 	jmp	39 <__ZNSt3__116__pad_and_outputIcNS_11char_traitsIcEEEENS_19ostreambuf_iteratorIT_T0_EES6_PKS4_S8_S8_RNS_8ios_baseES4_+0xbb>
1000016c4:	49 8d 5e 10 	leaq	16(%r14), %rbx
1000016c8:	48 83 e3 f0 	andq	$-16, %rbx
1000016cc:	48 89 df 	movq	%rbx, %rdi
1000016cf:	e8 9a 3a 00 00 	callq	15002
1000016d4:	49 89 c4 	movq	%rax, %r12
1000016d7:	4c 89 65 d0 	movq	%r12, -48(%rbp)
1000016db:	48 83 cb 01 	orq	$1, %rbx
1000016df:	48 89 5d c0 	movq	%rbx, -64(%rbp)
1000016e3:	4c 89 75 c8 	movq	%r14, -56(%rbp)
1000016e7:	48 8d 5d c1 	leaq	-63(%rbp), %rbx
1000016eb:	0f b6 75 bc 	movzbl	-68(%rbp), %esi
1000016ef:	4c 89 e7 	movq	%r12, %rdi
1000016f2:	4c 89 f2 	movq	%r14, %rdx
1000016f5:	e8 ec 3a 00 00 	callq	15084
1000016fa:	43 c6 04 34 00 	movb	$0, (%r12,%r14)
1000016ff:	f6 45 c0 01 	testb	$1, -64(%rbp)
100001703:	74 04 	je	4 <__ZNSt3__116__pad_and_outputIcNS_11char_traitsIcEEEENS_19ostreambuf_iteratorIT_T0_EES6_PKS4_S8_S8_RNS_8ios_baseES4_+0xd9>
100001705:	48 8b 5d d0 	movq	-48(%rbp), %rbx
100001709:	49 8b 45 00 	movq	(%r13), %rax
10000170d:	4c 89 ef 	movq	%r13, %rdi
100001710:	48 89 de 	movq	%rbx, %rsi
100001713:	4c 89 f2 	movq	%r14, %rdx
100001716:	ff 50 60 	callq	*96(%rax)
100001719:	48 89 c3 	movq	%rax, %rbx
10000171c:	4c 8b 65 b0 	movq	-80(%rbp), %r12
100001720:	f6 45 c0 01 	testb	$1, -64(%rbp)
100001724:	74 09 	je	9 <__ZNSt3__116__pad_and_outputIcNS_11char_traitsIcEEEENS_19ostreambuf_iteratorIT_T0_EES6_PKS4_S8_S8_RNS_8ios_baseES4_+0xff>
100001726:	48 8b 7d d0 	movq	-48(%rbp), %rdi
10000172a:	e8 33 3a 00 00 	callq	14899
10000172f:	4c 39 f3 	cmpq	%r14, %rbx
100001732:	75 29 	jne	41 <__ZNSt3__116__pad_and_outputIcNS_11char_traitsIcEEEENS_19ostreambuf_iteratorIT_T0_EES6_PKS4_S8_S8_RNS_8ios_baseES4_+0x12d>
100001734:	48 8b 75 a8 	movq	-88(%rbp), %rsi
100001738:	49 29 f7 	subq	%rsi, %r15
10000173b:	4d 85 ff 	testq	%r15, %r15
10000173e:	7e 12 	jle	18 <__ZNSt3__116__pad_and_outputIcNS_11char_traitsIcEEEENS_19ostreambuf_iteratorIT_T0_EES6_PKS4_S8_S8_RNS_8ios_baseES4_+0x122>
100001740:	49 8b 45 00 	movq	(%r13), %rax
100001744:	4c 89 ef 	movq	%r13, %rdi
100001747:	4c 89 fa 	movq	%r15, %rdx
10000174a:	ff 50 60 	callq	*96(%rax)
10000174d:	4c 39 f8 	cmpq	%r15, %rax
100001750:	75 0b 	jne	11 <__ZNSt3__116__pad_and_outputIcNS_11char_traitsIcEEEENS_19ostreambuf_iteratorIT_T0_EES6_PKS4_S8_S8_RNS_8ios_baseES4_+0x12d>
100001752:	49 c7 44 24 18 00 00 00 00 	movq	$0, 24(%r12)
10000175b:	eb 03 	jmp	3 <__ZNSt3__116__pad_and_outputIcNS_11char_traitsIcEEEENS_19ostreambuf_iteratorIT_T0_EES6_PKS4_S8_S8_RNS_8ios_baseES4_+0x130>
10000175d:	45 31 ed 	xorl	%r13d, %r13d
100001760:	4c 89 e8 	movq	%r13, %rax
100001763:	48 83 c4 38 	addq	$56, %rsp
100001767:	5b 	popq	%rbx
100001768:	41 5c 	popq	%r12
10000176a:	41 5d 	popq	%r13
10000176c:	41 5e 	popq	%r14
10000176e:	41 5f 	popq	%r15
100001770:	5d 	popq	%rbp
100001771:	c3 	retq
100001772:	48 89 c3 	movq	%rax, %rbx
100001775:	f6 45 c0 01 	testb	$1, -64(%rbp)
100001779:	74 09 	je	9 <__ZNSt3__116__pad_and_outputIcNS_11char_traitsIcEEEENS_19ostreambuf_iteratorIT_T0_EES6_PKS4_S8_S8_RNS_8ios_baseES4_+0x154>
10000177b:	48 8b 7d d0 	movq	-48(%rbp), %rdi
10000177f:	e8 de 39 00 00 	callq	14814
100001784:	48 89 df 	movq	%rbx, %rdi
100001787:	e8 34 39 00 00 	callq	14644
10000178c:	0f 0b 	ud2
10000178e:	66 90 	nop

___clang_call_terminate:
100001790:	50 	pushq	%rax
100001791:	e8 ea 39 00 00 	callq	14826
100001796:	e8 bb 39 00 00 	callq	14779
10000179b:	90 	nop
10000179c:	90 	nop
10000179d:	90 	nop
10000179e:	90 	nop
10000179f:	90 	nop

__Z5is_inNSt3__112basic_stringIcNS_11char_traitsIcEENS_9allocatorIcEEEEc:
1000017a0:	55 	pushq	%rbp
1000017a1:	48 89 e5 	movq	%rsp, %rbp
1000017a4:	8a 07 	movb	(%rdi), %al
1000017a6:	a8 01 	testb	$1, %al
1000017a8:	75 0f 	jne	15 <__Z5is_inNSt3__112basic_stringIcNS_11char_traitsIcEENS_9allocatorIcEEEEc+0x19>
1000017aa:	48 ff c7 	incq	%rdi
1000017ad:	d0 e8 	shrb	%al
1000017af:	0f b6 c0 	movzbl	%al, %eax
1000017b2:	48 85 c0 	testq	%rax, %rax
1000017b5:	75 19 	jne	25 <__Z5is_inNSt3__112basic_stringIcNS_11char_traitsIcEENS_9allocatorIcEEEEc+0x30>
1000017b7:	eb 24 	jmp	36 <__Z5is_inNSt3__112basic_stringIcNS_11char_traitsIcEENS_9allocatorIcEEEEc+0x3d>
1000017b9:	48 8b 47 08 	movq	8(%rdi), %rax
1000017bd:	48 8b 7f 10 	movq	16(%rdi), %rdi
1000017c1:	48 85 c0 	testq	%rax, %rax
1000017c4:	74 17 	je	23 <__Z5is_inNSt3__112basic_stringIcNS_11char_traitsIcEENS_9allocatorIcEEEEc+0x3d>
1000017c6:	66 2e 0f 1f 84 00 00 00 00 00 	nopw	%cs:(%rax,%rax)
1000017d0:	40 38 37 	cmpb	%sil, (%rdi)
1000017d3:	74 0c 	je	12 <__Z5is_inNSt3__112basic_stringIcNS_11char_traitsIcEENS_9allocatorIcEEEEc+0x41>
1000017d5:	48 ff c7 	incq	%rdi
1000017d8:	48 ff c8 	decq	%rax
1000017db:	75 f3 	jne	-13 <__Z5is_inNSt3__112basic_stringIcNS_11char_traitsIcEENS_9allocatorIcEEEEc+0x30>
1000017dd:	31 c0 	xorl	%eax, %eax
1000017df:	eb 02 	jmp	2 <__Z5is_inNSt3__112basic_stringIcNS_11char_traitsIcEENS_9allocatorIcEEEEc+0x43>
1000017e1:	b0 01 	movb	$1, %al
1000017e3:	5d 	popq	%rbp
1000017e4:	c3 	retq
1000017e5:	66 66 2e 0f 1f 84 00 00 00 00 00 	nopw	%cs:(%rax,%rax)

__Z5printRKNSt3__16vectorINS_12basic_stringIcNS_11char_traitsIcEENS_9allocatorIcEEEENS4_IS6_EEEE:
1000017f0:	55 	pushq	%rbp
1000017f1:	48 89 e5 	movq	%rsp, %rbp
1000017f4:	41 57 	pushq	%r15
1000017f6:	41 56 	pushq	%r14
1000017f8:	41 55 	pushq	%r13
1000017fa:	41 54 	pushq	%r12
1000017fc:	53 	pushq	%rbx
1000017fd:	48 83 ec 18 	subq	$24, %rsp
100001801:	4c 8b 27 	movq	(%rdi), %r12
100001804:	4c 8b 6f 08 	movq	8(%rdi), %r13
100001808:	4d 39 ec 	cmpq	%r13, %r12
10000180b:	0f 84 18 01 00 00 	je	280 <__Z5printRKNSt3__16vectorINS_12basic_stringIcNS_11char_traitsIcEENS_9allocatorIcEEEENS4_IS6_EEEE+0x139>
100001811:	31 c0 	xorl	%eax, %eax
100001813:	48 89 45 c8 	movq	%rax, -56(%rbp)
100001817:	4c 8b 3d 02 48 00 00 	movq	18434(%rip), %r15
10000181e:	4c 8d 35 ea 44 00 00 	leaq	17642(%rip), %r14
100001825:	66 66 2e 0f 1f 84 00 00 00 00 00 	nopw	%cs:(%rax,%rax)
100001830:	41 8a 04 24 	movb	(%r12), %al
100001834:	49 8d 74 24 01 	leaq	1(%r12), %rsi
100001839:	89 c1 	movl	%eax, %ecx
10000183b:	d0 e9 	shrb	%cl
10000183d:	a8 01 	testb	$1, %al
10000183f:	49 0f 45 74 24 10 	cmovneq	16(%r12), %rsi
100001845:	0f b6 d1 	movzbl	%cl, %edx
100001848:	49 0f 45 54 24 08 	cmovneq	8(%r12), %rdx
10000184e:	4c 89 ff 	movq	%r15, %rdi
100001851:	e8 7a fc ff ff 	callq	-902 <__ZNSt3__124__put_character_sequenceIcNS_11char_traitsIcEEEERNS_13basic_ostreamIT_T0_EES7_PKS4_m>
100001856:	31 db 	xorl	%ebx, %ebx
100001858:	eb 18 	jmp	24 <__Z5printRKNSt3__16vectorINS_12basic_stringIcNS_11char_traitsIcEENS_9allocatorIcEEEENS4_IS6_EEEE+0x82>
10000185a:	66 0f 1f 44 00 00 	nopw	(%rax,%rax)
100001860:	ba 01 00 00 00 	movl	$1, %edx
100001865:	4c 89 ff 	movq	%r15, %rdi
100001868:	4c 89 f6 	movq	%r14, %rsi
10000186b:	e8 60 fc ff ff 	callq	-928 <__ZNSt3__124__put_character_sequenceIcNS_11char_traitsIcEEEERNS_13basic_ostreamIT_T0_EES7_PKS4_m>
100001870:	ff c3 	incl	%ebx
100001872:	41 0f b6 04 24 	movzbl	(%r12), %eax
100001877:	a8 01 	testb	$1, %al
100001879:	75 15 	jne	21 <__Z5printRKNSt3__16vectorINS_12basic_stringIcNS_11char_traitsIcEENS_9allocatorIcEEEENS4_IS6_EEEE+0xa0>
10000187b:	d0 e8 	shrb	%al
10000187d:	0f b6 c0 	movzbl	%al, %eax
100001880:	eb 13 	jmp	19 <__Z5printRKNSt3__16vectorINS_12basic_stringIcNS_11char_traitsIcEENS_9allocatorIcEEEENS4_IS6_EEEE+0xa5>
100001882:	66 66 66 66 66 2e 0f 1f 84 00 00 00 00 00 	nopw	%cs:(%rax,%rax)
100001890:	49 8b 44 24 08 	movq	8(%r12), %rax
100001895:	b9 10 00 00 00 	movl	$16, %ecx
10000189a:	29 c1 	subl	%eax, %ecx
10000189c:	39 cb 	cmpl	%ecx, %ebx
10000189e:	7c c0 	jl	-64 <__Z5printRKNSt3__16vectorINS_12basic_stringIcNS_11char_traitsIcEENS_9allocatorIcEEEENS4_IS6_EEEE+0x70>
1000018a0:	48 8b 4d c8 	movq	-56(%rbp), %rcx
1000018a4:	ff c1 	incl	%ecx
1000018a6:	48 89 c8 	movq	%rcx, %rax
1000018a9:	ba ab aa aa aa 	movl	$2863311531, %edx
1000018ae:	48 0f af c2 	imulq	%rdx, %rax
1000018b2:	48 c1 e8 22 	shrq	$34, %rax
1000018b6:	01 c0 	addl	%eax, %eax
1000018b8:	8d 04 40 	leal	(%rax,%rax,2), %eax
1000018bb:	48 89 4d c8 	movq	%rcx, -56(%rbp)
1000018bf:	39 c1 	cmpl	%eax, %ecx
1000018c1:	75 59 	jne	89 <__Z5printRKNSt3__16vectorINS_12basic_stringIcNS_11char_traitsIcEENS_9allocatorIcEEEENS4_IS6_EEEE+0x12c>
1000018c3:	4c 89 eb 	movq	%r13, %rbx
1000018c6:	49 8b 07 	movq	(%r15), %rax
1000018c9:	48 8b 70 e8 	movq	-24(%rax), %rsi
1000018cd:	4c 01 fe 	addq	%r15, %rsi
1000018d0:	4c 8d 6d d0 	leaq	-48(%rbp), %r13
1000018d4:	4c 89 ef 	movq	%r13, %rdi
1000018d7:	e8 fc 37 00 00 	callq	14332
1000018dc:	4c 89 ef 	movq	%r13, %rdi
1000018df:	48 8b 35 42 47 00 00 	movq	18242(%rip), %rsi
1000018e6:	e8 e7 37 00 00 	callq	14311
1000018eb:	48 8b 08 	movq	(%rax), %rcx
1000018ee:	be 0a 00 00 00 	movl	$10, %esi
1000018f3:	48 89 c7 	movq	%rax, %rdi
1000018f6:	ff 51 38 	callq	*56(%rcx)
1000018f9:	41 89 c5 	movl	%eax, %r13d
1000018fc:	48 8d 7d d0 	leaq	-48(%rbp), %rdi
100001900:	e8 2d 38 00 00 	callq	14381
100001905:	41 0f be f5 	movsbl	%r13b, %esi
100001909:	4c 89 ff 	movq	%r15, %rdi
10000190c:	e8 f1 37 00 00 	callq	14321
100001911:	4c 89 ff 	movq	%r15, %rdi
100001914:	e8 ef 37 00 00 	callq	14319
100001919:	49 89 dd 	movq	%rbx, %r13
10000191c:	49 83 c4 18 	addq	$24, %r12
100001920:	4d 39 ec 	cmpq	%r13, %r12
100001923:	0f 85 07 ff ff ff 	jne	-249 <__Z5printRKNSt3__16vectorINS_12basic_stringIcNS_11char_traitsIcEENS_9allocatorIcEEEENS4_IS6_EEEE+0x40>
100001929:	48 8b 35 f0 46 00 00 	movq	18160(%rip), %rsi
100001930:	48 8b 06 	movq	(%rsi), %rax
100001933:	48 03 70 e8 	addq	-24(%rax), %rsi
100001937:	48 8d 5d d0 	leaq	-48(%rbp), %rbx
10000193b:	48 89 df 	movq	%rbx, %rdi
10000193e:	e8 95 37 00 00 	callq	14229
100001943:	48 8b 35 de 46 00 00 	movq	18142(%rip), %rsi
10000194a:	48 89 df 	movq	%rbx, %rdi
10000194d:	e8 80 37 00 00 	callq	14208
100001952:	48 8b 08 	movq	(%rax), %rcx
100001955:	be 0a 00 00 00 	movl	$10, %esi
10000195a:	48 89 c7 	movq	%rax, %rdi
10000195d:	ff 51 38 	callq	*56(%rcx)
100001960:	89 c3 	movl	%eax, %ebx
100001962:	48 8d 7d d0 	leaq	-48(%rbp), %rdi
100001966:	e8 c7 37 00 00 	callq	14279
10000196b:	0f be f3 	movsbl	%bl, %esi
10000196e:	48 8b 1d ab 46 00 00 	movq	18091(%rip), %rbx
100001975:	48 89 df 	movq	%rbx, %rdi
100001978:	e8 85 37 00 00 	callq	14213
10000197d:	48 89 df 	movq	%rbx, %rdi
100001980:	e8 83 37 00 00 	callq	14211
100001985:	48 83 c4 18 	addq	$24, %rsp
100001989:	5b 	popq	%rbx
10000198a:	41 5c 	popq	%r12
10000198c:	41 5d 	popq	%r13
10000198e:	41 5e 	popq	%r14
100001990:	41 5f 	popq	%r15
100001992:	5d 	popq	%rbp
100001993:	c3 	retq
100001994:	48 89 c3 	movq	%rax, %rbx
100001997:	48 8d 7d d0 	leaq	-48(%rbp), %rdi
10000199b:	e8 92 37 00 00 	callq	14226
1000019a0:	eb 14 	jmp	20 <__Z5printRKNSt3__16vectorINS_12basic_stringIcNS_11char_traitsIcEENS_9allocatorIcEEEENS4_IS6_EEEE+0x1c6>
1000019a2:	48 89 c7 	movq	%rax, %rdi
1000019a5:	e8 e6 fd ff ff 	callq	-538 <___clang_call_terminate>
1000019aa:	48 89 c3 	movq	%rax, %rbx
1000019ad:	48 8d 7d d0 	leaq	-48(%rbp), %rdi
1000019b1:	e8 7c 37 00 00 	callq	14204
1000019b6:	48 89 df 	movq	%rbx, %rdi
1000019b9:	e8 02 37 00 00 	callq	14082
1000019be:	0f 0b 	ud2
1000019c0:	48 89 c7 	movq	%rax, %rdi
1000019c3:	e8 c8 fd ff ff 	callq	-568 <___clang_call_terminate>
1000019c8:	0f 1f 84 00 00 00 00 00 	nopl	(%rax,%rax)

__ZN2SEC2Ev:
1000019d0:	55 	pushq	%rbp
1000019d1:	48 89 e5 	movq	%rsp, %rbp
1000019d4:	41 57 	pushq	%r15
1000019d6:	41 56 	pushq	%r14
1000019d8:	41 54 	pushq	%r12
1000019da:	53 	pushq	%rbx
1000019db:	49 89 fc 	movq	%rdi, %r12
1000019de:	49 c7 44 24 70 00 00 00 00 	movq	$0, 112(%r12)
1000019e7:	49 c7 44 24 68 00 00 00 00 	movq	$0, 104(%r12)
1000019f0:	49 c7 44 24 60 00 00 00 00 	movq	$0, 96(%r12)
1000019f9:	49 c7 44 24 58 00 00 00 00 	movq	$0, 88(%r12)
100001a02:	49 c7 44 24 50 00 00 00 00 	movq	$0, 80(%r12)
100001a0b:	49 c7 44 24 48 00 00 00 00 	movq	$0, 72(%r12)
100001a14:	49 c7 44 24 40 00 00 00 00 	movq	$0, 64(%r12)
100001a1d:	49 c7 44 24 38 00 00 00 00 	movq	$0, 56(%r12)
100001a26:	49 c7 44 24 30 00 00 00 00 	movq	$0, 48(%r12)
100001a2f:	49 c7 44 24 28 00 00 00 00 	movq	$0, 40(%r12)
100001a38:	49 c7 44 24 20 00 00 00 00 	movq	$0, 32(%r12)
100001a41:	49 c7 44 24 18 00 00 00 00 	movq	$0, 24(%r12)
100001a4a:	49 c7 44 24 10 00 00 00 00 	movq	$0, 16(%r12)
100001a53:	49 c7 44 24 08 00 00 00 00 	movq	$0, 8(%r12)
100001a5c:	49 c7 04 24 00 00 00 00 	movq	$0, (%r12)
100001a64:	bf 18 00 00 00 	movl	$24, %edi
100001a69:	e8 00 37 00 00 	callq	14080
100001a6e:	48 c7 40 10 00 00 00 00 	movq	$0, 16(%rax)
100001a76:	48 c7 40 08 00 00 00 00 	movq	$0, 8(%rax)
100001a7e:	48 c7 00 00 00 00 00 	movq	$0, (%rax)
100001a85:	49 89 44 24 78 	movq	%rax, 120(%r12)
100001a8a:	4c 89 e7 	movq	%r12, %rdi
100001a8d:	e8 3e 01 00 00 	callq	318 <__ZN2SE9load_dictEv>
100001a92:	5b 	popq	%rbx
100001a93:	41 5c 	popq	%r12
100001a95:	41 5e 	popq	%r14
100001a97:	41 5f 	popq	%r15
100001a99:	5d 	popq	%rbp
100001a9a:	c3 	retq
100001a9b:	49 89 c6 	movq	%rax, %r14
100001a9e:	41 f6 44 24 60 01 	testb	$1, 96(%r12)
100001aa4:	74 0a 	je	10 <__ZN2SEC2Ev+0xe0>
100001aa6:	49 8b 7c 24 70 	movq	112(%r12), %rdi
100001aab:	e8 b2 36 00 00 	callq	14002
100001ab0:	4d 8b 7c 24 48 	movq	72(%r12), %r15
100001ab5:	4d 85 ff 	testq	%r15, %r15
100001ab8:	74 39 	je	57 <__ZN2SEC2Ev+0x123>
100001aba:	49 8b 44 24 50 	movq	80(%r12), %rax
100001abf:	4c 39 f8 	cmpq	%r15, %rax
100001ac2:	74 22 	je	34 <__ZN2SEC2Ev+0x116>
100001ac4:	48 8d 58 e8 	leaq	-24(%rax), %rbx
100001ac8:	f6 40 e8 01 	testb	$1, -24(%rax)
100001acc:	74 09 	je	9 <__ZN2SEC2Ev+0x107>
100001ace:	48 8b 78 f8 	movq	-8(%rax), %rdi
100001ad2:	e8 8b 36 00 00 	callq	13963
100001ad7:	48 89 d8 	movq	%rbx, %rax
100001ada:	49 39 df 	cmpq	%rbx, %r15
100001add:	75 e5 	jne	-27 <__ZN2SEC2Ev+0xf4>
100001adf:	49 8b 7c 24 48 	movq	72(%r12), %rdi
100001ae4:	eb 03 	jmp	3 <__ZN2SEC2Ev+0x119>
100001ae6:	4c 89 ff 	movq	%r15, %rdi
100001ae9:	4d 89 7c 24 50 	movq	%r15, 80(%r12)
100001aee:	e8 6f 36 00 00 	callq	13935
100001af3:	4d 8b 7c 24 30 	movq	48(%r12), %r15
100001af8:	4d 85 ff 	testq	%r15, %r15
100001afb:	74 39 	je	57 <__ZN2SEC2Ev+0x166>
100001afd:	49 8b 44 24 38 	movq	56(%r12), %rax
100001b02:	4c 39 f8 	cmpq	%r15, %rax
100001b05:	74 22 	je	34 <__ZN2SEC2Ev+0x159>
100001b07:	48 8d 58 e8 	leaq	-24(%rax), %rbx
100001b0b:	f6 40 e8 01 	testb	$1, -24(%rax)
100001b0f:	74 09 	je	9 <__ZN2SEC2Ev+0x14a>
100001b11:	48 8b 78 f8 	movq	-8(%rax), %rdi
100001b15:	e8 48 36 00 00 	callq	13896
100001b1a:	48 89 d8 	movq	%rbx, %rax
100001b1d:	49 39 df 	cmpq	%rbx, %r15
100001b20:	75 e5 	jne	-27 <__ZN2SEC2Ev+0x137>
100001b22:	49 8b 7c 24 30 	movq	48(%r12), %rdi
100001b27:	eb 03 	jmp	3 <__ZN2SEC2Ev+0x15c>
100001b29:	4c 89 ff 	movq	%r15, %rdi
100001b2c:	4d 89 7c 24 38 	movq	%r15, 56(%r12)
100001b31:	e8 2c 36 00 00 	callq	13868
100001b36:	4d 8b 7c 24 18 	movq	24(%r12), %r15
100001b3b:	4d 85 ff 	testq	%r15, %r15
100001b3e:	74 39 	je	57 <__ZN2SEC2Ev+0x1a9>
100001b40:	49 8b 44 24 20 	movq	32(%r12), %rax
100001b45:	4c 39 f8 	cmpq	%r15, %rax
100001b48:	74 22 	je	34 <__ZN2SEC2Ev+0x19c>
100001b4a:	48 8d 58 e8 	leaq	-24(%rax), %rbx
100001b4e:	f6 40 e8 01 	testb	$1, -24(%rax)
100001b52:	74 09 	je	9 <__ZN2SEC2Ev+0x18d>
100001b54:	48 8b 78 f8 	movq	-8(%rax), %rdi
100001b58:	e8 05 36 00 00 	callq	13829
100001b5d:	48 89 d8 	movq	%rbx, %rax
100001b60:	49 39 df 	cmpq	%rbx, %r15
100001b63:	75 e5 	jne	-27 <__ZN2SEC2Ev+0x17a>
100001b65:	49 8b 7c 24 18 	movq	24(%r12), %rdi
100001b6a:	eb 03 	jmp	3 <__ZN2SEC2Ev+0x19f>
100001b6c:	4c 89 ff 	movq	%r15, %rdi
100001b6f:	4d 89 7c 24 20 	movq	%r15, 32(%r12)
100001b74:	e8 e9 35 00 00 	callq	13801
100001b79:	4d 8b 3c 24 	movq	(%r12), %r15
100001b7d:	4d 85 ff 	testq	%r15, %r15
100001b80:	74 37 	je	55 <__ZN2SEC2Ev+0x1e9>
100001b82:	49 8b 44 24 08 	movq	8(%r12), %rax
100001b87:	4c 39 f8 	cmpq	%r15, %rax
100001b8a:	74 37 	je	55 <__ZN2SEC2Ev+0x1f3>
100001b8c:	0f 1f 40 00 	nopl	(%rax)
100001b90:	48 8d 58 e8 	leaq	-24(%rax), %rbx
100001b94:	f6 40 e8 01 	testb	$1, -24(%rax)
100001b98:	74 09 	je	9 <__ZN2SEC2Ev+0x1d3>
100001b9a:	48 8b 78 f8 	movq	-8(%rax), %rdi
100001b9e:	e8 bf 35 00 00 	callq	13759
100001ba3:	48 89 d8 	movq	%rbx, %rax
100001ba6:	49 39 df 	cmpq	%rbx, %r15
100001ba9:	75 e5 	jne	-27 <__ZN2SEC2Ev+0x1c0>
100001bab:	49 8b 3c 24 	movq	(%r12), %rdi
100001baf:	4d 89 7c 24 08 	movq	%r15, 8(%r12)
100001bb4:	e8 a9 35 00 00 	callq	13737
100001bb9:	4c 89 f7 	movq	%r14, %rdi
100001bbc:	e8 ff 34 00 00 	callq	13567
100001bc1:	0f 0b 	ud2
100001bc3:	4c 89 ff 	movq	%r15, %rdi
100001bc6:	eb e7 	jmp	-25 <__ZN2SEC2Ev+0x1df>
100001bc8:	0f 1f 84 00 00 00 00 00 	nopl	(%rax,%rax)

__ZN2SE9load_dictEv:
100001bd0:	55 	pushq	%rbp
100001bd1:	48 89 e5 	movq	%rsp, %rbp
100001bd4:	41 57 	pushq	%r15
100001bd6:	41 56 	pushq	%r14
100001bd8:	41 55 	pushq	%r13
100001bda:	41 54 	pushq	%r12
100001bdc:	53 	pushq	%rbx
100001bdd:	48 81 ec 88 02 00 00 	subq	$648, %rsp
100001be4:	48 89 bd 58 fd ff ff 	movq	%rdi, -680(%rbp)
100001beb:	48 8b 05 7e 44 00 00 	movq	17534(%rip), %rax
100001bf2:	48 8b 00 	movq	(%rax), %rax
100001bf5:	48 89 45 d0 	movq	%rax, -48(%rbp)
100001bf9:	48 8d bd 38 ff ff ff 	leaq	-200(%rbp), %rdi
100001c00:	4c 8d b5 a0 fd ff ff 	leaq	-608(%rbp), %r14
100001c07:	48 8b 05 32 44 00 00 	movq	17458(%rip), %rax
100001c0e:	48 8d 48 40 	leaq	64(%rax), %rcx
100001c12:	48 89 8d 38 ff ff ff 	movq	%rcx, -200(%rbp)
100001c19:	48 83 c0 18 	addq	$24, %rax
100001c1d:	66 48 0f 6e c0 	movq	%rax, %xmm0
100001c22:	66 0f 7f 85 90 fd ff ff 	movdqa	%xmm0, -624(%rbp)
100001c2a:	4c 89 f6 	movq	%r14, %rsi
100001c2d:	e8 0c 35 00 00 	callq	13580
100001c32:	48 c7 45 c0 00 00 00 00 	movq	$0, -64(%rbp)
100001c3a:	c7 45 c8 ff ff ff ff 	movl	$4294967295, -56(%rbp)
100001c41:	4c 8b 3d 18 44 00 00 	movq	17432(%rip), %r15
100001c48:	49 8d 5f 18 	leaq	24(%r15), %rbx
100001c4c:	48 89 9d 90 fd ff ff 	movq	%rbx, -624(%rbp)
100001c53:	49 83 c7 40 	addq	$64, %r15
100001c57:	4c 89 bd 38 ff ff ff 	movq	%r15, -200(%rbp)
100001c5e:	4c 89 f7 	movq	%r14, %rdi
100001c61:	e8 ea 1f 00 00 	callq	8170 <__ZNSt3__113basic_filebufIcNS_11char_traitsIcEEEC2Ev>
100001c66:	48 83 bd 18 fe ff ff 00 	cmpq	$0, -488(%rbp)
100001c6e:	74 24 	je	36 <__ZN2SE9load_dictEv+0xc4>
100001c70:	48 8b 85 90 fd ff ff 	movq	-624(%rbp), %rax
100001c77:	48 8b 40 e8 	movq	-24(%rax), %rax
100001c7b:	48 8d bc 05 90 fd ff ff 	leaq	-624(%rbp,%rax), %rdi
100001c83:	8b b4 05 b0 fd ff ff 	movl	-592(%rbp,%rax), %esi
100001c8a:	83 ce 04 	orl	$4, %esi
100001c8d:	e8 b2 34 00 00 	callq	13490
100001c92:	eb 42 	jmp	66 <__ZN2SE9load_dictEv+0x106>
100001c94:	48 8d 3d 76 40 00 00 	leaq	16502(%rip), %rdi
100001c9b:	48 8d 35 41 41 00 00 	leaq	16705(%rip), %rsi
100001ca2:	e8 0f 35 00 00 	callq	13583
100001ca7:	48 89 85 18 fe ff ff 	movq	%rax, -488(%rbp)
100001cae:	48 85 c0 	testq	%rax, %rax
100001cb1:	74 bd 	je	-67 <__ZN2SE9load_dictEv+0xa0>
100001cb3:	c7 85 28 ff ff ff 08 00 00 00 	movl	$8, -216(%rbp)
100001cbd:	48 8b 85 90 fd ff ff 	movq	-624(%rbp), %rax
100001cc4:	48 8d bd 90 fd ff ff 	leaq	-624(%rbp), %rdi
100001ccb:	48 03 78 e8 	addq	-24(%rax), %rdi
100001ccf:	31 f6 	xorl	%esi, %esi
100001cd1:	e8 6e 34 00 00 	callq	13422
100001cd6:	48 89 9d 60 fd ff ff 	movq	%rbx, -672(%rbp)
100001cdd:	66 0f ef c0 	pxor	%xmm0, %xmm0
100001ce1:	66 0f 7f 85 70 fd ff ff 	movdqa	%xmm0, -656(%rbp)
100001ce9:	48 c7 85 80 fd ff ff 00 00 00 00 	movq	$0, -640(%rbp)
100001cf4:	48 8b 85 90 fd ff ff 	movq	-624(%rbp), %rax
100001cfb:	48 8b 40 e8 	movq	-24(%rax), %rax
100001cff:	f6 84 05 b0 fd ff ff 02 	testb	$2, -592(%rbp,%rax)
100001d07:	0f 85 c7 00 00 00 	jne	199 <__ZN2SE9load_dictEv+0x204>
100001d0d:	4c 8d ad 90 fd ff ff 	leaq	-624(%rbp), %r13
100001d14:	4c 8d a5 70 fd ff ff 	leaq	-656(%rbp), %r12
100001d1b:	4c 89 ef 	movq	%r13, %rdi
100001d1e:	4c 89 e6 	movq	%r12, %rsi
100001d21:	e8 1a 05 00 00 	callq	1306 <__ZNSt3__1rsIcNS_11char_traitsIcEENS_9allocatorIcEEEERNS_13basic_istreamIT_T0_EES9_RNS_12basic_stringIS6_S7_T1_EE>
100001d26:	8a 85 70 fd ff ff 	movb	-656(%rbp), %al
100001d2c:	48 8b 9d 80 fd ff ff 	movq	-640(%rbp), %rbx
100001d33:	48 8b 8d 78 fd ff ff 	movq	-648(%rbp), %rcx
100001d3a:	48 01 d9 	addq	%rbx, %rcx
100001d3d:	89 c2 	movl	%eax, %edx
100001d3f:	d0 ea 	shrb	%dl
100001d41:	a8 01 	testb	$1, %al
100001d43:	0f b6 c2 	movzbl	%dl, %eax
100001d46:	4c 8d b4 05 71 fd ff ff 	leaq	-655(%rbp,%rax), %r14
100001d4e:	4c 0f 45 f1 	cmovneq	%rcx, %r14
100001d52:	48 8d 85 71 fd ff ff 	leaq	-655(%rbp), %rax
100001d59:	48 0f 44 d8 	cmoveq	%rax, %rbx
100001d5d:	4c 39 f3 	cmpq	%r14, %rbx
100001d60:	74 20 	je	32 <__ZN2SE9load_dictEv+0x1b2>
100001d62:	66 66 66 66 66 2e 0f 1f 84 00 00 00 00 00 	nopw	%cs:(%rax,%rax)
100001d70:	0f be 3b 	movsbl	(%rbx), %edi
100001d73:	e8 2c 34 00 00 	callq	13356
100001d78:	88 03 	movb	%al, (%rbx)
100001d7a:	48 ff c3 	incq	%rbx
100001d7d:	49 39 de 	cmpq	%rbx, %r14
100001d80:	75 ee 	jne	-18 <__ZN2SE9load_dictEv+0x1a0>
100001d82:	48 8b 85 58 fd ff ff 	movq	-680(%rbp), %rax
100001d89:	4c 8b 70 78 	movq	120(%rax), %r14
100001d8d:	49 8b 7e 08 	movq	8(%r14), %rdi
100001d91:	49 3b 7e 10 	cmpq	16(%r14), %rdi
100001d95:	74 19 	je	25 <__ZN2SE9load_dictEv+0x1e0>
100001d97:	4c 89 e6 	movq	%r12, %rsi
100001d9a:	e8 45 33 00 00 	callq	13125
100001d9f:	49 83 46 08 18 	addq	$24, 8(%r14)
100001da4:	eb 15 	jmp	21 <__ZN2SE9load_dictEv+0x1eb>
100001da6:	66 2e 0f 1f 84 00 00 00 00 00 	nopw	%cs:(%rax,%rax)
100001db0:	4c 89 f7 	movq	%r14, %rdi
100001db3:	4c 89 e6 	movq	%r12, %rsi
100001db6:	e8 a5 1f 00 00 	callq	8101 <__ZNSt3__16vectorINS_12basic_stringIcNS_11char_traitsIcEENS_9allocatorIcEEEENS4_IS6_EEE21__push_back_slow_pathIKS6_EEvRT_>
100001dbb:	48 8b 85 90 fd ff ff 	movq	-624(%rbp), %rax
100001dc2:	48 8b 40 e8 	movq	-24(%rax), %rax
100001dc6:	f6 84 05 b0 fd ff ff 02 	testb	$2, -592(%rbp,%rax)
100001dce:	0f 84 47 ff ff ff 	je	-185 <__ZN2SE9load_dictEv+0x14b>
100001dd4:	48 8b 3d 45 42 00 00 	movq	16965(%rip), %rdi
100001ddb:	48 8d 35 33 3f 00 00 	leaq	16179(%rip), %rsi
100001de2:	ba 11 00 00 00 	movl	$17, %edx
100001de7:	4c 8d a5 a0 fd ff ff 	leaq	-608(%rbp), %r12
100001dee:	e8 dd f6 ff ff 	callq	-2339 <__ZNSt3__124__put_character_sequenceIcNS_11char_traitsIcEEEERNS_13basic_ostreamIT_T0_EES7_PKS4_m>
100001df3:	48 89 c3 	movq	%rax, %rbx
100001df6:	48 8b 03 	movq	(%rbx), %rax
100001df9:	48 8b 70 e8 	movq	-24(%rax), %rsi
100001dfd:	48 01 de 	addq	%rbx, %rsi
100001e00:	48 8d bd 68 fd ff ff 	leaq	-664(%rbp), %rdi
100001e07:	e8 cc 32 00 00 	callq	13004
100001e0c:	48 8b 35 15 42 00 00 	movq	16917(%rip), %rsi
100001e13:	48 8d bd 68 fd ff ff 	leaq	-664(%rbp), %rdi
100001e1a:	e8 b3 32 00 00 	callq	12979
100001e1f:	48 8b 08 	movq	(%rax), %rcx
100001e22:	be 0a 00 00 00 	movl	$10, %esi
100001e27:	48 89 c7 	movq	%rax, %rdi
100001e2a:	ff 51 38 	callq	*56(%rcx)
100001e2d:	41 89 c6 	movl	%eax, %r14d
100001e30:	48 8d bd 68 fd ff ff 	leaq	-664(%rbp), %rdi
100001e37:	e8 f6 32 00 00 	callq	13046
100001e3c:	41 0f be f6 	movsbl	%r14b, %esi
100001e40:	48 89 df 	movq	%rbx, %rdi
100001e43:	e8 ba 32 00 00 	callq	12986
100001e48:	48 89 df 	movq	%rbx, %rdi
100001e4b:	e8 b8 32 00 00 	callq	12984
100001e50:	48 8b 9d 18 fe ff ff 	movq	-488(%rbp), %rbx
100001e57:	48 85 db 	testq	%rbx, %rbx
100001e5a:	74 2c 	je	44 <__ZN2SE9load_dictEv+0x2b8>
100001e5c:	48 8b 85 a0 fd ff ff 	movq	-608(%rbp), %rax
100001e63:	4c 89 e7 	movq	%r12, %rdi
100001e66:	ff 50 30 	callq	*48(%rax)
100001e69:	41 89 c6 	movl	%eax, %r14d
100001e6c:	48 89 df 	movq	%rbx, %rdi
100001e6f:	e8 36 33 00 00 	callq	13110
100001e74:	85 c0 	testl	%eax, %eax
100001e76:	75 10 	jne	16 <__ZN2SE9load_dictEv+0x2b8>
100001e78:	48 c7 85 18 fe ff ff 00 00 00 00 	movq	$0, -488(%rbp)
100001e83:	45 85 f6 	testl	%r14d, %r14d
100001e86:	74 22 	je	34 <__ZN2SE9load_dictEv+0x2da>
100001e88:	48 8b 85 90 fd ff ff 	movq	-624(%rbp), %rax
100001e8f:	48 8b 40 e8 	movq	-24(%rax), %rax
100001e93:	48 8d bc 05 90 fd ff ff 	leaq	-624(%rbp,%rax), %rdi
100001e9b:	8b b4 05 b0 fd ff ff 	movl	-592(%rbp,%rax), %esi
100001ea2:	83 ce 04 	orl	$4, %esi
100001ea5:	e8 9a 32 00 00 	callq	12954
100001eaa:	f6 85 70 fd ff ff 01 	testb	$1, -656(%rbp)
100001eb1:	74 0c 	je	12 <__ZN2SE9load_dictEv+0x2ef>
100001eb3:	48 8b bd 80 fd ff ff 	movq	-640(%rbp), %rdi
100001eba:	e8 a3 32 00 00 	callq	12963
100001ebf:	48 8b 85 60 fd ff ff 	movq	-672(%rbp), %rax
100001ec6:	48 89 85 90 fd ff ff 	movq	%rax, -624(%rbp)
100001ecd:	4c 89 bd 38 ff ff ff 	movq	%r15, -200(%rbp)
100001ed4:	4c 89 e7 	movq	%r12, %rdi
100001ed7:	e8 44 0f 00 00 	callq	3908 <__ZNSt3__113basic_filebufIcNS_11char_traitsIcEEED2Ev>
100001edc:	48 8b 35 6d 41 00 00 	movq	16749(%rip), %rsi
100001ee3:	48 83 c6 08 	addq	$8, %rsi
100001ee7:	48 8d bd 90 fd ff ff 	leaq	-624(%rbp), %rdi
100001eee:	e8 03 32 00 00 	callq	12803
100001ef3:	48 8d bd 38 ff ff ff 	leaq	-200(%rbp), %rdi
100001efa:	e8 4b 32 00 00 	callq	12875
100001eff:	48 8b 05 6a 41 00 00 	movq	16746(%rip), %rax
100001f06:	48 8b 00 	movq	(%rax), %rax
100001f09:	48 3b 45 d0 	cmpq	-48(%rbp), %rax
100001f0d:	75 12 	jne	18 <__ZN2SE9load_dictEv+0x351>
100001f0f:	48 81 c4 88 02 00 00 	addq	$648, %rsp
100001f16:	5b 	popq	%rbx
100001f17:	41 5c 	popq	%r12
100001f19:	41 5d 	popq	%r13
100001f1b:	41 5e 	popq	%r14
100001f1d:	41 5f 	popq	%r15
100001f1f:	5d 	popq	%rbp
100001f20:	c3 	retq
100001f21:	e8 78 32 00 00 	callq	12920
100001f26:	49 89 c4 	movq	%rax, %r12
100001f29:	48 89 df 	movq	%rbx, %rdi
100001f2c:	e8 79 32 00 00 	callq	12921
100001f31:	e9 9d 00 00 00 	jmp	157 <__ZN2SE9load_dictEv+0x403>
100001f36:	49 89 c4 	movq	%rax, %r12
100001f39:	eb 1a 	jmp	26 <__ZN2SE9load_dictEv+0x385>
100001f3b:	49 89 c4 	movq	%rax, %r12
100001f3e:	48 8b 35 0b 41 00 00 	movq	16651(%rip), %rsi
100001f45:	48 83 c6 08 	addq	$8, %rsi
100001f49:	48 8d bd 90 fd ff ff 	leaq	-624(%rbp), %rdi
100001f50:	e8 a1 31 00 00 	callq	12705
100001f55:	48 8d bd 38 ff ff ff 	leaq	-200(%rbp), %rdi
100001f5c:	e8 e9 31 00 00 	callq	12777
100001f61:	e9 c6 00 00 00 	jmp	198 <__ZN2SE9load_dictEv+0x45c>
100001f66:	48 89 c7 	movq	%rax, %rdi
100001f69:	e8 22 f8 ff ff 	callq	-2014 <___clang_call_terminate>
100001f6e:	48 89 c7 	movq	%rax, %rdi
100001f71:	e8 1a f8 ff ff 	callq	-2022 <___clang_call_terminate>
100001f76:	49 89 c4 	movq	%rax, %r12
100001f79:	48 8b 35 d0 40 00 00 	movq	16592(%rip), %rsi
100001f80:	48 83 c6 08 	addq	$8, %rsi
100001f84:	48 8d bd 90 fd ff ff 	leaq	-624(%rbp), %rdi
100001f8b:	e8 66 31 00 00 	callq	12646
100001f90:	eb 03 	jmp	3 <__ZN2SE9load_dictEv+0x3c5>
100001f92:	49 89 c4 	movq	%rax, %r12
100001f95:	48 8d bd 38 ff ff ff 	leaq	-200(%rbp), %rdi
100001f9c:	e8 a9 31 00 00 	callq	12713
100001fa1:	e9 86 00 00 00 	jmp	134 <__ZN2SE9load_dictEv+0x45c>
100001fa6:	48 89 c7 	movq	%rax, %rdi
100001fa9:	e8 e2 f7 ff ff 	callq	-2078 <___clang_call_terminate>
100001fae:	49 89 c4 	movq	%rax, %r12
100001fb1:	48 8d bd 68 fd ff ff 	leaq	-664(%rbp), %rdi
100001fb8:	e8 75 31 00 00 	callq	12661
100001fbd:	eb 14 	jmp	20 <__ZN2SE9load_dictEv+0x403>
100001fbf:	48 89 c7 	movq	%rax, %rdi
100001fc2:	e8 c9 f7 ff ff 	callq	-2103 <___clang_call_terminate>
100001fc7:	49 89 c4 	movq	%rax, %r12
100001fca:	eb 23 	jmp	35 <__ZN2SE9load_dictEv+0x41f>
100001fcc:	eb 02 	jmp	2 <__ZN2SE9load_dictEv+0x400>
100001fce:	eb 00 	jmp	0 <__ZN2SE9load_dictEv+0x400>
100001fd0:	49 89 c4 	movq	%rax, %r12
100001fd3:	f6 85 70 fd ff ff 01 	testb	$1, -656(%rbp)
100001fda:	48 8b 9d 60 fd ff ff 	movq	-672(%rbp), %rbx
100001fe1:	74 0c 	je	12 <__ZN2SE9load_dictEv+0x41f>
100001fe3:	48 8b bd 80 fd ff ff 	movq	-640(%rbp), %rdi
100001fea:	e8 73 31 00 00 	callq	12659
100001fef:	48 89 9d 90 fd ff ff 	movq	%rbx, -624(%rbp)
100001ff6:	4c 89 bd 38 ff ff ff 	movq	%r15, -200(%rbp)
100001ffd:	48 8d bd a0 fd ff ff 	leaq	-608(%rbp), %rdi
100002004:	e8 17 0e 00 00 	callq	3607 <__ZNSt3__113basic_filebufIcNS_11char_traitsIcEEED2Ev>
100002009:	48 8b 35 40 40 00 00 	movq	16448(%rip), %rsi
100002010:	48 83 c6 08 	addq	$8, %rsi
100002014:	48 8d bd 90 fd ff ff 	leaq	-624(%rbp), %rdi
10000201b:	e8 d6 30 00 00 	callq	12502
100002020:	48 8d bd 38 ff ff ff 	leaq	-200(%rbp), %rdi
100002027:	e8 1e 31 00 00 	callq	12574
10000202c:	4c 89 e7 	movq	%r12, %rdi
10000202f:	e8 8c 30 00 00 	callq	12428
100002034:	0f 0b 	ud2
100002036:	48 89 c3 	movq	%rax, %rbx
100002039:	48 89 df 	movq	%rbx, %rdi
10000203c:	e8 4f f7 ff ff 	callq	-2225 <___clang_call_terminate>
100002041:	48 89 c3 	movq	%rax, %rbx
100002044:	eb 1a 	jmp	26 <__ZN2SE9load_dictEv+0x490>
100002046:	48 89 c3 	movq	%rax, %rbx
100002049:	48 8b 35 00 40 00 00 	movq	16384(%rip), %rsi
100002050:	48 83 c6 08 	addq	$8, %rsi
100002054:	48 8d bd 90 fd ff ff 	leaq	-624(%rbp), %rdi
10000205b:	e8 96 30 00 00 	callq	12438
100002060:	48 8d bd 38 ff ff ff 	leaq	-200(%rbp), %rdi
100002067:	e8 de 30 00 00 	callq	12510
10000206c:	48 89 df 	movq	%rbx, %rdi
10000206f:	e8 1c f7 ff ff 	callq	-2276 <___clang_call_terminate>
100002074:	48 89 c7 	movq	%rax, %rdi
100002077:	e8 14 f7 ff ff 	callq	-2284 <___clang_call_terminate>
10000207c:	48 89 c7 	movq	%rax, %rdi
10000207f:	e8 0c f7 ff ff 	callq	-2292 <___clang_call_terminate>
100002084:	66 66 66 2e 0f 1f 84 00 00 00 00 00 	nopw	%cs:(%rax,%rax)

__ZN2SEC1Ev:
100002090:	55 	pushq	%rbp
100002091:	48 89 e5 	movq	%rsp, %rbp
100002094:	5d 	popq	%rbp
100002095:	e9 36 f9 ff ff 	jmp	-1738 <__ZN2SEC2Ev>
10000209a:	66 0f 1f 44 00 00 	nopw	(%rax,%rax)

__ZN2SED2Ev:
1000020a0:	55 	pushq	%rbp
1000020a1:	48 89 e5 	movq	%rsp, %rbp
1000020a4:	41 57 	pushq	%r15
1000020a6:	41 56 	pushq	%r14
1000020a8:	41 54 	pushq	%r12
1000020aa:	53 	pushq	%rbx
1000020ab:	49 89 fe 	movq	%rdi, %r14
1000020ae:	4d 8b 7e 78 	movq	120(%r14), %r15
1000020b2:	4d 85 ff 	testq	%r15, %r15
1000020b5:	74 4d 	je	77 <__ZN2SED2Ev+0x64>
1000020b7:	4d 8b 27 	movq	(%r15), %r12
1000020ba:	4d 85 e4 	testq	%r12, %r12
1000020bd:	74 3d 	je	61 <__ZN2SED2Ev+0x5c>
1000020bf:	49 8b 47 08 	movq	8(%r15), %rax
1000020c3:	4c 39 e0 	cmpq	%r12, %rax
1000020c6:	74 28 	je	40 <__ZN2SED2Ev+0x50>
1000020c8:	0f 1f 84 00 00 00 00 00 	nopl	(%rax,%rax)
1000020d0:	48 8d 58 e8 	leaq	-24(%rax), %rbx
1000020d4:	f6 40 e8 01 	testb	$1, -24(%rax)
1000020d8:	74 09 	je	9 <__ZN2SED2Ev+0x43>
1000020da:	48 8b 78 f8 	movq	-8(%rax), %rdi
1000020de:	e8 7f 30 00 00 	callq	12415
1000020e3:	48 89 d8 	movq	%rbx, %rax
1000020e6:	49 39 dc 	cmpq	%rbx, %r12
1000020e9:	75 e5 	jne	-27 <__ZN2SED2Ev+0x30>
1000020eb:	49 8b 3f 	movq	(%r15), %rdi
1000020ee:	eb 03 	jmp	3 <__ZN2SED2Ev+0x53>
1000020f0:	4c 89 e7 	movq	%r12, %rdi
1000020f3:	4d 89 67 08 	movq	%r12, 8(%r15)
1000020f7:	e8 66 30 00 00 	callq	12390
1000020fc:	4c 89 ff 	movq	%r15, %rdi
1000020ff:	e8 5e 30 00 00 	callq	12382
100002104:	41 f6 46 60 01 	testb	$1, 96(%r14)
100002109:	74 09 	je	9 <__ZN2SED2Ev+0x74>
10000210b:	49 8b 7e 70 	movq	112(%r14), %rdi
10000210f:	e8 4e 30 00 00 	callq	12366
100002114:	4d 8b 7e 48 	movq	72(%r14), %r15
100002118:	4d 85 ff 	testq	%r15, %r15
10000211b:	74 40 	je	64 <__ZN2SED2Ev+0xbd>
10000211d:	49 8b 46 50 	movq	80(%r14), %rax
100002121:	4c 39 f8 	cmpq	%r15, %rax
100002124:	74 2b 	je	43 <__ZN2SED2Ev+0xb1>
100002126:	66 2e 0f 1f 84 00 00 00 00 00 	nopw	%cs:(%rax,%rax)
100002130:	48 8d 58 e8 	leaq	-24(%rax), %rbx
100002134:	f6 40 e8 01 	testb	$1, -24(%rax)
100002138:	74 09 	je	9 <__ZN2SED2Ev+0xa3>
10000213a:	48 8b 78 f8 	movq	-8(%rax), %rdi
10000213e:	e8 1f 30 00 00 	callq	12319
100002143:	48 89 d8 	movq	%rbx, %rax
100002146:	49 39 df 	cmpq	%rbx, %r15
100002149:	75 e5 	jne	-27 <__ZN2SED2Ev+0x90>
10000214b:	49 8b 7e 48 	movq	72(%r14), %rdi
10000214f:	eb 03 	jmp	3 <__ZN2SED2Ev+0xb4>
100002151:	4c 89 ff 	movq	%r15, %rdi
100002154:	4d 89 7e 50 	movq	%r15, 80(%r14)
100002158:	e8 05 30 00 00 	callq	12293
10000215d:	4d 8b 7e 30 	movq	48(%r14), %r15
100002161:	4d 85 ff 	testq	%r15, %r15
100002164:	74 37 	je	55 <__ZN2SED2Ev+0xfd>
100002166:	49 8b 46 38 	movq	56(%r14), %rax
10000216a:	4c 39 f8 	cmpq	%r15, %rax
10000216d:	74 22 	je	34 <__ZN2SED2Ev+0xf1>
10000216f:	90 	nop
100002170:	48 8d 58 e8 	leaq	-24(%rax), %rbx
100002174:	f6 40 e8 01 	testb	$1, -24(%rax)
100002178:	74 09 	je	9 <__ZN2SED2Ev+0xe3>
10000217a:	48 8b 78 f8 	movq	-8(%rax), %rdi
10000217e:	e8 df 2f 00 00 	callq	12255
100002183:	48 89 d8 	movq	%rbx, %rax
100002186:	49 39 df 	cmpq	%rbx, %r15
100002189:	75 e5 	jne	-27 <__ZN2SED2Ev+0xd0>
10000218b:	49 8b 7e 30 	movq	48(%r14), %rdi
10000218f:	eb 03 	jmp	3 <__ZN2SED2Ev+0xf4>
100002191:	4c 89 ff 	movq	%r15, %rdi
100002194:	4d 89 7e 38 	movq	%r15, 56(%r14)
100002198:	e8 c5 2f 00 00 	callq	12229
10000219d:	4d 8b 7e 18 	movq	24(%r14), %r15
1000021a1:	4d 85 ff 	testq	%r15, %r15
1000021a4:	74 37 	je	55 <__ZN2SED2Ev+0x13d>
1000021a6:	49 8b 46 20 	movq	32(%r14), %rax
1000021aa:	4c 39 f8 	cmpq	%r15, %rax
1000021ad:	74 22 	je	34 <__ZN2SED2Ev+0x131>
1000021af:	90 	nop
1000021b0:	48 8d 58 e8 	leaq	-24(%rax), %rbx
1000021b4:	f6 40 e8 01 	testb	$1, -24(%rax)
1000021b8:	74 09 	je	9 <__ZN2SED2Ev+0x123>
1000021ba:	48 8b 78 f8 	movq	-8(%rax), %rdi
1000021be:	e8 9f 2f 00 00 	callq	12191
1000021c3:	48 89 d8 	movq	%rbx, %rax
1000021c6:	49 39 df 	cmpq	%rbx, %r15
1000021c9:	75 e5 	jne	-27 <__ZN2SED2Ev+0x110>
1000021cb:	49 8b 7e 18 	movq	24(%r14), %rdi
1000021cf:	eb 03 	jmp	3 <__ZN2SED2Ev+0x134>
1000021d1:	4c 89 ff 	movq	%r15, %rdi
1000021d4:	4d 89 7e 20 	movq	%r15, 32(%r14)
1000021d8:	e8 85 2f 00 00 	callq	12165
1000021dd:	4d 8b 3e 	movq	(%r14), %r15
1000021e0:	4d 85 ff 	testq	%r15, %r15
1000021e3:	74 2b 	je	43 <__ZN2SED2Ev+0x170>
1000021e5:	49 8b 46 08 	movq	8(%r14), %rax
1000021e9:	4c 39 f8 	cmpq	%r15, %rax
1000021ec:	74 2b 	je	43 <__ZN2SED2Ev+0x179>
1000021ee:	66 90 	nop
1000021f0:	48 8d 58 e8 	leaq	-24(%rax), %rbx
1000021f4:	f6 40 e8 01 	testb	$1, -24(%rax)
1000021f8:	74 09 	je	9 <__ZN2SED2Ev+0x163>
1000021fa:	48 8b 78 f8 	movq	-8(%rax), %rdi
1000021fe:	e8 5f 2f 00 00 	callq	12127
100002203:	48 89 d8 	movq	%rbx, %rax
100002206:	49 39 df 	cmpq	%rbx, %r15
100002209:	75 e5 	jne	-27 <__ZN2SED2Ev+0x150>
10000220b:	49 8b 3e 	movq	(%r14), %rdi
10000220e:	eb 0c 	jmp	12 <__ZN2SED2Ev+0x17c>
100002210:	5b 	popq	%rbx
100002211:	41 5c 	popq	%r12
100002213:	41 5e 	popq	%r14
100002215:	41 5f 	popq	%r15
100002217:	5d 	popq	%rbp
100002218:	c3 	retq
100002219:	4c 89 ff 	movq	%r15, %rdi
10000221c:	4d 89 7e 08 	movq	%r15, 8(%r14)
100002220:	5b 	popq	%rbx
100002221:	41 5c 	popq	%r12
100002223:	41 5e 	popq	%r14
100002225:	41 5f 	popq	%r15
100002227:	5d 	popq	%rbp
100002228:	e9 35 2f 00 00 	jmp	12085
10000222d:	0f 1f 00 	nopl	(%rax)

__ZN2SED1Ev:
100002230:	55 	pushq	%rbp
100002231:	48 89 e5 	movq	%rsp, %rbp
100002234:	5d 	popq	%rbp
100002235:	e9 66 fe ff ff 	jmp	-410 <__ZN2SED2Ev>
10000223a:	66 0f 1f 44 00 00 	nopw	(%rax,%rax)

__ZNSt3__1rsIcNS_11char_traitsIcEENS_9allocatorIcEEEERNS_13basic_istreamIT_T0_EES9_RNS_12basic_stringIS6_S7_T1_EE:
100002240:	55 	pushq	%rbp
100002241:	48 89 e5 	movq	%rsp, %rbp
100002244:	41 57 	pushq	%r15
100002246:	41 56 	pushq	%r14
100002248:	41 55 	pushq	%r13
10000224a:	41 54 	pushq	%r12
10000224c:	53 	pushq	%rbx
10000224d:	48 83 ec 18 	subq	$24, %rsp
100002251:	49 89 f6 	movq	%rsi, %r14
100002254:	49 89 fd 	movq	%rdi, %r13
100002257:	48 8d 7d d0 	leaq	-48(%rbp), %rdi
10000225b:	31 d2 	xorl	%edx, %edx
10000225d:	4c 89 ee 	movq	%r13, %rsi
100002260:	e8 8b 2e 00 00 	callq	11915
100002265:	80 7d d0 00 	cmpb	$0, -48(%rbp)
100002269:	74 0e 	je	14 <__ZNSt3__1rsIcNS_11char_traitsIcEENS_9allocatorIcEEEERNS_13basic_istreamIT_T0_EES9_RNS_12basic_stringIS6_S7_T1_EE+0x39>
10000226b:	41 f6 06 01 	testb	$1, (%r14)
10000226f:	75 27 	jne	39 <__ZNSt3__1rsIcNS_11char_traitsIcEENS_9allocatorIcEEEERNS_13basic_istreamIT_T0_EES9_RNS_12basic_stringIS6_S7_T1_EE+0x58>
100002271:	66 41 c7 06 00 00 	movw	$0, (%r14)
100002277:	eb 2e 	jmp	46 <__ZNSt3__1rsIcNS_11char_traitsIcEENS_9allocatorIcEEEERNS_13basic_istreamIT_T0_EES9_RNS_12basic_stringIS6_S7_T1_EE+0x67>
100002279:	49 8b 45 00 	movq	(%r13), %rax
10000227d:	48 8b 40 e8 	movq	-24(%rax), %rax
100002281:	49 8d 7c 05 00 	leaq	(%r13,%rax), %rdi
100002286:	41 8b 74 05 20 	movl	32(%r13,%rax), %esi
10000228b:	83 ce 04 	orl	$4, %esi
10000228e:	e8 b1 2e 00 00 	callq	11953
100002293:	e9 62 01 00 00 	jmp	354 <__ZNSt3__1rsIcNS_11char_traitsIcEENS_9allocatorIcEEEERNS_13basic_istreamIT_T0_EES9_RNS_12basic_stringIS6_S7_T1_EE+0x1ba>
100002298:	49 8b 46 10 	movq	16(%r14), %rax
10000229c:	c6 00 00 	movb	$0, (%rax)
10000229f:	49 c7 46 08 00 00 00 00 	movq	$0, 8(%r14)
1000022a7:	49 8b 45 00 	movq	(%r13), %rax
1000022ab:	48 8b 40 e8 	movq	-24(%rax), %rax
1000022af:	49 8d 74 05 00 	leaq	(%r13,%rax), %rsi
1000022b4:	49 8b 44 05 18 	movq	24(%r13,%rax), %rax
1000022b9:	48 85 c0 	testq	%rax, %rax
1000022bc:	49 bc ff ff ff ff ff ff ff 7f 	movabsq	$9223372036854775807, %r12
1000022c6:	4c 0f 4f e0 	cmovgq	%rax, %r12
1000022ca:	48 8d 7d c8 	leaq	-56(%rbp), %rdi
1000022ce:	e8 05 2e 00 00 	callq	11781
1000022d3:	48 8b 35 4e 3d 00 00 	movq	15694(%rip), %rsi
1000022da:	48 8d 7d c8 	leaq	-56(%rbp), %rdi
1000022de:	e8 ef 2d 00 00 	callq	11759
1000022e3:	49 89 c7 	movq	%rax, %r15
1000022e6:	48 8d 7d c8 	leaq	-56(%rbp), %rdi
1000022ea:	e8 43 2e 00 00 	callq	11843
1000022ef:	31 db 	xorl	%ebx, %ebx
1000022f1:	4d 85 e4 	testq	%r12, %r12
1000022f4:	0f 8e 8d 00 00 00 	jle	141 <__ZNSt3__1rsIcNS_11char_traitsIcEENS_9allocatorIcEEEERNS_13basic_istreamIT_T0_EES9_RNS_12basic_stringIS6_S7_T1_EE+0x147>
1000022fa:	66 0f 1f 44 00 00 	nopw	(%rax,%rax)
100002300:	49 8b 45 00 	movq	(%r13), %rax
100002304:	48 8b 40 e8 	movq	-24(%rax), %rax
100002308:	49 8b 7c 05 28 	movq	40(%r13,%rax), %rdi
10000230d:	48 8b 47 18 	movq	24(%rdi), %rax
100002311:	48 3b 47 20 	cmpq	32(%rdi), %rax
100002315:	74 09 	je	9 <__ZNSt3__1rsIcNS_11char_traitsIcEENS_9allocatorIcEEEERNS_13basic_istreamIT_T0_EES9_RNS_12basic_stringIS6_S7_T1_EE+0xe0>
100002317:	0f b6 00 	movzbl	(%rax), %eax
10000231a:	84 c0 	testb	%al, %al
10000231c:	79 15 	jns	21 <__ZNSt3__1rsIcNS_11char_traitsIcEENS_9allocatorIcEEEERNS_13basic_istreamIT_T0_EES9_RNS_12basic_stringIS6_S7_T1_EE+0xf3>
10000231e:	eb 22 	jmp	34 <__ZNSt3__1rsIcNS_11char_traitsIcEENS_9allocatorIcEEEERNS_13basic_istreamIT_T0_EES9_RNS_12basic_stringIS6_S7_T1_EE+0x102>
100002320:	48 8b 07 	movq	(%rdi), %rax
100002323:	ff 50 48 	callq	*72(%rax)
100002326:	83 f8 ff 	cmpl	$-1, %eax
100002329:	0f 84 8b 00 00 00 	je	139 <__ZNSt3__1rsIcNS_11char_traitsIcEENS_9allocatorIcEEEERNS_13basic_istreamIT_T0_EES9_RNS_12basic_stringIS6_S7_T1_EE+0x17a>
10000232f:	84 c0 	testb	%al, %al
100002331:	78 0f 	js	15 <__ZNSt3__1rsIcNS_11char_traitsIcEENS_9allocatorIcEEEERNS_13basic_istreamIT_T0_EES9_RNS_12basic_stringIS6_S7_T1_EE+0x102>
100002333:	49 8b 4f 10 	movq	16(%r15), %rcx
100002337:	48 0f be d0 	movsbq	%al, %rdx
10000233b:	f6 44 91 01 40 	testb	$64, 1(%rcx,%rdx,4)
100002340:	75 45 	jne	69 <__ZNSt3__1rsIcNS_11char_traitsIcEENS_9allocatorIcEEEERNS_13basic_istreamIT_T0_EES9_RNS_12basic_stringIS6_S7_T1_EE+0x147>
100002342:	0f be f0 	movsbl	%al, %esi
100002345:	4c 89 f7 	movq	%r14, %rdi
100002348:	e8 91 2d 00 00 	callq	11665
10000234d:	49 8b 45 00 	movq	(%r13), %rax
100002351:	48 8b 40 e8 	movq	-24(%rax), %rax
100002355:	49 8b 7c 05 28 	movq	40(%r13,%rax), %rdi
10000235a:	48 8b 47 18 	movq	24(%rdi), %rax
10000235e:	48 3b 47 20 	cmpq	32(%rdi), %rax
100002362:	74 0c 	je	12 <__ZNSt3__1rsIcNS_11char_traitsIcEENS_9allocatorIcEEEERNS_13basic_istreamIT_T0_EES9_RNS_12basic_stringIS6_S7_T1_EE+0x130>
100002364:	48 ff c0 	incq	%rax
100002367:	48 89 47 18 	movq	%rax, 24(%rdi)
10000236b:	eb 09 	jmp	9 <__ZNSt3__1rsIcNS_11char_traitsIcEENS_9allocatorIcEEEERNS_13basic_istreamIT_T0_EES9_RNS_12basic_stringIS6_S7_T1_EE+0x136>
10000236d:	0f 1f 00 	nopl	(%rax)
100002370:	48 8b 07 	movq	(%rdi), %rax
100002373:	ff 50 50 	callq	*80(%rax)
100002376:	48 ff c3 	incq	%rbx
100002379:	4c 39 e3 	cmpq	%r12, %rbx
10000237c:	7c 82 	jl	-126 <__ZNSt3__1rsIcNS_11char_traitsIcEENS_9allocatorIcEEEERNS_13basic_istreamIT_T0_EES9_RNS_12basic_stringIS6_S7_T1_EE+0xc0>
10000237e:	31 c0 	xorl	%eax, %eax
100002380:	bb 01 00 00 00 	movl	$1, %ebx
100002385:	eb 02 	jmp	2 <__ZNSt3__1rsIcNS_11char_traitsIcEENS_9allocatorIcEEEERNS_13basic_istreamIT_T0_EES9_RNS_12basic_stringIS6_S7_T1_EE+0x149>
100002387:	31 c0 	xorl	%eax, %eax
100002389:	49 8b 4d 00 	movq	(%r13), %rcx
10000238d:	48 8b 51 e8 	movq	-24(%rcx), %rdx
100002391:	49 c7 44 15 18 00 00 00 00 	movq	$0, 24(%r13,%rdx)
10000239a:	89 c6 	movl	%eax, %esi
10000239c:	83 ce 04 	orl	$4, %esi
10000239f:	48 85 db 	testq	%rbx, %rbx
1000023a2:	0f 45 f0 	cmovnel	%eax, %esi
1000023a5:	48 8b 41 e8 	movq	-24(%rcx), %rax
1000023a9:	49 8d 7c 05 00 	leaq	(%r13,%rax), %rdi
1000023ae:	41 0b 74 05 20 	orl	32(%r13,%rax), %esi
1000023b3:	e8 8c 2d 00 00 	callq	11660
1000023b8:	eb 40 	jmp	64 <__ZNSt3__1rsIcNS_11char_traitsIcEENS_9allocatorIcEEEERNS_13basic_istreamIT_T0_EES9_RNS_12basic_stringIS6_S7_T1_EE+0x1ba>
1000023ba:	b8 02 00 00 00 	movl	$2, %eax
1000023bf:	eb c8 	jmp	-56 <__ZNSt3__1rsIcNS_11char_traitsIcEENS_9allocatorIcEEEERNS_13basic_istreamIT_T0_EES9_RNS_12basic_stringIS6_S7_T1_EE+0x149>
1000023c1:	eb 14 	jmp	20 <__ZNSt3__1rsIcNS_11char_traitsIcEENS_9allocatorIcEEEERNS_13basic_istreamIT_T0_EES9_RNS_12basic_stringIS6_S7_T1_EE+0x197>
1000023c3:	49 89 c6 	movq	%rax, %r14
1000023c6:	48 8d 7d c8 	leaq	-56(%rbp), %rdi
1000023ca:	e8 63 2d 00 00 	callq	11619
1000023cf:	eb 09 	jmp	9 <__ZNSt3__1rsIcNS_11char_traitsIcEENS_9allocatorIcEEEERNS_13basic_istreamIT_T0_EES9_RNS_12basic_stringIS6_S7_T1_EE+0x19a>
1000023d1:	eb 04 	jmp	4 <__ZNSt3__1rsIcNS_11char_traitsIcEENS_9allocatorIcEEEERNS_13basic_istreamIT_T0_EES9_RNS_12basic_stringIS6_S7_T1_EE+0x197>
1000023d3:	eb 02 	jmp	2 <__ZNSt3__1rsIcNS_11char_traitsIcEENS_9allocatorIcEEEERNS_13basic_istreamIT_T0_EES9_RNS_12basic_stringIS6_S7_T1_EE+0x197>
1000023d5:	eb 00 	jmp	0 <__ZNSt3__1rsIcNS_11char_traitsIcEENS_9allocatorIcEEEERNS_13basic_istreamIT_T0_EES9_RNS_12basic_stringIS6_S7_T1_EE+0x197>
1000023d7:	49 89 c6 	movq	%rax, %r14
1000023da:	4d 89 ef 	movq	%r13, %r15
1000023dd:	4c 89 f7 	movq	%r14, %rdi
1000023e0:	e8 9b 2d 00 00 	callq	11675
1000023e5:	49 8b 45 00 	movq	(%r13), %rax
1000023e9:	4c 03 78 e8 	addq	-24(%rax), %r15
1000023ed:	4c 89 ff 	movq	%r15, %rdi
1000023f0:	e8 43 2d 00 00 	callq	11587
1000023f5:	e8 92 2d 00 00 	callq	11666
1000023fa:	4c 89 e8 	movq	%r13, %rax
1000023fd:	48 83 c4 18 	addq	$24, %rsp
100002401:	5b 	popq	%rbx
100002402:	41 5c 	popq	%r12
100002404:	41 5d 	popq	%r13
100002406:	41 5e 	popq	%r14
100002408:	41 5f 	popq	%r15
10000240a:	5d 	popq	%rbp
10000240b:	c3 	retq
10000240c:	48 89 c3 	movq	%rax, %rbx
10000240f:	e8 78 2d 00 00 	callq	11640
100002414:	48 89 df 	movq	%rbx, %rdi
100002417:	e8 a4 2c 00 00 	callq	11428
10000241c:	0f 0b 	ud2
10000241e:	48 89 c7 	movq	%rax, %rdi
100002421:	e8 6a f3 ff ff 	callq	-3222 <___clang_call_terminate>
100002426:	66 2e 0f 1f 84 00 00 00 00 00 	nopw	%cs:(%rax,%rax)

__ZNSt3__114basic_ifstreamIcNS_11char_traitsIcEEED1Ev:
100002430:	55 	pushq	%rbp
100002431:	48 89 e5 	movq	%rsp, %rbp
100002434:	41 57 	pushq	%r15
100002436:	41 56 	pushq	%r14
100002438:	53 	pushq	%rbx
100002439:	50 	pushq	%rax
10000243a:	48 89 fb 	movq	%rdi, %rbx
10000243d:	48 8b 05 1c 3c 00 00 	movq	15388(%rip), %rax
100002444:	48 8d 48 18 	leaq	24(%rax), %rcx
100002448:	48 89 0b 	movq	%rcx, (%rbx)
10000244b:	4c 8d b3 a8 01 00 00 	leaq	424(%rbx), %r14
100002452:	48 83 c0 40 	addq	$64, %rax
100002456:	48 89 83 a8 01 00 00 	movq	%rax, 424(%rbx)
10000245d:	48 8d 7b 10 	leaq	16(%rbx), %rdi
100002461:	e8 ba 09 00 00 	callq	2490 <__ZNSt3__113basic_filebufIcNS_11char_traitsIcEEED2Ev>
100002466:	48 8b 35 e3 3b 00 00 	movq	15331(%rip), %rsi
10000246d:	48 83 c6 08 	addq	$8, %rsi
100002471:	48 89 df 	movq	%rbx, %rdi
100002474:	e8 7d 2c 00 00 	callq	11389
100002479:	4c 89 f7 	movq	%r14, %rdi
10000247c:	48 83 c4 08 	addq	$8, %rsp
100002480:	5b 	popq	%rbx
100002481:	41 5e 	popq	%r14
100002483:	41 5f 	popq	%r15
100002485:	5d 	popq	%rbp
100002486:	e9 bf 2c 00 00 	jmp	11455
10000248b:	49 89 c7 	movq	%rax, %r15
10000248e:	eb 16 	jmp	22 <__ZNSt3__114basic_ifstreamIcNS_11char_traitsIcEEED1Ev+0x76>
100002490:	49 89 c7 	movq	%rax, %r15
100002493:	48 8b 35 b6 3b 00 00 	movq	15286(%rip), %rsi
10000249a:	48 83 c6 08 	addq	$8, %rsi
10000249e:	48 89 df 	movq	%rbx, %rdi
1000024a1:	e8 50 2c 00 00 	callq	11344
1000024a6:	4c 89 f7 	movq	%r14, %rdi
1000024a9:	e8 9c 2c 00 00 	callq	11420
1000024ae:	4c 89 ff 	movq	%r15, %rdi
1000024b1:	e8 0a 2c 00 00 	callq	11274
1000024b6:	0f 0b 	ud2
1000024b8:	48 89 c7 	movq	%rax, %rdi
1000024bb:	e8 d0 f2 ff ff 	callq	-3376 <___clang_call_terminate>
1000024c0:	48 89 c7 	movq	%rax, %rdi
1000024c3:	e8 c8 f2 ff ff 	callq	-3384 <___clang_call_terminate>
1000024c8:	0f 1f 84 00 00 00 00 00 	nopl	(%rax,%rax)

__ZN2SE9get_inputEv:
1000024d0:	55 	pushq	%rbp
1000024d1:	48 89 e5 	movq	%rsp, %rbp
1000024d4:	41 57 	pushq	%r15
1000024d6:	41 56 	pushq	%r14
1000024d8:	41 55 	pushq	%r13
1000024da:	41 54 	pushq	%r12
1000024dc:	53 	pushq	%rbx
1000024dd:	50 	pushq	%rax
1000024de:	49 89 fe 	movq	%rdi, %r14
1000024e1:	48 8b 3d 38 3b 00 00 	movq	15160(%rip), %rdi
1000024e8:	48 8d 35 38 38 00 00 	leaq	14392(%rip), %rsi
1000024ef:	ba 1b 00 00 00 	movl	$27, %edx
1000024f4:	e8 d7 ef ff ff 	callq	-4137 <__ZNSt3__124__put_character_sequenceIcNS_11char_traitsIcEEEERNS_13basic_ostreamIT_T0_EES7_PKS4_m>
1000024f9:	48 89 c3 	movq	%rax, %rbx
1000024fc:	48 8b 03 	movq	(%rbx), %rax
1000024ff:	48 8b 70 e8 	movq	-24(%rax), %rsi
100002503:	48 01 de 	addq	%rbx, %rsi
100002506:	4c 8d 7d d0 	leaq	-48(%rbp), %r15
10000250a:	4c 89 ff 	movq	%r15, %rdi
10000250d:	e8 c6 2b 00 00 	callq	11206
100002512:	48 8b 35 0f 3b 00 00 	movq	15119(%rip), %rsi
100002519:	4c 89 ff 	movq	%r15, %rdi
10000251c:	e8 b1 2b 00 00 	callq	11185
100002521:	48 8b 08 	movq	(%rax), %rcx
100002524:	be 0a 00 00 00 	movl	$10, %esi
100002529:	48 89 c7 	movq	%rax, %rdi
10000252c:	ff 51 38 	callq	*56(%rcx)
10000252f:	41 89 c7 	movl	%eax, %r15d
100002532:	48 8d 7d d0 	leaq	-48(%rbp), %rdi
100002536:	e8 f7 2b 00 00 	callq	11255
10000253b:	41 0f be f7 	movsbl	%r15b, %esi
10000253f:	48 89 df 	movq	%rbx, %rdi
100002542:	e8 bb 2b 00 00 	callq	11195
100002547:	48 89 df 	movq	%rbx, %rdi
10000254a:	e8 b9 2b 00 00 	callq	11193
10000254f:	4d 8d 7e 60 	leaq	96(%r14), %r15
100002553:	4c 8b 25 b6 3a 00 00 	movq	15030(%rip), %r12
10000255a:	41 bd 00 01 00 00 	movl	$256, %r13d
100002560:	eb 19 	jmp	25 <__ZN2SE9get_inputEv+0xab>
100002562:	66 66 66 66 66 2e 0f 1f 84 00 00 00 00 00 	nopw	%cs:(%rax,%rax)
100002570:	0f be f3 	movsbl	%bl, %esi
100002573:	4c 89 ff 	movq	%r15, %rdi
100002576:	e8 63 2b 00 00 	callq	11107
10000257b:	41 0f b6 07 	movzbl	(%r15), %eax
10000257f:	a8 01 	testb	$1, %al
100002581:	75 1d 	jne	29 <__ZN2SE9get_inputEv+0xd0>
100002583:	89 c1 	movl	%eax, %ecx
100002585:	d0 e9 	shrb	%cl
100002587:	0f b6 c9 	movzbl	%cl, %ecx
10000258a:	48 83 f9 19 	cmpq	$25, %rcx
10000258e:	75 1a 	jne	26 <__ZN2SE9get_inputEv+0xda>
100002590:	eb 4f 	jmp	79 <__ZN2SE9get_inputEv+0x111>
100002592:	66 66 66 66 66 2e 0f 1f 84 00 00 00 00 00 	nopw	%cs:(%rax,%rax)
1000025a0:	49 8b 4e 68 	movq	104(%r14), %rcx
1000025a4:	48 83 f9 19 	cmpq	$25, %rcx
1000025a8:	74 37 	je	55 <__ZN2SE9get_inputEv+0x111>
1000025aa:	e8 25 2c 00 00 	callq	11301
1000025af:	89 c3 	movl	%eax, %ebx
1000025b1:	0f be fb 	movsbl	%bl, %edi
1000025b4:	83 ff 7f 	cmpl	$127, %edi
1000025b7:	76 17 	jbe	23 <__ZN2SE9get_inputEv+0x100>
1000025b9:	be 00 01 00 00 	movl	$256, %esi
1000025be:	e8 d5 2b 00 00 	callq	11221
1000025c3:	85 c0 	testl	%eax, %eax
1000025c5:	74 b4 	je	-76 <__ZN2SE9get_inputEv+0xab>
1000025c7:	eb a7 	jmp	-89 <__ZN2SE9get_inputEv+0xa0>
1000025c9:	0f 1f 80 00 00 00 00 	nopl	(%rax)
1000025d0:	48 63 c7 	movslq	%edi, %rax
1000025d3:	41 8b 44 84 3c 	movl	60(%r12,%rax,4), %eax
1000025d8:	44 21 e8 	andl	%r13d, %eax
1000025db:	85 c0 	testl	%eax, %eax
1000025dd:	74 9c 	je	-100 <__ZN2SE9get_inputEv+0xab>
1000025df:	eb 8f 	jmp	-113 <__ZN2SE9get_inputEv+0xa0>
1000025e1:	a8 01 	testb	$1, %al
1000025e3:	74 0a 	je	10 <__ZN2SE9get_inputEv+0x11f>
1000025e5:	4d 8b 7e 70 	movq	112(%r14), %r15
1000025e9:	49 8b 56 68 	movq	104(%r14), %rdx
1000025ed:	eb 08 	jmp	8 <__ZN2SE9get_inputEv+0x127>
1000025ef:	49 ff c7 	incq	%r15
1000025f2:	d0 e8 	shrb	%al
1000025f4:	0f b6 d0 	movzbl	%al, %edx
1000025f7:	48 8b 3d 22 3a 00 00 	movq	14882(%rip), %rdi
1000025fe:	4c 89 fe 	movq	%r15, %rsi
100002601:	e8 ca ee ff ff 	callq	-4406 <__ZNSt3__124__put_character_sequenceIcNS_11char_traitsIcEEEERNS_13basic_ostreamIT_T0_EES7_PKS4_m>
100002606:	48 89 c3 	movq	%rax, %rbx
100002609:	48 8b 03 	movq	(%rbx), %rax
10000260c:	48 8b 70 e8 	movq	-24(%rax), %rsi
100002610:	48 01 de 	addq	%rbx, %rsi
100002613:	4c 8d 75 d0 	leaq	-48(%rbp), %r14
100002617:	4c 89 f7 	movq	%r14, %rdi
10000261a:	e8 b9 2a 00 00 	callq	10937
10000261f:	48 8b 35 02 3a 00 00 	movq	14850(%rip), %rsi
100002626:	4c 89 f7 	movq	%r14, %rdi
100002629:	e8 a4 2a 00 00 	callq	10916
10000262e:	48 8b 08 	movq	(%rax), %rcx
100002631:	be 0a 00 00 00 	movl	$10, %esi
100002636:	48 89 c7 	movq	%rax, %rdi
100002639:	ff 51 38 	callq	*56(%rcx)
10000263c:	41 89 c6 	movl	%eax, %r14d
10000263f:	48 8d 7d d0 	leaq	-48(%rbp), %rdi
100002643:	e8 ea 2a 00 00 	callq	10986
100002648:	41 0f be f6 	movsbl	%r14b, %esi
10000264c:	48 89 df 	movq	%rbx, %rdi
10000264f:	e8 ae 2a 00 00 	callq	10926
100002654:	48 89 df 	movq	%rbx, %rdi
100002657:	e8 ac 2a 00 00 	callq	10924
10000265c:	48 83 c4 08 	addq	$8, %rsp
100002660:	5b 	popq	%rbx
100002661:	41 5c 	popq	%r12
100002663:	41 5d 	popq	%r13
100002665:	41 5e 	popq	%r14
100002667:	41 5f 	popq	%r15
100002669:	5d 	popq	%rbp
10000266a:	c3 	retq
10000266b:	48 89 c3 	movq	%rax, %rbx
10000266e:	48 8d 7d d0 	leaq	-48(%rbp), %rdi
100002672:	e8 bb 2a 00 00 	callq	10939
100002677:	eb 14 	jmp	20 <__ZN2SE9get_inputEv+0x1bd>
100002679:	48 89 c7 	movq	%rax, %rdi
10000267c:	e8 0f f1 ff ff 	callq	-3825 <___clang_call_terminate>
100002681:	48 89 c3 	movq	%rax, %rbx
100002684:	48 8d 7d d0 	leaq	-48(%rbp), %rdi
100002688:	e8 a5 2a 00 00 	callq	10917
10000268d:	48 89 df 	movq	%rbx, %rdi
100002690:	e8 2b 2a 00 00 	callq	10795
100002695:	0f 0b 	ud2
100002697:	48 89 c7 	movq	%rax, %rdi
10000269a:	e8 f1 f0 ff ff 	callq	-3855 <___clang_call_terminate>
10000269f:	90 	nop

__ZN2SE11search_dictEv:
1000026a0:	55 	pushq	%rbp
1000026a1:	48 89 e5 	movq	%rsp, %rbp
1000026a4:	41 57 	pushq	%r15
1000026a6:	41 56 	pushq	%r14
1000026a8:	41 55 	pushq	%r13
1000026aa:	41 54 	pushq	%r12
1000026ac:	53 	pushq	%rbx
1000026ad:	48 83 ec 48 	subq	$72, %rsp
1000026b1:	49 89 fe 	movq	%rdi, %r14
1000026b4:	48 8b 3d 65 39 00 00 	movq	14693(%rip), %rdi
1000026bb:	48 8d 35 81 36 00 00 	leaq	13953(%rip), %rsi
1000026c2:	ba 14 00 00 00 	movl	$20, %edx
1000026c7:	e8 04 ee ff ff 	callq	-4604 <__ZNSt3__124__put_character_sequenceIcNS_11char_traitsIcEEEERNS_13basic_ostreamIT_T0_EES7_PKS4_m>
1000026cc:	48 89 c3 	movq	%rax, %rbx
1000026cf:	48 8b 03 	movq	(%rbx), %rax
1000026d2:	48 8b 70 e8 	movq	-24(%rax), %rsi
1000026d6:	48 01 de 	addq	%rbx, %rsi
1000026d9:	4c 8d 7d c0 	leaq	-64(%rbp), %r15
1000026dd:	4c 89 ff 	movq	%r15, %rdi
1000026e0:	e8 f3 29 00 00 	callq	10739
1000026e5:	48 8b 35 3c 39 00 00 	movq	14652(%rip), %rsi
1000026ec:	4c 89 ff 	movq	%r15, %rdi
1000026ef:	e8 de 29 00 00 	callq	10718
1000026f4:	48 8b 08 	movq	(%rax), %rcx
1000026f7:	be 0a 00 00 00 	movl	$10, %esi
1000026fc:	48 89 c7 	movq	%rax, %rdi
1000026ff:	ff 51 38 	callq	*56(%rcx)
100002702:	41 89 c7 	movl	%eax, %r15d
100002705:	48 8d 7d c0 	leaq	-64(%rbp), %rdi
100002709:	e8 24 2a 00 00 	callq	10788
10000270e:	41 0f be f7 	movsbl	%r15b, %esi
100002712:	48 89 df 	movq	%rbx, %rdi
100002715:	e8 e8 29 00 00 	callq	10728
10000271a:	48 89 df 	movq	%rbx, %rdi
10000271d:	e8 e6 29 00 00 	callq	10726
100002722:	49 8b 46 78 	movq	120(%r14), %rax
100002726:	4c 8b 28 	movq	(%rax), %r13
100002729:	48 8b 40 08 	movq	8(%rax), %rax
10000272d:	48 89 45 98 	movq	%rax, -104(%rbp)
100002731:	49 39 c5 	cmpq	%rax, %r13
100002734:	0f 84 1e 02 00 00 	je	542 <__ZN2SE11search_dictEv+0x2b8>
10000273a:	49 8d 46 60 	leaq	96(%r14), %rax
10000273e:	48 89 45 a0 	movq	%rax, -96(%rbp)
100002742:	4c 8d 65 c1 	leaq	-63(%rbp), %r12
100002746:	49 8d 46 18 	leaq	24(%r14), %rax
10000274a:	48 89 45 a8 	movq	%rax, -88(%rbp)
10000274e:	49 8d 46 30 	leaq	48(%r14), %rax
100002752:	48 89 45 b0 	movq	%rax, -80(%rbp)
100002756:	49 8d 46 48 	leaq	72(%r14), %rax
10000275a:	48 89 45 b8 	movq	%rax, -72(%rbp)
10000275e:	45 31 ff 	xorl	%r15d, %r15d
100002761:	66 66 66 66 66 66 2e 0f 1f 84 00 00 00 00 00 	nopw	%cs:(%rax,%rax)
100002770:	48 8d 7d c0 	leaq	-64(%rbp), %rdi
100002774:	48 8b 75 a0 	movq	-96(%rbp), %rsi
100002778:	e8 67 29 00 00 	callq	10599
10000277d:	41 8a 55 00 	movb	(%r13), %dl
100002781:	f6 c2 01 	testb	$1, %dl
100002784:	75 2a 	jne	42 <__ZN2SE11search_dictEv+0x110>
100002786:	4d 8d 4d 01 	leaq	1(%r13), %r9
10000278a:	89 d0 	movl	%edx, %eax
10000278c:	d0 e8 	shrb	%al
10000278e:	44 0f b6 c0 	movzbl	%al, %r8d
100002792:	4d 85 c0 	testq	%r8, %r8
100002795:	75 26 	jne	38 <__ZN2SE11search_dictEv+0x11d>
100002797:	f6 c2 01 	testb	$1, %dl
10000279a:	0f 85 bc 00 00 00 	jne	188 <__ZN2SE11search_dictEv+0x1bc>
1000027a0:	d0 ea 	shrb	%dl
1000027a2:	0f b6 c2 	movzbl	%dl, %eax
1000027a5:	e9 b6 00 00 00 	jmp	182 <__ZN2SE11search_dictEv+0x1c0>
1000027aa:	66 0f 1f 44 00 00 	nopw	(%rax,%rax)
1000027b0:	4d 8b 45 08 	movq	8(%r13), %r8
1000027b4:	4d 8b 4d 10 	movq	16(%r13), %r9
1000027b8:	4d 85 c0 	testq	%r8, %r8
1000027bb:	74 da 	je	-38 <__ZN2SE11search_dictEv+0xf7>
1000027bd:	4d 01 c8 	addq	%r9, %r8
1000027c0:	45 8a 11 	movb	(%r9), %r10b
1000027c3:	8a 45 c0 	movb	-64(%rbp), %al
1000027c6:	a8 01 	testb	$1, %al
1000027c8:	74 16 	je	22 <__ZN2SE11search_dictEv+0x140>
1000027ca:	48 8b 4d d0 	movq	-48(%rbp), %rcx
1000027ce:	4c 8b 5d c8 	movq	-56(%rbp), %r11
1000027d2:	4d 85 db 	testq	%r11, %r11
1000027d5:	75 1b 	jne	27 <__ZN2SE11search_dictEv+0x152>
1000027d7:	e9 14 01 00 00 	jmp	276 <__ZN2SE11search_dictEv+0x250>
1000027dc:	0f 1f 40 00 	nopl	(%rax)
1000027e0:	d0 e8 	shrb	%al
1000027e2:	44 0f b6 d8 	movzbl	%al, %r11d
1000027e6:	4c 89 e1 	movq	%r12, %rcx
1000027e9:	4d 85 db 	testq	%r11, %r11
1000027ec:	0f 84 fe 00 00 00 	je	254 <__ZN2SE11search_dictEv+0x250>
1000027f2:	49 8d 5b ff 	leaq	-1(%r11), %rbx
1000027f6:	31 c0 	xorl	%eax, %eax
1000027f8:	48 89 ce 	movq	%rcx, %rsi
1000027fb:	0f 1f 44 00 00 	nopl	(%rax,%rax)
100002800:	48 8d 7b ff 	leaq	-1(%rbx), %rdi
100002804:	44 38 16 	cmpb	%r10b, (%rsi)
100002807:	48 8d 76 01 	leaq	1(%rsi), %rsi
10000280b:	b2 01 	movb	$1, %dl
10000280d:	74 02 	je	2 <__ZN2SE11search_dictEv+0x171>
10000280f:	89 c2 	movl	%eax, %edx
100002811:	74 0a 	je	10 <__ZN2SE11search_dictEv+0x17d>
100002813:	48 85 db 	testq	%rbx, %rbx
100002816:	48 89 fb 	movq	%rdi, %rbx
100002819:	89 d0 	movl	%edx, %eax
10000281b:	75 e3 	jne	-29 <__ZN2SE11search_dictEv+0x160>
10000281d:	f6 c2 01 	testb	$1, %dl
100002820:	0f 84 ca 00 00 00 	je	202 <__ZN2SE11search_dictEv+0x250>
100002826:	4d 85 db 	testq	%r11, %r11
100002829:	74 18 	je	24 <__ZN2SE11search_dictEv+0x1a3>
10000282b:	0f 1f 44 00 00 	nopl	(%rax,%rax)
100002830:	44 38 11 	cmpb	%r10b, (%rcx)
100002833:	74 0b 	je	11 <__ZN2SE11search_dictEv+0x1a0>
100002835:	48 ff c1 	incq	%rcx
100002838:	49 ff cb 	decq	%r11
10000283b:	75 f3 	jne	-13 <__ZN2SE11search_dictEv+0x190>
10000283d:	eb 04 	jmp	4 <__ZN2SE11search_dictEv+0x1a3>
10000283f:	90 	nop
100002840:	c6 01 7c 	movb	$124, (%rcx)
100002843:	49 ff c1 	incq	%r9
100002846:	4d 39 c1 	cmpq	%r8, %r9
100002849:	0f 85 71 ff ff ff 	jne	-143 <__ZN2SE11search_dictEv+0x120>
10000284f:	41 8a 55 00 	movb	(%r13), %dl
100002853:	f6 c2 01 	testb	$1, %dl
100002856:	0f 84 44 ff ff ff 	je	-188 <__ZN2SE11search_dictEv+0x100>
10000285c:	49 8b 45 08 	movq	8(%r13), %rax
100002860:	41 ff c7 	incl	%r15d
100002863:	83 f8 05 	cmpl	$5, %eax
100002866:	7f 28 	jg	40 <__ZN2SE11search_dictEv+0x1f0>
100002868:	49 8b 7e 08 	movq	8(%r14), %rdi
10000286c:	49 3b 7e 10 	cmpq	16(%r14), %rdi
100002870:	74 6a 	je	106 <__ZN2SE11search_dictEv+0x23c>
100002872:	4c 89 ee 	movq	%r13, %rsi
100002875:	e8 6a 28 00 00 	callq	10346
10000287a:	49 83 46 08 18 	addq	$24, 8(%r14)
10000287f:	f6 45 c0 01 	testb	$1, -64(%rbp)
100002883:	75 71 	jne	113 <__ZN2SE11search_dictEv+0x256>
100002885:	eb 78 	jmp	120 <__ZN2SE11search_dictEv+0x25f>
100002887:	66 0f 1f 84 00 00 00 00 00 	nopw	(%rax,%rax)
100002890:	83 f8 09 	cmpl	$9, %eax
100002893:	7f 23 	jg	35 <__ZN2SE11search_dictEv+0x218>
100002895:	49 8b 7e 20 	movq	32(%r14), %rdi
100002899:	49 3b 7e 28 	cmpq	40(%r14), %rdi
10000289d:	0f 84 8b 00 00 00 	je	139 <__ZN2SE11search_dictEv+0x28e>
1000028a3:	4c 89 ee 	movq	%r13, %rsi
1000028a6:	e8 39 28 00 00 	callq	10297
1000028ab:	49 83 46 20 18 	addq	$24, 32(%r14)
1000028b0:	f6 45 c0 01 	testb	$1, -64(%rbp)
1000028b4:	75 40 	jne	64 <__ZN2SE11search_dictEv+0x256>
1000028b6:	eb 47 	jmp	71 <__ZN2SE11search_dictEv+0x25f>
1000028b8:	83 f8 0f 	cmpl	$15, %eax
1000028bb:	7f 52 	jg	82 <__ZN2SE11search_dictEv+0x26f>
1000028bd:	49 8b 7e 38 	movq	56(%r14), %rdi
1000028c1:	49 3b 7e 40 	cmpq	64(%r14), %rdi
1000028c5:	74 75 	je	117 <__ZN2SE11search_dictEv+0x29c>
1000028c7:	4c 89 ee 	movq	%r13, %rsi
1000028ca:	e8 15 28 00 00 	callq	10261
1000028cf:	49 83 46 38 18 	addq	$24, 56(%r14)
1000028d4:	f6 45 c0 01 	testb	$1, -64(%rbp)
1000028d8:	75 1c 	jne	28 <__ZN2SE11search_dictEv+0x256>
1000028da:	eb 23 	jmp	35 <__ZN2SE11search_dictEv+0x25f>
1000028dc:	4c 89 f7 	movq	%r14, %rdi
1000028df:	4c 89 ee 	movq	%r13, %rsi
1000028e2:	e8 79 14 00 00 	callq	5241 <__ZNSt3__16vectorINS_12basic_stringIcNS_11char_traitsIcEENS_9allocatorIcEEEENS4_IS6_EEE21__push_back_slow_pathIKS6_EEvRT_>
1000028e7:	66 0f 1f 84 00 00 00 00 00 	nopw	(%rax,%rax)
1000028f0:	f6 45 c0 01 	testb	$1, -64(%rbp)
1000028f4:	74 09 	je	9 <__ZN2SE11search_dictEv+0x25f>
1000028f6:	48 8b 7d d0 	movq	-48(%rbp), %rdi
1000028fa:	e8 63 28 00 00 	callq	10339
1000028ff:	49 83 c5 18 	addq	$24, %r13
100002903:	4c 3b 6d 98 	cmpq	-104(%rbp), %r13
100002907:	0f 85 63 fe ff ff 	jne	-413 <__ZN2SE11search_dictEv+0xd0>
10000290d:	eb 4c 	jmp	76 <__ZN2SE11search_dictEv+0x2bb>
10000290f:	49 8b 7e 50 	movq	80(%r14), %rdi
100002913:	49 3b 7e 58 	cmpq	88(%r14), %rdi
100002917:	74 31 	je	49 <__ZN2SE11search_dictEv+0x2aa>
100002919:	4c 89 ee 	movq	%r13, %rsi
10000291c:	e8 c3 27 00 00 	callq	10179
100002921:	49 83 46 50 18 	addq	$24, 80(%r14)
100002926:	f6 45 c0 01 	testb	$1, -64(%rbp)
10000292a:	75 ca 	jne	-54 <__ZN2SE11search_dictEv+0x256>
10000292c:	eb d1 	jmp	-47 <__ZN2SE11search_dictEv+0x25f>
10000292e:	48 8b 7d a8 	movq	-88(%rbp), %rdi
100002932:	4c 89 ee 	movq	%r13, %rsi
100002935:	e8 26 14 00 00 	callq	5158 <__ZNSt3__16vectorINS_12basic_stringIcNS_11char_traitsIcEENS_9allocatorIcEEEENS4_IS6_EEE21__push_back_slow_pathIKS6_EEvRT_>
10000293a:	eb b4 	jmp	-76 <__ZN2SE11search_dictEv+0x250>
10000293c:	48 8b 7d b0 	movq	-80(%rbp), %rdi
100002940:	4c 89 ee 	movq	%r13, %rsi
100002943:	e8 18 14 00 00 	callq	5144 <__ZNSt3__16vectorINS_12basic_stringIcNS_11char_traitsIcEENS_9allocatorIcEEEENS4_IS6_EEE21__push_back_slow_pathIKS6_EEvRT_>
100002948:	eb a6 	jmp	-90 <__ZN2SE11search_dictEv+0x250>
10000294a:	48 8b 7d b8 	movq	-72(%rbp), %rdi
10000294e:	4c 89 ee 	movq	%r13, %rsi
100002951:	e8 0a 14 00 00 	callq	5130 <__ZNSt3__16vectorINS_12basic_stringIcNS_11char_traitsIcEENS_9allocatorIcEEEENS4_IS6_EEE21__push_back_slow_pathIKS6_EEvRT_>
100002956:	eb 98 	jmp	-104 <__ZN2SE11search_dictEv+0x250>
100002958:	45 31 ff 	xorl	%r15d, %r15d
10000295b:	48 8b 3d be 36 00 00 	movq	14014(%rip), %rdi
100002962:	44 89 fe 	movl	%r15d, %esi
100002965:	e8 b0 27 00 00 	callq	10160
10000296a:	48 8d 35 e7 33 00 00 	leaq	13287(%rip), %rsi
100002971:	ba 0d 00 00 00 	movl	$13, %edx
100002976:	48 89 c7 	movq	%rax, %rdi
100002979:	e8 52 eb ff ff 	callq	-5294 <__ZNSt3__124__put_character_sequenceIcNS_11char_traitsIcEEEERNS_13basic_ostreamIT_T0_EES7_PKS4_m>
10000297e:	48 89 c3 	movq	%rax, %rbx
100002981:	48 8b 03 	movq	(%rbx), %rax
100002984:	48 8b 70 e8 	movq	-24(%rax), %rsi
100002988:	48 01 de 	addq	%rbx, %rsi
10000298b:	4c 8d 75 c0 	leaq	-64(%rbp), %r14
10000298f:	4c 89 f7 	movq	%r14, %rdi
100002992:	e8 41 27 00 00 	callq	10049
100002997:	48 8b 35 8a 36 00 00 	movq	13962(%rip), %rsi
10000299e:	4c 89 f7 	movq	%r14, %rdi
1000029a1:	e8 2c 27 00 00 	callq	10028
1000029a6:	48 8b 08 	movq	(%rax), %rcx
1000029a9:	be 0a 00 00 00 	movl	$10, %esi
1000029ae:	48 89 c7 	movq	%rax, %rdi
1000029b1:	ff 51 38 	callq	*56(%rcx)
1000029b4:	41 89 c6 	movl	%eax, %r14d
1000029b7:	48 8d 7d c0 	leaq	-64(%rbp), %rdi
1000029bb:	e8 72 27 00 00 	callq	10098
1000029c0:	41 0f be f6 	movsbl	%r14b, %esi
1000029c4:	48 89 df 	movq	%rbx, %rdi
1000029c7:	e8 36 27 00 00 	callq	10038
1000029cc:	48 89 df 	movq	%rbx, %rdi
1000029cf:	e8 34 27 00 00 	callq	10036
1000029d4:	48 83 c4 48 	addq	$72, %rsp
1000029d8:	5b 	popq	%rbx
1000029d9:	41 5c 	popq	%r12
1000029db:	41 5d 	popq	%r13
1000029dd:	41 5e 	popq	%r14
1000029df:	41 5f 	popq	%r15
1000029e1:	5d 	popq	%rbp
1000029e2:	c3 	retq
1000029e3:	48 89 c3 	movq	%rax, %rbx
1000029e6:	48 8d 7d c0 	leaq	-64(%rbp), %rdi
1000029ea:	e8 43 27 00 00 	callq	10051
1000029ef:	eb 30 	jmp	48 <__ZN2SE11search_dictEv+0x381>
1000029f1:	48 89 c7 	movq	%rax, %rdi
1000029f4:	e8 97 ed ff ff 	callq	-4713 <___clang_call_terminate>
1000029f9:	48 89 c3 	movq	%rax, %rbx
1000029fc:	48 8d 7d c0 	leaq	-64(%rbp), %rdi
100002a00:	e8 2d 27 00 00 	callq	10029
100002a05:	eb 1a 	jmp	26 <__ZN2SE11search_dictEv+0x381>
100002a07:	48 89 c7 	movq	%rax, %rdi
100002a0a:	e8 81 ed ff ff 	callq	-4735 <___clang_call_terminate>
100002a0f:	48 89 c3 	movq	%rax, %rbx
100002a12:	f6 45 c0 01 	testb	$1, -64(%rbp)
100002a16:	74 09 	je	9 <__ZN2SE11search_dictEv+0x381>
100002a18:	48 8b 7d d0 	movq	-48(%rbp), %rdi
100002a1c:	e8 41 27 00 00 	callq	10049
100002a21:	48 89 df 	movq	%rbx, %rdi
100002a24:	e8 97 26 00 00 	callq	9879
100002a29:	0f 0b 	ud2
100002a2b:	0f 1f 44 00 00 	nopl	(%rax,%rax)

__ZN2SE14display_resultEv:
100002a30:	55 	pushq	%rbp
100002a31:	48 89 e5 	movq	%rsp, %rbp
100002a34:	41 57 	pushq	%r15
100002a36:	41 56 	pushq	%r14
100002a38:	41 55 	pushq	%r13
100002a3a:	41 54 	pushq	%r12
100002a3c:	53 	pushq	%rbx
100002a3d:	48 83 ec 28 	subq	$40, %rsp
100002a41:	49 89 fe 	movq	%rdi, %r14
100002a44:	49 8b 3e 	movq	(%r14), %rdi
100002a47:	49 8b 76 08 	movq	8(%r14), %rsi
100002a4b:	4c 8d 7d d0 	leaq	-48(%rbp), %r15
100002a4f:	4c 89 fa 	movq	%r15, %rdx
100002a52:	e8 f9 14 00 00 	callq	5369 <__ZNSt3__16__sortIR7comparePNS_12basic_stringIcNS_11char_traitsIcEENS_9allocatorIcEEEEEEvT0_SA_T_>
100002a57:	49 8d 46 18 	leaq	24(%r14), %rax
100002a5b:	48 89 45 b0 	movq	%rax, -80(%rbp)
100002a5f:	49 8b 7e 18 	movq	24(%r14), %rdi
100002a63:	49 8b 76 20 	movq	32(%r14), %rsi
100002a67:	48 8d 55 d0 	leaq	-48(%rbp), %rdx
100002a6b:	e8 e0 14 00 00 	callq	5344 <__ZNSt3__16__sortIR7comparePNS_12basic_stringIcNS_11char_traitsIcEENS_9allocatorIcEEEEEEvT0_SA_T_>
100002a70:	49 8d 46 30 	leaq	48(%r14), %rax
100002a74:	48 89 45 b8 	movq	%rax, -72(%rbp)
100002a78:	49 8b 7e 30 	movq	48(%r14), %rdi
100002a7c:	49 8b 76 38 	movq	56(%r14), %rsi
100002a80:	48 8d 55 d0 	leaq	-48(%rbp), %rdx
100002a84:	e8 c7 14 00 00 	callq	5319 <__ZNSt3__16__sortIR7comparePNS_12basic_stringIcNS_11char_traitsIcEENS_9allocatorIcEEEEEEvT0_SA_T_>
100002a89:	49 8d 46 48 	leaq	72(%r14), %rax
100002a8d:	48 89 45 c0 	movq	%rax, -64(%rbp)
100002a91:	49 8b 7e 48 	movq	72(%r14), %rdi
100002a95:	49 8b 76 50 	movq	80(%r14), %rsi
100002a99:	48 8d 55 d0 	leaq	-48(%rbp), %rdx
100002a9d:	e8 ae 14 00 00 	callq	5294 <__ZNSt3__16__sortIR7comparePNS_12basic_stringIcNS_11char_traitsIcEENS_9allocatorIcEEEEEEvT0_SA_T_>
100002aa2:	4c 8d 2d b3 01 00 00 	leaq	435(%rip), %r13
100002aa9:	eb 15 	jmp	21 <__ZN2SE14display_resultEv+0x90>
100002aab:	48 8d 3d fa 31 00 00 	leaq	12794(%rip), %rdi
100002ab2:	e8 35 27 00 00 	callq	10037
100002ab7:	48 8b 7d c0 	movq	-64(%rbp), %rdi
100002abb:	e8 30 ed ff ff 	callq	-4816 <__Z5printRKNSt3__16vectorINS_12basic_stringIcNS_11char_traitsIcEENS_9allocatorIcEEEENS4_IS6_EEEE>
100002ac0:	ba 67 00 00 00 	movl	$103, %edx
100002ac5:	48 8b 3d 54 35 00 00 	movq	13652(%rip), %rdi
100002acc:	48 8d 35 93 32 00 00 	leaq	12947(%rip), %rsi
100002ad3:	e8 f8 e9 ff ff 	callq	-5640 <__ZNSt3__124__put_character_sequenceIcNS_11char_traitsIcEEEERNS_13basic_ostreamIT_T0_EES7_PKS4_m>
100002ad8:	49 89 c4 	movq	%rax, %r12
100002adb:	49 8b 04 24 	movq	(%r12), %rax
100002adf:	48 8b 70 e8 	movq	-24(%rax), %rsi
100002ae3:	4c 01 e6 	addq	%r12, %rsi
100002ae6:	4c 89 ff 	movq	%r15, %rdi
100002ae9:	e8 ea 25 00 00 	callq	9706
100002aee:	4c 89 ff 	movq	%r15, %rdi
100002af1:	48 8b 35 30 35 00 00 	movq	13616(%rip), %rsi
100002af8:	e8 d5 25 00 00 	callq	9685
100002afd:	48 8b 08 	movq	(%rax), %rcx
100002b00:	be 0a 00 00 00 	movl	$10, %esi
100002b05:	48 89 c7 	movq	%rax, %rdi
100002b08:	ff 51 38 	callq	*56(%rcx)
100002b0b:	89 c3 	movl	%eax, %ebx
100002b0d:	4c 89 ff 	movq	%r15, %rdi
100002b10:	e8 1d 26 00 00 	callq	9757
100002b15:	0f be f3 	movsbl	%bl, %esi
100002b18:	4c 89 e7 	movq	%r12, %rdi
100002b1b:	e8 e2 25 00 00 	callq	9698
100002b20:	4c 89 e7 	movq	%r12, %rdi
100002b23:	e8 e0 25 00 00 	callq	9696
100002b28:	48 8b 3d e9 34 00 00 	movq	13545(%rip), %rdi
100002b2f:	48 8d 75 cc 	leaq	-52(%rbp), %rsi
100002b33:	e8 c4 25 00 00 	callq	9668
100002b38:	8b 5d cc 	movl	-52(%rbp), %ebx
100002b3b:	8d 43 ff 	leal	-1(%rbx), %eax
100002b3e:	83 f8 03 	cmpl	$3, %eax
100002b41:	77 57 	ja	87 <__ZN2SE14display_resultEv+0x16a>
100002b43:	49 63 44 85 00 	movslq	(%r13,%rax,4), %rax
100002b48:	4c 01 e8 	addq	%r13, %rax
100002b4b:	ff e0 	jmpq	*%rax
100002b4d:	48 8d 3d 58 31 00 00 	leaq	12632(%rip), %rdi
100002b54:	e8 93 26 00 00 	callq	9875
100002b59:	4c 89 f7 	movq	%r14, %rdi
100002b5c:	e8 8f ec ff ff 	callq	-4977 <__Z5printRKNSt3__16vectorINS_12basic_stringIcNS_11char_traitsIcEENS_9allocatorIcEEEENS4_IS6_EEEE>
100002b61:	e9 5a ff ff ff 	jmp	-166 <__ZN2SE14display_resultEv+0x90>
100002b66:	48 8d 3d 3f 31 00 00 	leaq	12607(%rip), %rdi
100002b6d:	e8 7a 26 00 00 	callq	9850
100002b72:	48 8b 7d b0 	movq	-80(%rbp), %rdi
100002b76:	e8 75 ec ff ff 	callq	-5003 <__Z5printRKNSt3__16vectorINS_12basic_stringIcNS_11char_traitsIcEENS_9allocatorIcEEEENS4_IS6_EEEE>
100002b7b:	e9 40 ff ff ff 	jmp	-192 <__ZN2SE14display_resultEv+0x90>
100002b80:	48 8d 3d 25 31 00 00 	leaq	12581(%rip), %rdi
100002b87:	e8 60 26 00 00 	callq	9824
100002b8c:	48 8b 7d b8 	movq	-72(%rbp), %rdi
100002b90:	e8 5b ec ff ff 	callq	-5029 <__Z5printRKNSt3__16vectorINS_12basic_stringIcNS_11char_traitsIcEENS_9allocatorIcEEEENS4_IS6_EEEE>
100002b95:	e9 26 ff ff ff 	jmp	-218 <__ZN2SE14display_resultEv+0x90>
100002b9a:	48 8d 3d 0b 31 00 00 	leaq	12555(%rip), %rdi
100002ba1:	e8 46 26 00 00 	callq	9798
100002ba6:	83 fb 05 	cmpl	$5, %ebx
100002ba9:	74 6d 	je	109 <__ZN2SE14display_resultEv+0x1e8>
100002bab:	ba 14 00 00 00 	movl	$20, %edx
100002bb0:	48 8b 3d 69 34 00 00 	movq	13417(%rip), %rdi
100002bb7:	48 8d 35 10 32 00 00 	leaq	12816(%rip), %rsi
100002bbe:	e8 0d e9 ff ff 	callq	-5875 <__ZNSt3__124__put_character_sequenceIcNS_11char_traitsIcEEEERNS_13basic_ostreamIT_T0_EES7_PKS4_m>
100002bc3:	49 89 c4 	movq	%rax, %r12
100002bc6:	49 8b 04 24 	movq	(%r12), %rax
100002bca:	48 8b 70 e8 	movq	-24(%rax), %rsi
100002bce:	4c 01 e6 	addq	%r12, %rsi
100002bd1:	4c 89 ff 	movq	%r15, %rdi
100002bd4:	e8 ff 24 00 00 	callq	9471
100002bd9:	4c 89 ff 	movq	%r15, %rdi
100002bdc:	48 8b 35 45 34 00 00 	movq	13381(%rip), %rsi
100002be3:	e8 ea 24 00 00 	callq	9450
100002be8:	48 8b 08 	movq	(%rax), %rcx
100002beb:	be 0a 00 00 00 	movl	$10, %esi
100002bf0:	48 89 c7 	movq	%rax, %rdi
100002bf3:	ff 51 38 	callq	*56(%rcx)
100002bf6:	89 c3 	movl	%eax, %ebx
100002bf8:	4c 89 ff 	movq	%r15, %rdi
100002bfb:	e8 32 25 00 00 	callq	9522
100002c00:	0f be f3 	movsbl	%bl, %esi
100002c03:	4c 89 e7 	movq	%r12, %rdi
100002c06:	e8 f7 24 00 00 	callq	9463
100002c0b:	4c 89 e7 	movq	%r12, %rdi
100002c0e:	e8 f5 24 00 00 	callq	9461
100002c13:	e9 a8 fe ff ff 	jmp	-344 <__ZN2SE14display_resultEv+0x90>
100002c18:	48 83 c4 28 	addq	$40, %rsp
100002c1c:	5b 	popq	%rbx
100002c1d:	41 5c 	popq	%r12
100002c1f:	41 5d 	popq	%r13
100002c21:	41 5e 	popq	%r14
100002c23:	41 5f 	popq	%r15
100002c25:	5d 	popq	%rbp
100002c26:	c3 	retq
100002c27:	48 89 c3 	movq	%rax, %rbx
100002c2a:	48 8d 7d d0 	leaq	-48(%rbp), %rdi
100002c2e:	e8 ff 24 00 00 	callq	9471
100002c33:	eb 14 	jmp	20 <__ZN2SE14display_resultEv+0x219>
100002c35:	48 89 c7 	movq	%rax, %rdi
100002c38:	e8 53 eb ff ff 	callq	-5293 <___clang_call_terminate>
100002c3d:	48 89 c3 	movq	%rax, %rbx
100002c40:	48 8d 7d d0 	leaq	-48(%rbp), %rdi
100002c44:	e8 e9 24 00 00 	callq	9449
100002c49:	48 89 df 	movq	%rbx, %rdi
100002c4c:	e8 6f 24 00 00 	callq	9327
100002c51:	0f 0b 	ud2
100002c53:	48 89 c7 	movq	%rax, %rdi
100002c56:	e8 35 eb ff ff 	callq	-5323 <___clang_call_terminate>
100002c5b:	90 	nop
100002c5c:	f1  <unknown>
100002c5d:	fe ff  <unknown>
100002c5f:	ff 0a 	decl	(%rdx)
100002c61:	ff ff  <unknown>
100002c63:	ff 24 ff 	jmpq	*(%rdi,%rdi,8)
100002c66:	ff ff  <unknown>
100002c68:	4f fe ff  <unknown>
100002c6b:	ff 0f 	decl	(%rdi)
100002c6d:	1f  <unknown>
100002c6e:	40 00 55 48 	addb	%dl, 72(%rbp)

__ZTv0_n24_NSt3__114basic_ifstreamIcNS_11char_traitsIcEEED1Ev:
100002c70:	55 	pushq	%rbp
100002c71:	48 89 e5 	movq	%rsp, %rbp
100002c74:	41 57 	pushq	%r15
100002c76:	41 56 	pushq	%r14
100002c78:	53 	pushq	%rbx
100002c79:	50 	pushq	%rax
100002c7a:	48 8b 07 	movq	(%rdi), %rax
100002c7d:	48 8b 40 e8 	movq	-24(%rax), %rax
100002c81:	48 8d 1c 07 	leaq	(%rdi,%rax), %rbx
100002c85:	48 8b 0d d4 33 00 00 	movq	13268(%rip), %rcx
100002c8c:	48 8d 51 18 	leaq	24(%rcx), %rdx
100002c90:	48 89 14 07 	movq	%rdx, (%rdi,%rax)
100002c94:	4c 8d b4 07 a8 01 00 00 	leaq	424(%rdi,%rax), %r14
100002c9c:	48 83 c1 40 	addq	$64, %rcx
100002ca0:	48 89 8c 07 a8 01 00 00 	movq	%rcx, 424(%rdi,%rax)
100002ca8:	48 8d 7c 07 10 	leaq	16(%rdi,%rax), %rdi
100002cad:	e8 6e 01 00 00 	callq	366 <__ZNSt3__113basic_filebufIcNS_11char_traitsIcEEED2Ev>
100002cb2:	48 8b 35 97 33 00 00 	movq	13207(%rip), %rsi
100002cb9:	48 83 c6 08 	addq	$8, %rsi
100002cbd:	48 89 df 	movq	%rbx, %rdi
100002cc0:	e8 31 24 00 00 	callq	9265
100002cc5:	4c 89 f7 	movq	%r14, %rdi
100002cc8:	48 83 c4 08 	addq	$8, %rsp
100002ccc:	5b 	popq	%rbx
100002ccd:	41 5e 	popq	%r14
100002ccf:	41 5f 	popq	%r15
100002cd1:	5d 	popq	%rbp
100002cd2:	e9 73 24 00 00 	jmp	9331
100002cd7:	49 89 c7 	movq	%rax, %r15
100002cda:	eb 16 	jmp	22 <__ZTv0_n24_NSt3__114basic_ifstreamIcNS_11char_traitsIcEEED1Ev+0x82>
100002cdc:	49 89 c7 	movq	%rax, %r15
100002cdf:	48 8b 35 6a 33 00 00 	movq	13162(%rip), %rsi
100002ce6:	48 83 c6 08 	addq	$8, %rsi
100002cea:	48 89 df 	movq	%rbx, %rdi
100002ced:	e8 04 24 00 00 	callq	9220
100002cf2:	4c 89 f7 	movq	%r14, %rdi
100002cf5:	e8 50 24 00 00 	callq	9296
100002cfa:	4c 89 ff 	movq	%r15, %rdi
100002cfd:	e8 be 23 00 00 	callq	9150
100002d02:	0f 0b 	ud2
100002d04:	48 89 c7 	movq	%rax, %rdi
100002d07:	e8 84 ea ff ff 	callq	-5500 <___clang_call_terminate>
100002d0c:	48 89 c7 	movq	%rax, %rdi
100002d0f:	e8 7c ea ff ff 	callq	-5508 <___clang_call_terminate>
100002d14:	66 66 66 2e 0f 1f 84 00 00 00 00 00 	nopw	%cs:(%rax,%rax)

__ZNSt3__114basic_ifstreamIcNS_11char_traitsIcEEED0Ev:
100002d20:	55 	pushq	%rbp
100002d21:	48 89 e5 	movq	%rsp, %rbp
100002d24:	41 56 	pushq	%r14
100002d26:	53 	pushq	%rbx
100002d27:	48 89 fb 	movq	%rdi, %rbx
100002d2a:	e8 01 f7 ff ff 	callq	-2303 <__ZNSt3__114basic_ifstreamIcNS_11char_traitsIcEEED1Ev>
100002d2f:	48 89 df 	movq	%rbx, %rdi
100002d32:	5b 	popq	%rbx
100002d33:	41 5e 	popq	%r14
100002d35:	5d 	popq	%rbp
100002d36:	e9 27 24 00 00 	jmp	9255
100002d3b:	49 89 c6 	movq	%rax, %r14
100002d3e:	48 89 df 	movq	%rbx, %rdi
100002d41:	e8 1c 24 00 00 	callq	9244
100002d46:	4c 89 f7 	movq	%r14, %rdi
100002d49:	e8 72 23 00 00 	callq	9074
100002d4e:	0f 0b 	ud2

__ZTv0_n24_NSt3__114basic_ifstreamIcNS_11char_traitsIcEEED0Ev:
100002d50:	55 	pushq	%rbp
100002d51:	48 89 e5 	movq	%rsp, %rbp
100002d54:	41 57 	pushq	%r15
100002d56:	41 56 	pushq	%r14
100002d58:	53 	pushq	%rbx
100002d59:	50 	pushq	%rax
100002d5a:	48 8b 07 	movq	(%rdi), %rax
100002d5d:	48 8b 40 e8 	movq	-24(%rax), %rax
100002d61:	48 8d 1c 07 	leaq	(%rdi,%rax), %rbx
100002d65:	48 8b 0d f4 32 00 00 	movq	13044(%rip), %rcx
100002d6c:	48 8d 51 18 	leaq	24(%rcx), %rdx
100002d70:	48 89 14 07 	movq	%rdx, (%rdi,%rax)
100002d74:	4c 8d b4 07 a8 01 00 00 	leaq	424(%rdi,%rax), %r14
100002d7c:	48 83 c1 40 	addq	$64, %rcx
100002d80:	48 89 8c 07 a8 01 00 00 	movq	%rcx, 424(%rdi,%rax)
100002d88:	48 8d 7c 07 10 	leaq	16(%rdi,%rax), %rdi
100002d8d:	e8 8e 00 00 00 	callq	142 <__ZNSt3__113basic_filebufIcNS_11char_traitsIcEEED2Ev>
100002d92:	48 8b 35 b7 32 00 00 	movq	12983(%rip), %rsi
100002d99:	48 83 c6 08 	addq	$8, %rsi
100002d9d:	48 89 df 	movq	%rbx, %rdi
100002da0:	e8 51 23 00 00 	callq	9041
100002da5:	4c 89 f7 	movq	%r14, %rdi
100002da8:	e8 9d 23 00 00 	callq	9117
100002dad:	48 89 df 	movq	%rbx, %rdi
100002db0:	48 83 c4 08 	addq	$8, %rsp
100002db4:	5b 	popq	%rbx
100002db5:	41 5e 	popq	%r14
100002db7:	41 5f 	popq	%r15
100002db9:	5d 	popq	%rbp
100002dba:	e9 a3 23 00 00 	jmp	9123
100002dbf:	49 89 c7 	movq	%rax, %r15
100002dc2:	eb 23 	jmp	35 <__ZTv0_n24_NSt3__114basic_ifstreamIcNS_11char_traitsIcEEED0Ev+0x97>
100002dc4:	49 89 c7 	movq	%rax, %r15
100002dc7:	eb 16 	jmp	22 <__ZTv0_n24_NSt3__114basic_ifstreamIcNS_11char_traitsIcEEED0Ev+0x8f>
100002dc9:	49 89 c7 	movq	%rax, %r15
100002dcc:	48 8b 35 7d 32 00 00 	movq	12925(%rip), %rsi
100002dd3:	48 83 c6 08 	addq	$8, %rsi
100002dd7:	48 89 df 	movq	%rbx, %rdi
100002dda:	e8 17 23 00 00 	callq	8983
100002ddf:	4c 89 f7 	movq	%r14, %rdi
100002de2:	e8 63 23 00 00 	callq	9059
100002de7:	48 89 df 	movq	%rbx, %rdi
100002dea:	e8 73 23 00 00 	callq	9075
100002def:	4c 89 ff 	movq	%r15, %rdi
100002df2:	e8 c9 22 00 00 	callq	8905
100002df7:	0f 0b 	ud2
100002df9:	48 89 c7 	movq	%rax, %rdi
100002dfc:	e8 8f e9 ff ff 	callq	-5745 <___clang_call_terminate>
100002e01:	48 89 c7 	movq	%rax, %rdi
100002e04:	e8 87 e9 ff ff 	callq	-5753 <___clang_call_terminate>
100002e09:	0f 1f 80 00 00 00 00 	nopl	(%rax)

__ZNSt3__113basic_filebufIcNS_11char_traitsIcEEED1Ev:
100002e10:	55 	pushq	%rbp
100002e11:	48 89 e5 	movq	%rsp, %rbp
100002e14:	5d 	popq	%rbp
100002e15:	e9 06 00 00 00 	jmp	6 <__ZNSt3__113basic_filebufIcNS_11char_traitsIcEEED2Ev>
100002e1a:	66 0f 1f 44 00 00 	nopw	(%rax,%rax)

__ZNSt3__113basic_filebufIcNS_11char_traitsIcEEED2Ev:
100002e20:	55 	pushq	%rbp
100002e21:	48 89 e5 	movq	%rsp, %rbp
100002e24:	41 57 	pushq	%r15
100002e26:	41 56 	pushq	%r14
100002e28:	53 	pushq	%rbx
100002e29:	50 	pushq	%rax
100002e2a:	48 89 fb 	movq	%rdi, %rbx
100002e2d:	48 8b 05 24 32 00 00 	movq	12836(%rip), %rax
100002e34:	48 83 c0 10 	addq	$16, %rax
100002e38:	48 89 03 	movq	%rax, (%rbx)
100002e3b:	4c 8b 73 78 	movq	120(%rbx), %r14
100002e3f:	4d 85 f6 	testq	%r14, %r14
100002e42:	74 1c 	je	28 <__ZNSt3__113basic_filebufIcNS_11char_traitsIcEEED2Ev+0x40>
100002e44:	48 89 df 	movq	%rbx, %rdi
100002e47:	e8 a4 05 00 00 	callq	1444 <__ZNSt3__113basic_filebufIcNS_11char_traitsIcEEE4syncEv>
100002e4c:	4c 89 f7 	movq	%r14, %rdi
100002e4f:	e8 56 23 00 00 	callq	9046
100002e54:	85 c0 	testl	%eax, %eax
100002e56:	75 08 	jne	8 <__ZNSt3__113basic_filebufIcNS_11char_traitsIcEEED2Ev+0x40>
100002e58:	48 c7 43 78 00 00 00 00 	movq	$0, 120(%rbx)
100002e60:	80 bb 90 01 00 00 00 	cmpb	$0, 400(%rbx)
100002e67:	74 0e 	je	14 <__ZNSt3__113basic_filebufIcNS_11char_traitsIcEEED2Ev+0x57>
100002e69:	48 8b 7b 40 	movq	64(%rbx), %rdi
100002e6d:	48 85 ff 	testq	%rdi, %rdi
100002e70:	74 05 	je	5 <__ZNSt3__113basic_filebufIcNS_11char_traitsIcEEED2Ev+0x57>
100002e72:	e8 e5 22 00 00 	callq	8933
100002e77:	80 bb 91 01 00 00 00 	cmpb	$0, 401(%rbx)
100002e7e:	74 0e 	je	14 <__ZNSt3__113basic_filebufIcNS_11char_traitsIcEEED2Ev+0x6e>
100002e80:	48 8b 7b 68 	movq	104(%rbx), %rdi
100002e84:	48 85 ff 	testq	%rdi, %rdi
100002e87:	74 05 	je	5 <__ZNSt3__113basic_filebufIcNS_11char_traitsIcEEED2Ev+0x6e>
100002e89:	e8 ce 22 00 00 	callq	8910
100002e8e:	48 89 df 	movq	%rbx, %rdi
100002e91:	48 83 c4 08 	addq	$8, %rsp
100002e95:	5b 	popq	%rbx
100002e96:	41 5e 	popq	%r14
100002e98:	41 5f 	popq	%r15
100002e9a:	5d 	popq	%rbp
100002e9b:	e9 86 22 00 00 	jmp	8838
100002ea0:	49 89 c7 	movq	%rax, %r15
100002ea3:	4c 89 f7 	movq	%r14, %rdi
100002ea6:	e8 ff 22 00 00 	callq	8959
100002eab:	4c 89 ff 	movq	%r15, %rdi
100002eae:	e8 cd 22 00 00 	callq	8909
100002eb3:	e8 d4 22 00 00 	callq	8916
100002eb8:	eb a6 	jmp	-90 <__ZNSt3__113basic_filebufIcNS_11char_traitsIcEEED2Ev+0x40>
100002eba:	49 89 c6 	movq	%rax, %r14
100002ebd:	48 89 df 	movq	%rbx, %rdi
100002ec0:	e8 61 22 00 00 	callq	8801
100002ec5:	4c 89 f7 	movq	%r14, %rdi
100002ec8:	e8 f3 21 00 00 	callq	8691
100002ecd:	0f 0b 	ud2
100002ecf:	48 89 c7 	movq	%rax, %rdi
100002ed2:	e8 b9 e8 ff ff 	callq	-5959 <___clang_call_terminate>
100002ed7:	66 0f 1f 84 00 00 00 00 00 	nopw	(%rax,%rax)

__ZNSt3__113basic_filebufIcNS_11char_traitsIcEEED0Ev:
100002ee0:	55 	pushq	%rbp
100002ee1:	48 89 e5 	movq	%rsp, %rbp
100002ee4:	41 56 	pushq	%r14
100002ee6:	53 	pushq	%rbx
100002ee7:	48 89 fb 	movq	%rdi, %rbx
100002eea:	e8 31 ff ff ff 	callq	-207 <__ZNSt3__113basic_filebufIcNS_11char_traitsIcEEED2Ev>
100002eef:	48 89 df 	movq	%rbx, %rdi
100002ef2:	5b 	popq	%rbx
100002ef3:	41 5e 	popq	%r14
100002ef5:	5d 	popq	%rbp
100002ef6:	e9 67 22 00 00 	jmp	8807
100002efb:	49 89 c6 	movq	%rax, %r14
100002efe:	48 89 df 	movq	%rbx, %rdi
100002f01:	e8 5c 22 00 00 	callq	8796
100002f06:	4c 89 f7 	movq	%r14, %rdi
100002f09:	e8 b2 21 00 00 	callq	8626
100002f0e:	0f 0b 	ud2

__ZNSt3__113basic_filebufIcNS_11char_traitsIcEEE5imbueERKNS_6localeE:
100002f10:	55 	pushq	%rbp
100002f11:	48 89 e5 	movq	%rsp, %rbp
100002f14:	41 56 	pushq	%r14
100002f16:	53 	pushq	%rbx
100002f17:	49 89 f6 	movq	%rsi, %r14
100002f1a:	48 89 fb 	movq	%rdi, %rbx
100002f1d:	48 8b 03 	movq	(%rbx), %rax
100002f20:	ff 50 30 	callq	*48(%rax)
100002f23:	48 8b 35 06 31 00 00 	movq	12550(%rip), %rsi
100002f2a:	4c 89 f7 	movq	%r14, %rdi
100002f2d:	e8 a0 21 00 00 	callq	8608
100002f32:	48 89 83 80 00 00 00 	movq	%rax, 128(%rbx)
100002f39:	44 0f b6 b3 92 01 00 00 	movzbl	402(%rbx), %r14d
100002f41:	48 8b 08 	movq	(%rax), %rcx
100002f44:	48 89 c7 	movq	%rax, %rdi
100002f47:	ff 51 38 	callq	*56(%rcx)
100002f4a:	88 83 92 01 00 00 	movb	%al, 402(%rbx)
100002f50:	0f b6 c8 	movzbl	%al, %ecx
100002f53:	41 39 ce 	cmpl	%ecx, %r14d
100002f56:	0f 84 cf 00 00 00 	je	207 <__ZNSt3__113basic_filebufIcNS_11char_traitsIcEEE5imbueERKNS_6localeE+0x11b>
100002f5c:	48 c7 43 38 00 00 00 00 	movq	$0, 56(%rbx)
100002f64:	48 c7 43 30 00 00 00 00 	movq	$0, 48(%rbx)
100002f6c:	48 c7 43 28 00 00 00 00 	movq	$0, 40(%rbx)
100002f74:	48 c7 43 20 00 00 00 00 	movq	$0, 32(%rbx)
100002f7c:	48 c7 43 18 00 00 00 00 	movq	$0, 24(%rbx)
100002f84:	48 c7 43 10 00 00 00 00 	movq	$0, 16(%rbx)
100002f8c:	8a 8b 90 01 00 00 	movb	400(%rbx), %cl
100002f92:	84 c0 	testb	%al, %al
100002f94:	74 47 	je	71 <__ZNSt3__113basic_filebufIcNS_11char_traitsIcEEE5imbueERKNS_6localeE+0xcd>
100002f96:	84 c9 	testb	%cl, %cl
100002f98:	74 0e 	je	14 <__ZNSt3__113basic_filebufIcNS_11char_traitsIcEEE5imbueERKNS_6localeE+0x98>
100002f9a:	48 8b 7b 40 	movq	64(%rbx), %rdi
100002f9e:	48 85 ff 	testq	%rdi, %rdi
100002fa1:	74 05 	je	5 <__ZNSt3__113basic_filebufIcNS_11char_traitsIcEEE5imbueERKNS_6localeE+0x98>
100002fa3:	e8 b4 21 00 00 	callq	8628
100002fa8:	8a 83 91 01 00 00 	movb	401(%rbx), %al
100002fae:	88 83 90 01 00 00 	movb	%al, 400(%rbx)
100002fb4:	48 8b 43 68 	movq	104(%rbx), %rax
100002fb8:	48 8b 4b 70 	movq	112(%rbx), %rcx
100002fbc:	48 89 4b 60 	movq	%rcx, 96(%rbx)
100002fc0:	48 89 43 40 	movq	%rax, 64(%rbx)
100002fc4:	c6 83 91 01 00 00 00 	movb	$0, 401(%rbx)
100002fcb:	48 c7 43 70 00 00 00 00 	movq	$0, 112(%rbx)
100002fd3:	48 c7 43 68 00 00 00 00 	movq	$0, 104(%rbx)
100002fdb:	eb 4e 	jmp	78 <__ZNSt3__113basic_filebufIcNS_11char_traitsIcEEE5imbueERKNS_6localeE+0x11b>
100002fdd:	84 c9 	testb	%cl, %cl
100002fdf:	74 1a 	je	26 <__ZNSt3__113basic_filebufIcNS_11char_traitsIcEEE5imbueERKNS_6localeE+0xeb>
100002fe1:	48 8b 7b 60 	movq	96(%rbx), %rdi
100002fe5:	48 89 7b 70 	movq	%rdi, 112(%rbx)
100002fe9:	e8 7a 21 00 00 	callq	8570
100002fee:	48 89 43 68 	movq	%rax, 104(%rbx)
100002ff2:	c6 83 91 01 00 00 01 	movb	$1, 401(%rbx)
100002ff9:	eb 30 	jmp	48 <__ZNSt3__113basic_filebufIcNS_11char_traitsIcEEE5imbueERKNS_6localeE+0x11b>
100002ffb:	48 8b 43 40 	movq	64(%rbx), %rax
100002fff:	48 8d 4b 58 	leaq	88(%rbx), %rcx
100003003:	48 39 c8 	cmpq	%rcx, %rax
100003006:	74 d9 	je	-39 <__ZNSt3__113basic_filebufIcNS_11char_traitsIcEEE5imbueERKNS_6localeE+0xd1>
100003008:	48 8b 7b 60 	movq	96(%rbx), %rdi
10000300c:	48 89 7b 70 	movq	%rdi, 112(%rbx)
100003010:	48 89 43 68 	movq	%rax, 104(%rbx)
100003014:	c6 83 91 01 00 00 00 	movb	$0, 401(%rbx)
10000301b:	e8 48 21 00 00 	callq	8520
100003020:	48 89 43 40 	movq	%rax, 64(%rbx)
100003024:	c6 83 90 01 00 00 01 	movb	$1, 400(%rbx)
10000302b:	5b 	popq	%rbx
10000302c:	41 5e 	popq	%r14
10000302e:	5d 	popq	%rbp
10000302f:	c3 	retq

__ZNSt3__113basic_filebufIcNS_11char_traitsIcEEE6setbufEPcl:
100003030:	55 	pushq	%rbp
100003031:	48 89 e5 	movq	%rsp, %rbp
100003034:	41 57 	pushq	%r15
100003036:	41 56 	pushq	%r14
100003038:	41 54 	pushq	%r12
10000303a:	53 	pushq	%rbx
10000303b:	49 89 d7 	movq	%rdx, %r15
10000303e:	49 89 f6 	movq	%rsi, %r14
100003041:	48 89 fb 	movq	%rdi, %rbx
100003044:	48 c7 43 38 00 00 00 00 	movq	$0, 56(%rbx)
10000304c:	48 c7 43 30 00 00 00 00 	movq	$0, 48(%rbx)
100003054:	48 c7 43 28 00 00 00 00 	movq	$0, 40(%rbx)
10000305c:	48 c7 43 20 00 00 00 00 	movq	$0, 32(%rbx)
100003064:	48 c7 43 18 00 00 00 00 	movq	$0, 24(%rbx)
10000306c:	48 c7 43 10 00 00 00 00 	movq	$0, 16(%rbx)
100003074:	80 bb 90 01 00 00 00 	cmpb	$0, 400(%rbx)
10000307b:	74 0e 	je	14 <__ZNSt3__113basic_filebufIcNS_11char_traitsIcEEE6setbufEPcl+0x5b>
10000307d:	48 8b 7b 40 	movq	64(%rbx), %rdi
100003081:	48 85 ff 	testq	%rdi, %rdi
100003084:	74 05 	je	5 <__ZNSt3__113basic_filebufIcNS_11char_traitsIcEEE6setbufEPcl+0x5b>
100003086:	e8 d1 20 00 00 	callq	8401
10000308b:	80 bb 91 01 00 00 00 	cmpb	$0, 401(%rbx)
100003092:	74 0e 	je	14 <__ZNSt3__113basic_filebufIcNS_11char_traitsIcEEE6setbufEPcl+0x72>
100003094:	48 8b 7b 68 	movq	104(%rbx), %rdi
100003098:	48 85 ff 	testq	%rdi, %rdi
10000309b:	74 05 	je	5 <__ZNSt3__113basic_filebufIcNS_11char_traitsIcEEE6setbufEPcl+0x72>
10000309d:	e8 ba 20 00 00 	callq	8378
1000030a2:	4c 89 7b 60 	movq	%r15, 96(%rbx)
1000030a6:	49 83 ff 09 	cmpq	$9, %r15
1000030aa:	72 1e 	jb	30 <__ZNSt3__113basic_filebufIcNS_11char_traitsIcEEE6setbufEPcl+0x9a>
1000030ac:	44 8a a3 92 01 00 00 	movb	402(%rbx), %r12b
1000030b3:	4d 85 f6 	testq	%r14, %r14
1000030b6:	74 58 	je	88 <__ZNSt3__113basic_filebufIcNS_11char_traitsIcEEE6setbufEPcl+0xe0>
1000030b8:	45 84 e4 	testb	%r12b, %r12b
1000030bb:	74 53 	je	83 <__ZNSt3__113basic_filebufIcNS_11char_traitsIcEEE6setbufEPcl+0xe0>
1000030bd:	4c 89 73 40 	movq	%r14, 64(%rbx)
1000030c1:	c6 83 90 01 00 00 00 	movb	$0, 400(%rbx)
1000030c8:	eb 23 	jmp	35 <__ZNSt3__113basic_filebufIcNS_11char_traitsIcEEE6setbufEPcl+0xbd>
1000030ca:	48 8d 43 58 	leaq	88(%rbx), %rax
1000030ce:	48 89 43 40 	movq	%rax, 64(%rbx)
1000030d2:	48 c7 43 60 08 00 00 00 	movq	$8, 96(%rbx)
1000030da:	c6 83 90 01 00 00 00 	movb	$0, 400(%rbx)
1000030e1:	44 8a a3 92 01 00 00 	movb	402(%rbx), %r12b
1000030e8:	45 84 e4 	testb	%r12b, %r12b
1000030eb:	74 3b 	je	59 <__ZNSt3__113basic_filebufIcNS_11char_traitsIcEEE6setbufEPcl+0xf8>
1000030ed:	c6 83 91 01 00 00 00 	movb	$0, 401(%rbx)
1000030f4:	48 c7 43 70 00 00 00 00 	movq	$0, 112(%rbx)
1000030fc:	48 c7 43 68 00 00 00 00 	movq	$0, 104(%rbx)
100003104:	48 89 d8 	movq	%rbx, %rax
100003107:	5b 	popq	%rbx
100003108:	41 5c 	popq	%r12
10000310a:	41 5e 	popq	%r14
10000310c:	41 5f 	popq	%r15
10000310e:	5d 	popq	%rbp
10000310f:	c3 	retq
100003110:	4c 89 ff 	movq	%r15, %rdi
100003113:	e8 50 20 00 00 	callq	8272
100003118:	48 89 43 40 	movq	%rax, 64(%rbx)
10000311c:	c6 83 90 01 00 00 01 	movb	$1, 400(%rbx)
100003123:	45 84 e4 	testb	%r12b, %r12b
100003126:	75 c5 	jne	-59 <__ZNSt3__113basic_filebufIcNS_11char_traitsIcEEE6setbufEPcl+0xbd>
100003128:	49 83 ff 07 	cmpq	$7, %r15
10000312c:	bf 08 00 00 00 	movl	$8, %edi
100003131:	49 0f 4f ff 	cmovgq	%r15, %rdi
100003135:	48 89 7b 70 	movq	%rdi, 112(%rbx)
100003139:	4d 85 f6 	testq	%r14, %r14
10000313c:	74 13 	je	19 <__ZNSt3__113basic_filebufIcNS_11char_traitsIcEEE6setbufEPcl+0x121>
10000313e:	48 83 ff 08 	cmpq	$8, %rdi
100003142:	72 0d 	jb	13 <__ZNSt3__113basic_filebufIcNS_11char_traitsIcEEE6setbufEPcl+0x121>
100003144:	4c 89 73 68 	movq	%r14, 104(%rbx)
100003148:	c6 83 91 01 00 00 00 	movb	$0, 401(%rbx)
10000314f:	eb b3 	jmp	-77 <__ZNSt3__113basic_filebufIcNS_11char_traitsIcEEE6setbufEPcl+0xd4>
100003151:	e8 12 20 00 00 	callq	8210
100003156:	48 89 43 68 	movq	%rax, 104(%rbx)
10000315a:	c6 83 91 01 00 00 01 	movb	$1, 401(%rbx)
100003161:	eb a1 	jmp	-95 <__ZNSt3__113basic_filebufIcNS_11char_traitsIcEEE6setbufEPcl+0xd4>
100003163:	66 66 66 66 2e 0f 1f 84 00 00 00 00 00 	nopw	%cs:(%rax,%rax)

__ZNSt3__113basic_filebufIcNS_11char_traitsIcEEE7seekoffExNS_8ios_base7seekdirEj:
100003170:	55 	pushq	%rbp
100003171:	48 89 e5 	movq	%rsp, %rbp
100003174:	41 57 	pushq	%r15
100003176:	41 56 	pushq	%r14
100003178:	41 55 	pushq	%r13
10000317a:	41 54 	pushq	%r12
10000317c:	53 	pushq	%rbx
10000317d:	50 	pushq	%rax
10000317e:	41 89 cf 	movl	%ecx, %r15d
100003181:	49 89 d4 	movq	%rdx, %r12
100003184:	49 89 f6 	movq	%rsi, %r14
100003187:	48 89 fb 	movq	%rdi, %rbx
10000318a:	49 8b be 80 00 00 00 	movq	128(%r14), %rdi
100003191:	48 85 ff 	testq	%rdi, %rdi
100003194:	0f 84 0f 01 00 00 	je	271 <__ZNSt3__113basic_filebufIcNS_11char_traitsIcEEE7seekoffExNS_8ios_base7seekdirEj+0x139>
10000319a:	48 8b 07 	movq	(%rdi), %rax
10000319d:	ff 50 30 	callq	*48(%rax)
1000031a0:	41 89 c5 	movl	%eax, %r13d
1000031a3:	49 83 7e 78 00 	cmpq	$0, 120(%r14)
1000031a8:	74 40 	je	64 <__ZNSt3__113basic_filebufIcNS_11char_traitsIcEEE7seekoffExNS_8ios_base7seekdirEj+0x7a>
1000031aa:	4d 85 e4 	testq	%r12, %r12
1000031ad:	74 05 	je	5 <__ZNSt3__113basic_filebufIcNS_11char_traitsIcEEE7seekoffExNS_8ios_base7seekdirEj+0x44>
1000031af:	45 85 ed 	testl	%r13d, %r13d
1000031b2:	7e 36 	jle	54 <__ZNSt3__113basic_filebufIcNS_11char_traitsIcEEE7seekoffExNS_8ios_base7seekdirEj+0x7a>
1000031b4:	49 8b 06 	movq	(%r14), %rax
1000031b7:	4c 89 f7 	movq	%r14, %rdi
1000031ba:	ff 50 30 	callq	*48(%rax)
1000031bd:	85 c0 	testl	%eax, %eax
1000031bf:	75 29 	jne	41 <__ZNSt3__113basic_filebufIcNS_11char_traitsIcEEE7seekoffExNS_8ios_base7seekdirEj+0x7a>
1000031c1:	41 83 ff 03 	cmpl	$3, %r15d
1000031c5:	73 23 	jae	35 <__ZNSt3__113basic_filebufIcNS_11char_traitsIcEEE7seekoffExNS_8ios_base7seekdirEj+0x7a>
1000031c7:	49 8b 7e 78 	movq	120(%r14), %rdi
1000031cb:	49 63 c5 	movslq	%r13d, %rax
1000031ce:	4c 0f af e0 	imulq	%rax, %r12
1000031d2:	31 f6 	xorl	%esi, %esi
1000031d4:	85 c0 	testl	%eax, %eax
1000031d6:	49 0f 4f f4 	cmovgq	%r12, %rsi
1000031da:	44 89 fa 	movl	%r15d, %edx
1000031dd:	e8 e0 1f 00 00 	callq	8160
1000031e2:	85 c0 	testl	%eax, %eax
1000031e4:	0f 84 9f 00 00 00 	je	159 <__ZNSt3__113basic_filebufIcNS_11char_traitsIcEEE7seekoffExNS_8ios_base7seekdirEj+0x119>
1000031ea:	48 c7 43 78 00 00 00 00 	movq	$0, 120(%rbx)
1000031f2:	48 c7 43 70 00 00 00 00 	movq	$0, 112(%rbx)
1000031fa:	48 c7 43 68 00 00 00 00 	movq	$0, 104(%rbx)
100003202:	48 c7 43 60 00 00 00 00 	movq	$0, 96(%rbx)
10000320a:	48 c7 43 58 00 00 00 00 	movq	$0, 88(%rbx)
100003212:	48 c7 43 50 00 00 00 00 	movq	$0, 80(%rbx)
10000321a:	48 c7 43 48 00 00 00 00 	movq	$0, 72(%rbx)
100003222:	48 c7 43 40 00 00 00 00 	movq	$0, 64(%rbx)
10000322a:	48 c7 43 38 00 00 00 00 	movq	$0, 56(%rbx)
100003232:	48 c7 43 30 00 00 00 00 	movq	$0, 48(%rbx)
10000323a:	48 c7 43 28 00 00 00 00 	movq	$0, 40(%rbx)
100003242:	48 c7 43 20 00 00 00 00 	movq	$0, 32(%rbx)
10000324a:	48 c7 43 18 00 00 00 00 	movq	$0, 24(%rbx)
100003252:	48 c7 43 10 00 00 00 00 	movq	$0, 16(%rbx)
10000325a:	48 c7 43 08 00 00 00 00 	movq	$0, 8(%rbx)
100003262:	48 c7 03 00 00 00 00 	movq	$0, (%rbx)
100003269:	48 c7 c0 ff ff ff ff 	movq	$-1, %rax
100003270:	48 89 83 80 00 00 00 	movq	%rax, 128(%rbx)
100003277:	48 89 d8 	movq	%rbx, %rax
10000327a:	48 83 c4 08 	addq	$8, %rsp
10000327e:	5b 	popq	%rbx
10000327f:	41 5c 	popq	%r12
100003281:	41 5d 	popq	%r13
100003283:	41 5e 	popq	%r14
100003285:	41 5f 	popq	%r15
100003287:	5d 	popq	%rbp
100003288:	c3 	retq
100003289:	49 8b 7e 78 	movq	120(%r14), %rdi
10000328d:	e8 36 1f 00 00 	callq	7990
100003292:	49 81 c6 88 00 00 00 	addq	$136, %r14
100003299:	b9 10 00 00 00 	movl	$16, %ecx
10000329e:	48 89 df 	movq	%rbx, %rdi
1000032a1:	4c 89 f6 	movq	%r14, %rsi
1000032a4:	f3 48 a5 	rep		movsq	(%rsi), %es:(%rdi)
1000032a7:	eb c7 	jmp	-57 <__ZNSt3__113basic_filebufIcNS_11char_traitsIcEEE7seekoffExNS_8ios_base7seekdirEj+0x100>
1000032a9:	bf 08 00 00 00 	movl	$8, %edi
1000032ae:	e8 c7 1e 00 00 	callq	7879
1000032b3:	48 89 c3 	movq	%rax, %rbx
1000032b6:	48 89 df 	movq	%rbx, %rdi
1000032b9:	e8 92 1e 00 00 	callq	7826
1000032be:	48 8b 35 83 2d 00 00 	movq	11651(%rip), %rsi
1000032c5:	48 8b 15 6c 2d 00 00 	movq	11628(%rip), %rdx
1000032cc:	48 89 df 	movq	%rbx, %rdi
1000032cf:	e8 be 1e 00 00 	callq	7870
1000032d4:	66 66 66 2e 0f 1f 84 00 00 00 00 00 	nopw	%cs:(%rax,%rax)

__ZNSt3__113basic_filebufIcNS_11char_traitsIcEEE7seekposENS_4fposI11__mbstate_tEEj:
1000032e0:	55 	pushq	%rbp
1000032e1:	48 89 e5 	movq	%rsp, %rbp
1000032e4:	41 57 	pushq	%r15
1000032e6:	41 56 	pushq	%r14
1000032e8:	53 	pushq	%rbx
1000032e9:	50 	pushq	%rax
1000032ea:	49 89 f6 	movq	%rsi, %r14
1000032ed:	48 89 fb 	movq	%rdi, %rbx
1000032f0:	49 83 7e 78 00 	cmpq	$0, 120(%r14)
1000032f5:	74 2b 	je	43 <__ZNSt3__113basic_filebufIcNS_11char_traitsIcEEE7seekposENS_4fposI11__mbstate_tEEj+0x42>
1000032f7:	49 8b 06 	movq	(%r14), %rax
1000032fa:	4c 89 f7 	movq	%r14, %rdi
1000032fd:	ff 50 30 	callq	*48(%rax)
100003300:	85 c0 	testl	%eax, %eax
100003302:	75 1e 	jne	30 <__ZNSt3__113basic_filebufIcNS_11char_traitsIcEEE7seekposENS_4fposI11__mbstate_tEEj+0x42>
100003304:	4c 8d 7d 10 	leaq	16(%rbp), %r15
100003308:	49 8b 7e 78 	movq	120(%r14), %rdi
10000330c:	49 8b b7 80 00 00 00 	movq	128(%r15), %rsi
100003313:	31 d2 	xorl	%edx, %edx
100003315:	e8 a8 1e 00 00 	callq	7848
10000331a:	85 c0 	testl	%eax, %eax
10000331c:	0f 84 98 00 00 00 	je	152 <__ZNSt3__113basic_filebufIcNS_11char_traitsIcEEE7seekposENS_4fposI11__mbstate_tEEj+0xda>
100003322:	48 c7 43 78 00 00 00 00 	movq	$0, 120(%rbx)
10000332a:	48 c7 43 70 00 00 00 00 	movq	$0, 112(%rbx)
100003332:	48 c7 43 68 00 00 00 00 	movq	$0, 104(%rbx)
10000333a:	48 c7 43 60 00 00 00 00 	movq	$0, 96(%rbx)
100003342:	48 c7 43 58 00 00 00 00 	movq	$0, 88(%rbx)
10000334a:	48 c7 43 50 00 00 00 00 	movq	$0, 80(%rbx)
100003352:	48 c7 43 48 00 00 00 00 	movq	$0, 72(%rbx)
10000335a:	48 c7 43 40 00 00 00 00 	movq	$0, 64(%rbx)
100003362:	48 c7 43 38 00 00 00 00 	movq	$0, 56(%rbx)
10000336a:	48 c7 43 30 00 00 00 00 	movq	$0, 48(%rbx)
100003372:	48 c7 43 28 00 00 00 00 	movq	$0, 40(%rbx)
10000337a:	48 c7 43 20 00 00 00 00 	movq	$0, 32(%rbx)
100003382:	48 c7 43 18 00 00 00 00 	movq	$0, 24(%rbx)
10000338a:	48 c7 43 10 00 00 00 00 	movq	$0, 16(%rbx)
100003392:	48 c7 43 08 00 00 00 00 	movq	$0, 8(%rbx)
10000339a:	48 c7 03 00 00 00 00 	movq	$0, (%rbx)
1000033a1:	48 c7 83 80 00 00 00 ff ff ff ff 	movq	$-1, 128(%rbx)
1000033ac:	48 89 d8 	movq	%rbx, %rax
1000033af:	48 83 c4 08 	addq	$8, %rsp
1000033b3:	5b 	popq	%rbx
1000033b4:	41 5e 	popq	%r14
1000033b6:	41 5f 	popq	%r15
1000033b8:	5d 	popq	%rbp
1000033b9:	c3 	retq
1000033ba:	49 81 c6 88 00 00 00 	addq	$136, %r14
1000033c1:	b9 10 00 00 00 	movl	$16, %ecx
1000033c6:	4c 89 f7 	movq	%r14, %rdi
1000033c9:	4c 89 fe 	movq	%r15, %rsi
1000033cc:	f3 48 a5 	rep		movsq	(%rsi), %es:(%rdi)
1000033cf:	ba 88 00 00 00 	movl	$136, %edx
1000033d4:	48 89 df 	movq	%rbx, %rdi
1000033d7:	4c 89 fe 	movq	%r15, %rsi
1000033da:	e8 fb 1d 00 00 	callq	7675
1000033df:	eb cb 	jmp	-53 <__ZNSt3__113basic_filebufIcNS_11char_traitsIcEEE7seekposENS_4fposI11__mbstate_tEEj+0xcc>
1000033e1:	66 66 66 66 66 66 2e 0f 1f 84 00 00 00 00 00 	nopw	%cs:(%rax,%rax)

__ZNSt3__113basic_filebufIcNS_11char_traitsIcEEE4syncEv:
1000033f0:	55 	pushq	%rbp
1000033f1:	48 89 e5 	movq	%rsp, %rbp
1000033f4:	41 57 	pushq	%r15
1000033f6:	41 56 	pushq	%r14
1000033f8:	41 55 	pushq	%r13
1000033fa:	41 54 	pushq	%r12
1000033fc:	53 	pushq	%rbx
1000033fd:	48 81 ec 88 00 00 00 	subq	$136, %rsp
100003404:	48 8b 05 65 2c 00 00 	movq	11365(%rip), %rax
10000340b:	48 8b 00 	movq	(%rax), %rax
10000340e:	48 89 45 d0 	movq	%rax, -48(%rbp)
100003412:	49 89 ff 	movq	%rdi, %r15
100003415:	45 31 ed 	xorl	%r13d, %r13d
100003418:	49 83 7f 78 00 	cmpq	$0, 120(%r15)
10000341d:	0f 84 98 01 00 00 	je	408 <__ZNSt3__113basic_filebufIcNS_11char_traitsIcEEE4syncEv+0x1cb>
100003423:	49 8b 87 80 00 00 00 	movq	128(%r15), %rax
10000342a:	48 85 c0 	testq	%rax, %rax
10000342d:	0f 84 f0 01 00 00 	je	496 <__ZNSt3__113basic_filebufIcNS_11char_traitsIcEEE4syncEv+0x233>
100003433:	41 8b 8f 8c 01 00 00 	movl	396(%r15), %ecx
10000343a:	f6 c1 10 	testb	$16, %cl
10000343d:	75 3a 	jne	58 <__ZNSt3__113basic_filebufIcNS_11char_traitsIcEEE4syncEv+0x89>
10000343f:	f6 c1 08 	testb	$8, %cl
100003442:	0f 84 70 01 00 00 	je	368 <__ZNSt3__113basic_filebufIcNS_11char_traitsIcEEE4syncEv+0x1c8>
100003448:	49 8d b7 08 01 00 00 	leaq	264(%r15), %rsi
10000344f:	48 8d bd 50 ff ff ff 	leaq	-176(%rbp), %rdi
100003456:	b9 10 00 00 00 	movl	$16, %ecx
10000345b:	f3 48 a5 	rep		movsq	(%rsi), %es:(%rdi)
10000345e:	41 80 bf 92 01 00 00 00 	cmpb	$0, 402(%r15)
100003466:	0f 84 b4 00 00 00 	je	180 <__ZNSt3__113basic_filebufIcNS_11char_traitsIcEEE4syncEv+0x130>
10000346c:	4d 8b 77 20 	movq	32(%r15), %r14
100003470:	4d 2b 77 18 	subq	24(%r15), %r14
100003474:	e9 d4 00 00 00 	jmp	212 <__ZNSt3__113basic_filebufIcNS_11char_traitsIcEEE4syncEv+0x15d>
100003479:	49 8b 47 30 	movq	48(%r15), %rax
10000347d:	49 3b 47 28 	cmpq	40(%r15), %rax
100003481:	74 1d 	je	29 <__ZNSt3__113basic_filebufIcNS_11char_traitsIcEEE4syncEv+0xb0>
100003483:	49 8b 07 	movq	(%r15), %rax
100003486:	41 bd ff ff ff ff 	movl	$4294967295, %r13d
10000348c:	be ff ff ff ff 	movl	$4294967295, %esi
100003491:	4c 89 ff 	movq	%r15, %rdi
100003494:	ff 50 68 	callq	*104(%rax)
100003497:	83 f8 ff 	cmpl	$-1, %eax
10000349a:	0f 84 1b 01 00 00 	je	283 <__ZNSt3__113basic_filebufIcNS_11char_traitsIcEEE4syncEv+0x1cb>
1000034a0:	4d 8d b7 88 00 00 00 	leaq	136(%r15), %r14
1000034a7:	41 bd ff ff ff ff 	movl	$4294967295, %r13d
1000034ad:	0f 1f 00 	nopl	(%rax)
1000034b0:	49 8b 57 40 	movq	64(%r15), %rdx
1000034b4:	49 8b bf 80 00 00 00 	movq	128(%r15), %rdi
1000034bb:	49 8b 4f 60 	movq	96(%r15), %rcx
1000034bf:	48 01 d1 	addq	%rdx, %rcx
1000034c2:	48 8b 07 	movq	(%rdi), %rax
1000034c5:	4c 89 f6 	movq	%r14, %rsi
1000034c8:	4c 8d 85 50 ff ff ff 	leaq	-176(%rbp), %r8
1000034cf:	ff 50 28 	callq	*40(%rax)
1000034d2:	89 c3 	movl	%eax, %ebx
1000034d4:	4c 8b a5 50 ff ff ff 	movq	-176(%rbp), %r12
1000034db:	49 8b 7f 40 	movq	64(%r15), %rdi
1000034df:	49 8b 4f 78 	movq	120(%r15), %rcx
1000034e3:	49 29 fc 	subq	%rdi, %r12
1000034e6:	be 01 00 00 00 	movl	$1, %esi
1000034eb:	4c 89 e2 	movq	%r12, %rdx
1000034ee:	e8 db 1c 00 00 	callq	7387
1000034f3:	4c 39 e0 	cmpq	%r12, %rax
1000034f6:	0f 85 bf 00 00 00 	jne	191 <__ZNSt3__113basic_filebufIcNS_11char_traitsIcEEE4syncEv+0x1cb>
1000034fc:	83 fb 01 	cmpl	$1, %ebx
1000034ff:	74 af 	je	-81 <__ZNSt3__113basic_filebufIcNS_11char_traitsIcEEE4syncEv+0xc0>
100003501:	83 fb 02 	cmpl	$2, %ebx
100003504:	0f 84 b1 00 00 00 	je	177 <__ZNSt3__113basic_filebufIcNS_11char_traitsIcEEE4syncEv+0x1cb>
10000350a:	49 8b 7f 78 	movq	120(%r15), %rdi
10000350e:	e8 9d 1c 00 00 	callq	7325
100003513:	85 c0 	testl	%eax, %eax
100003515:	0f 85 a0 00 00 00 	jne	160 <__ZNSt3__113basic_filebufIcNS_11char_traitsIcEEE4syncEv+0x1cb>
10000351b:	e9 98 00 00 00 	jmp	152 <__ZNSt3__113basic_filebufIcNS_11char_traitsIcEEE4syncEv+0x1c8>
100003520:	48 8b 08 	movq	(%rax), %rcx
100003523:	48 89 c7 	movq	%rax, %rdi
100003526:	ff 51 30 	callq	*48(%rcx)
100003529:	49 8b 4f 48 	movq	72(%r15), %rcx
10000352d:	4d 8b 77 50 	movq	80(%r15), %r14
100003531:	49 29 ce 	subq	%rcx, %r14
100003534:	85 c0 	testl	%eax, %eax
100003536:	0f 8e a4 00 00 00 	jle	164 <__ZNSt3__113basic_filebufIcNS_11char_traitsIcEEE4syncEv+0x1f0>
10000353c:	49 8b 4f 20 	movq	32(%r15), %rcx
100003540:	49 2b 4f 18 	subq	24(%r15), %rcx
100003544:	48 98 	cltq
100003546:	48 0f af c8 	imulq	%rax, %rcx
10000354a:	49 01 ce 	addq	%rcx, %r14
10000354d:	31 db 	xorl	%ebx, %ebx
10000354f:	49 8b 7f 78 	movq	120(%r15), %rdi
100003553:	49 f7 de 	negq	%r14
100003556:	ba 01 00 00 00 	movl	$1, %edx
10000355b:	4c 89 f6 	movq	%r14, %rsi
10000355e:	e8 5f 1c 00 00 	callq	7263
100003563:	85 c0 	testl	%eax, %eax
100003565:	74 08 	je	8 <__ZNSt3__113basic_filebufIcNS_11char_traitsIcEEE4syncEv+0x17f>
100003567:	41 bd ff ff ff ff 	movl	$4294967295, %r13d
10000356d:	eb 4c 	jmp	76 <__ZNSt3__113basic_filebufIcNS_11char_traitsIcEEE4syncEv+0x1cb>
10000356f:	84 db 	testb	%bl, %bl
100003571:	74 16 	je	22 <__ZNSt3__113basic_filebufIcNS_11char_traitsIcEEE4syncEv+0x199>
100003573:	49 8d bf 88 00 00 00 	leaq	136(%r15), %rdi
10000357a:	48 8d b5 50 ff ff ff 	leaq	-176(%rbp), %rsi
100003581:	b9 10 00 00 00 	movl	$16, %ecx
100003586:	f3 48 a5 	rep		movsq	(%rsi), %es:(%rdi)
100003589:	49 8b 47 40 	movq	64(%r15), %rax
10000358d:	49 89 47 50 	movq	%rax, 80(%r15)
100003591:	49 89 47 48 	movq	%rax, 72(%r15)
100003595:	41 c7 87 8c 01 00 00 00 00 00 00 	movl	$0, 396(%r15)
1000035a0:	49 c7 47 20 00 00 00 00 	movq	$0, 32(%r15)
1000035a8:	49 c7 47 18 00 00 00 00 	movq	$0, 24(%r15)
1000035b0:	49 c7 47 10 00 00 00 00 	movq	$0, 16(%r15)
1000035b8:	45 31 ed 	xorl	%r13d, %r13d
1000035bb:	48 8b 05 ae 2a 00 00 	movq	10926(%rip), %rax
1000035c2:	48 8b 00 	movq	(%rax), %rax
1000035c5:	48 3b 45 d0 	cmpq	-48(%rbp), %rax
1000035c9:	75 53 	jne	83 <__ZNSt3__113basic_filebufIcNS_11char_traitsIcEEE4syncEv+0x22e>
1000035cb:	44 89 e8 	movl	%r13d, %eax
1000035ce:	48 81 c4 88 00 00 00 	addq	$136, %rsp
1000035d5:	5b 	popq	%rbx
1000035d6:	41 5c 	popq	%r12
1000035d8:	41 5d 	popq	%r13
1000035da:	41 5e 	popq	%r14
1000035dc:	41 5f 	popq	%r15
1000035de:	5d 	popq	%rbp
1000035df:	c3 	retq
1000035e0:	4d 8b 47 18 	movq	24(%r15), %r8
1000035e4:	4d 3b 47 20 	cmpq	32(%r15), %r8
1000035e8:	0f 84 5f ff ff ff 	je	-161 <__ZNSt3__113basic_filebufIcNS_11char_traitsIcEEE4syncEv+0x15d>
1000035ee:	49 8b 57 40 	movq	64(%r15), %rdx
1000035f2:	49 8b bf 80 00 00 00 	movq	128(%r15), %rdi
1000035f9:	4d 2b 47 10 	subq	16(%r15), %r8
1000035fd:	48 8b 07 	movq	(%rdi), %rax
100003600:	48 8d b5 50 ff ff ff 	leaq	-176(%rbp), %rsi
100003607:	ff 50 40 	callq	*64(%rax)
10000360a:	48 98 	cltq
10000360c:	4d 03 77 48 	addq	72(%r15), %r14
100003610:	49 29 c6 	subq	%rax, %r14
100003613:	4d 2b 77 40 	subq	64(%r15), %r14
100003617:	b3 01 	movb	$1, %bl
100003619:	e9 31 ff ff ff 	jmp	-207 <__ZNSt3__113basic_filebufIcNS_11char_traitsIcEEE4syncEv+0x15f>
10000361e:	e8 7b 1b 00 00 	callq	7035
100003623:	bf 08 00 00 00 	movl	$8, %edi
100003628:	e8 4d 1b 00 00 	callq	6989
10000362d:	48 89 c3 	movq	%rax, %rbx
100003630:	48 89 df 	movq	%rbx, %rdi
100003633:	e8 18 1b 00 00 	callq	6936
100003638:	48 8b 35 09 2a 00 00 	movq	10761(%rip), %rsi
10000363f:	48 8b 15 f2 29 00 00 	movq	10738(%rip), %rdx
100003646:	48 89 df 	movq	%rbx, %rdi
100003649:	e8 44 1b 00 00 	callq	6980
10000364e:	66 90 	nop

__ZNSt3__113basic_filebufIcNS_11char_traitsIcEEE9underflowEv:
100003650:	55 	pushq	%rbp
100003651:	48 89 e5 	movq	%rsp, %rbp
100003654:	41 57 	pushq	%r15
100003656:	41 56 	pushq	%r14
100003658:	41 55 	pushq	%r13
10000365a:	41 54 	pushq	%r12
10000365c:	53 	pushq	%rbx
10000365d:	48 83 ec 18 	subq	$24, %rsp
100003661:	48 89 fb 	movq	%rdi, %rbx
100003664:	48 83 7b 78 00 	cmpq	$0, 120(%rbx)
100003669:	0f 84 86 00 00 00 	je	134 <__ZNSt3__113basic_filebufIcNS_11char_traitsIcEEE9underflowEv+0xa5>
10000366f:	f6 83 8c 01 00 00 08 	testb	$8, 396(%rbx)
100003676:	0f 85 83 00 00 00 	jne	131 <__ZNSt3__113basic_filebufIcNS_11char_traitsIcEEE9underflowEv+0xaf>
10000367c:	48 c7 43 38 00 00 00 00 	movq	$0, 56(%rbx)
100003684:	48 c7 43 30 00 00 00 00 	movq	$0, 48(%rbx)
10000368c:	48 c7 43 28 00 00 00 00 	movq	$0, 40(%rbx)
100003694:	48 8d 43 68 	leaq	104(%rbx), %rax
100003698:	48 8d 4b 70 	leaq	112(%rbx), %rcx
10000369c:	48 8d 53 40 	leaq	64(%rbx), %rdx
1000036a0:	48 8d 73 60 	leaq	96(%rbx), %rsi
1000036a4:	80 bb 92 01 00 00 00 	cmpb	$0, 402(%rbx)
1000036ab:	48 0f 44 f1 	cmoveq	%rcx, %rsi
1000036af:	48 0f 44 d0 	cmoveq	%rax, %rdx
1000036b3:	48 8b 02 	movq	(%rdx), %rax
1000036b6:	48 8b 36 	movq	(%rsi), %rsi
1000036b9:	48 01 c6 	addq	%rax, %rsi
1000036bc:	48 89 43 10 	movq	%rax, 16(%rbx)
1000036c0:	48 89 73 18 	movq	%rsi, 24(%rbx)
1000036c4:	48 89 73 20 	movq	%rsi, 32(%rbx)
1000036c8:	c7 83 8c 01 00 00 08 00 00 00 	movl	$8, 396(%rbx)
1000036d2:	b0 01 	movb	$1, %al
1000036d4:	48 85 f6 	testq	%rsi, %rsi
1000036d7:	74 31 	je	49 <__ZNSt3__113basic_filebufIcNS_11char_traitsIcEEE9underflowEv+0xba>
1000036d9:	84 c0 	testb	%al, %al
1000036db:	74 45 	je	69 <__ZNSt3__113basic_filebufIcNS_11char_traitsIcEEE9underflowEv+0xd2>
1000036dd:	48 8b 43 20 	movq	32(%rbx), %rax
1000036e1:	45 31 f6 	xorl	%r14d, %r14d
1000036e4:	48 39 c6 	cmpq	%rax, %rsi
1000036e7:	74 64 	je	100 <__ZNSt3__113basic_filebufIcNS_11char_traitsIcEEE9underflowEv+0xfd>
1000036e9:	0f b6 06 	movzbl	(%rsi), %eax
1000036ec:	4c 8d 63 10 	leaq	16(%rbx), %r12
1000036f0:	e9 bb 01 00 00 	jmp	443 <__ZNSt3__113basic_filebufIcNS_11char_traitsIcEEE9underflowEv+0x260>
1000036f5:	b8 ff ff ff ff 	movl	$4294967295, %eax
1000036fa:	e9 d3 01 00 00 	jmp	467 <__ZNSt3__113basic_filebufIcNS_11char_traitsIcEEE9underflowEv+0x282>
1000036ff:	48 8b 73 18 	movq	24(%rbx), %rsi
100003703:	31 c0 	xorl	%eax, %eax
100003705:	48 85 f6 	testq	%rsi, %rsi
100003708:	75 cf 	jne	-49 <__ZNSt3__113basic_filebufIcNS_11char_traitsIcEEE9underflowEv+0x89>
10000370a:	48 8d 75 d8 	leaq	-40(%rbp), %rsi
10000370e:	48 8d 4d d7 	leaq	-41(%rbp), %rcx
100003712:	48 89 4b 10 	movq	%rcx, 16(%rbx)
100003716:	48 89 73 18 	movq	%rsi, 24(%rbx)
10000371a:	48 89 73 20 	movq	%rsi, 32(%rbx)
10000371e:	84 c0 	testb	%al, %al
100003720:	75 bb 	jne	-69 <__ZNSt3__113basic_filebufIcNS_11char_traitsIcEEE9underflowEv+0x8d>
100003722:	48 8b 43 20 	movq	32(%rbx), %rax
100003726:	48 89 c1 	movq	%rax, %rcx
100003729:	48 2b 4b 10 	subq	16(%rbx), %rcx
10000372d:	48 89 ca 	movq	%rcx, %rdx
100003730:	48 c1 ea 3f 	shrq	$63, %rdx
100003734:	48 01 ca 	addq	%rcx, %rdx
100003737:	48 d1 fa 	sarq	%rdx
10000373a:	48 83 fa 04 	cmpq	$4, %rdx
10000373e:	41 be 04 00 00 00 	movl	$4, %r14d
100003744:	4c 0f 42 f2 	cmovbq	%rdx, %r14
100003748:	48 39 c6 	cmpq	%rax, %rsi
10000374b:	75 9c 	jne	-100 <__ZNSt3__113basic_filebufIcNS_11char_traitsIcEEE9underflowEv+0x99>
10000374d:	4c 8d 63 10 	leaq	16(%rbx), %r12
100003751:	48 8b 7b 10 	movq	16(%rbx), %rdi
100003755:	4c 29 f6 	subq	%r14, %rsi
100003758:	4c 89 f2 	movq	%r14, %rdx
10000375b:	e8 80 1a 00 00 	callq	6784
100003760:	80 bb 92 01 00 00 00 	cmpb	$0, 402(%rbx)
100003767:	74 45 	je	69 <__ZNSt3__113basic_filebufIcNS_11char_traitsIcEEE9underflowEv+0x15e>
100003769:	48 8b 7b 10 	movq	16(%rbx), %rdi
10000376d:	48 8b 53 20 	movq	32(%rbx), %rdx
100003771:	4c 29 f2 	subq	%r14, %rdx
100003774:	48 29 fa 	subq	%rdi, %rdx
100003777:	4c 01 f7 	addq	%r14, %rdi
10000377a:	48 8b 4b 78 	movq	120(%rbx), %rcx
10000377e:	be 01 00 00 00 	movl	$1, %esi
100003783:	e8 34 1a 00 00 	callq	6708
100003788:	48 85 c0 	testq	%rax, %rax
10000378b:	0f 84 1a 01 00 00 	je	282 <__ZNSt3__113basic_filebufIcNS_11char_traitsIcEEE9underflowEv+0x25b>
100003791:	48 8b 4b 10 	movq	16(%rbx), %rcx
100003795:	4a 8d 14 31 	leaq	(%rcx,%r14), %rdx
100003799:	48 89 53 18 	movq	%rdx, 24(%rbx)
10000379d:	48 01 d0 	addq	%rdx, %rax
1000037a0:	48 89 43 20 	movq	%rax, 32(%rbx)
1000037a4:	42 0f b6 04 31 	movzbl	(%rcx,%r14), %eax
1000037a9:	e9 02 01 00 00 	jmp	258 <__ZNSt3__113basic_filebufIcNS_11char_traitsIcEEE9underflowEv+0x260>
1000037ae:	48 8b 73 48 	movq	72(%rbx), %rsi
1000037b2:	48 8b 43 50 	movq	80(%rbx), %rax
1000037b6:	48 89 c2 	movq	%rax, %rdx
1000037b9:	48 29 f2 	subq	%rsi, %rdx
1000037bc:	74 11 	je	17 <__ZNSt3__113basic_filebufIcNS_11char_traitsIcEEE9underflowEv+0x17f>
1000037be:	48 8b 7b 40 	movq	64(%rbx), %rdi
1000037c2:	e8 19 1a 00 00 	callq	6681
1000037c7:	48 8b 73 48 	movq	72(%rbx), %rsi
1000037cb:	48 8b 43 50 	movq	80(%rbx), %rax
1000037cf:	48 29 f0 	subq	%rsi, %rax
1000037d2:	48 8b 53 40 	movq	64(%rbx), %rdx
1000037d6:	48 01 d0 	addq	%rdx, %rax
1000037d9:	48 89 43 48 	movq	%rax, 72(%rbx)
1000037dd:	48 8d 4b 58 	leaq	88(%rbx), %rcx
1000037e1:	48 39 ca 	cmpq	%rcx, %rdx
1000037e4:	74 06 	je	6 <__ZNSt3__113basic_filebufIcNS_11char_traitsIcEEE9underflowEv+0x19c>
1000037e6:	48 8b 4b 60 	movq	96(%rbx), %rcx
1000037ea:	eb 05 	jmp	5 <__ZNSt3__113basic_filebufIcNS_11char_traitsIcEEE9underflowEv+0x1a1>
1000037ec:	b9 08 00 00 00 	movl	$8, %ecx
1000037f1:	48 01 ca 	addq	%rcx, %rdx
1000037f4:	48 89 53 50 	movq	%rdx, 80(%rbx)
1000037f8:	48 8b 4b 70 	movq	112(%rbx), %rcx
1000037fc:	4c 29 f1 	subq	%r14, %rcx
1000037ff:	48 29 c2 	subq	%rax, %rdx
100003802:	48 39 ca 	cmpq	%rcx, %rdx
100003805:	48 0f 43 d1 	cmovaeq	%rcx, %rdx
100003809:	4c 8d bb 88 00 00 00 	leaq	136(%rbx), %r15
100003810:	48 8d bb 08 01 00 00 	leaq	264(%rbx), %rdi
100003817:	b9 10 00 00 00 	movl	$16, %ecx
10000381c:	4c 89 fe 	movq	%r15, %rsi
10000381f:	f3 48 a5 	rep		movsq	(%rsi), %es:(%rdi)
100003822:	48 8b 4b 78 	movq	120(%rbx), %rcx
100003826:	be 01 00 00 00 	movl	$1, %esi
10000382b:	48 89 c7 	movq	%rax, %rdi
10000382e:	e8 89 19 00 00 	callq	6537
100003833:	48 85 c0 	testq	%rax, %rax
100003836:	74 73 	je	115 <__ZNSt3__113basic_filebufIcNS_11char_traitsIcEEE9underflowEv+0x25b>
100003838:	48 8b bb 80 00 00 00 	movq	128(%rbx), %rdi
10000383f:	48 85 ff 	testq	%rdi, %rdi
100003842:	0f 84 99 00 00 00 	je	153 <__ZNSt3__113basic_filebufIcNS_11char_traitsIcEEE9underflowEv+0x291>
100003848:	4c 8d 43 48 	leaq	72(%rbx), %r8
10000384c:	48 03 43 48 	addq	72(%rbx), %rax
100003850:	48 89 43 50 	movq	%rax, 80(%rbx)
100003854:	4c 8b 53 10 	movq	16(%rbx), %r10
100003858:	48 8b 53 40 	movq	64(%rbx), %rdx
10000385c:	4f 8d 0c 32 	leaq	(%r10,%r14), %r9
100003860:	4c 03 53 70 	addq	112(%rbx), %r10
100003864:	4c 8b 1f 	movq	(%rdi), %r11
100003867:	4c 8d 6d c8 	leaq	-56(%rbp), %r13
10000386b:	4c 89 fe 	movq	%r15, %rsi
10000386e:	48 89 c1 	movq	%rax, %rcx
100003871:	41 55 	pushq	%r13
100003873:	41 52 	pushq	%r10
100003875:	41 ff 53 20 	callq	*32(%r11)
100003879:	48 83 c4 10 	addq	$16, %rsp
10000387d:	83 f8 03 	cmpl	$3, %eax
100003880:	75 0e 	jne	14 <__ZNSt3__113basic_filebufIcNS_11char_traitsIcEEE9underflowEv+0x240>
100003882:	4c 8b 73 40 	movq	64(%rbx), %r14
100003886:	48 8b 43 50 	movq	80(%rbx), %rax
10000388a:	4c 89 73 10 	movq	%r14, 16(%rbx)
10000388e:	eb 0d 	jmp	13 <__ZNSt3__113basic_filebufIcNS_11char_traitsIcEEE9underflowEv+0x24d>
100003890:	48 8b 45 c8 	movq	-56(%rbp), %rax
100003894:	4d 03 34 24 	addq	(%r12), %r14
100003898:	4c 39 f0 	cmpq	%r14, %rax
10000389b:	74 0e 	je	14 <__ZNSt3__113basic_filebufIcNS_11char_traitsIcEEE9underflowEv+0x25b>
10000389d:	4c 89 73 18 	movq	%r14, 24(%rbx)
1000038a1:	48 89 43 20 	movq	%rax, 32(%rbx)
1000038a5:	41 0f b6 06 	movzbl	(%r14), %eax
1000038a9:	eb 05 	jmp	5 <__ZNSt3__113basic_filebufIcNS_11char_traitsIcEEE9underflowEv+0x260>
1000038ab:	b8 ff ff ff ff 	movl	$4294967295, %eax
1000038b0:	48 8d 4d d7 	leaq	-41(%rbp), %rcx
1000038b4:	49 39 0c 24 	cmpq	%rcx, (%r12)
1000038b8:	75 18 	jne	24 <__ZNSt3__113basic_filebufIcNS_11char_traitsIcEEE9underflowEv+0x282>
1000038ba:	48 c7 43 10 00 00 00 00 	movq	$0, 16(%rbx)
1000038c2:	48 c7 43 18 00 00 00 00 	movq	$0, 24(%rbx)
1000038ca:	48 c7 43 20 00 00 00 00 	movq	$0, 32(%rbx)
1000038d2:	48 83 c4 18 	addq	$24, %rsp
1000038d6:	5b 	popq	%rbx
1000038d7:	41 5c 	popq	%r12
1000038d9:	41 5d 	popq	%r13
1000038db:	41 5e 	popq	%r14
1000038dd:	41 5f 	popq	%r15
1000038df:	5d 	popq	%rbp
1000038e0:	c3 	retq
1000038e1:	bf 08 00 00 00 	movl	$8, %edi
1000038e6:	e8 8f 18 00 00 	callq	6287
1000038eb:	48 89 c3 	movq	%rax, %rbx
1000038ee:	48 89 df 	movq	%rbx, %rdi
1000038f1:	e8 5a 18 00 00 	callq	6234
1000038f6:	48 8b 35 4b 27 00 00 	movq	10059(%rip), %rsi
1000038fd:	48 8b 15 34 27 00 00 	movq	10036(%rip), %rdx
100003904:	48 89 df 	movq	%rbx, %rdi
100003907:	e8 86 18 00 00 	callq	6278
10000390c:	0f 1f 40 00 	nopl	(%rax)

__ZNSt3__113basic_filebufIcNS_11char_traitsIcEEE9pbackfailEi:
100003910:	55 	pushq	%rbp
100003911:	48 89 e5 	movq	%rsp, %rbp
100003914:	b8 ff ff ff ff 	movl	$4294967295, %eax
100003919:	48 83 7f 78 00 	cmpq	$0, 120(%rdi)
10000391e:	74 2a 	je	42 <__ZNSt3__113basic_filebufIcNS_11char_traitsIcEEE9pbackfailEi+0x3a>
100003920:	48 8b 4f 18 	movq	24(%rdi), %rcx
100003924:	48 39 4f 10 	cmpq	%rcx, 16(%rdi)
100003928:	73 20 	jae	32 <__ZNSt3__113basic_filebufIcNS_11char_traitsIcEEE9pbackfailEi+0x3a>
10000392a:	83 fe ff 	cmpl	$-1, %esi
10000392d:	74 1d 	je	29 <__ZNSt3__113basic_filebufIcNS_11char_traitsIcEEE9pbackfailEi+0x3c>
10000392f:	f6 87 88 01 00 00 10 	testb	$16, 392(%rdi)
100003936:	75 06 	jne	6 <__ZNSt3__113basic_filebufIcNS_11char_traitsIcEEE9pbackfailEi+0x2e>
100003938:	40 38 71 ff 	cmpb	%sil, -1(%rcx)
10000393c:	75 0c 	jne	12 <__ZNSt3__113basic_filebufIcNS_11char_traitsIcEEE9pbackfailEi+0x3a>
10000393e:	48 ff c9 	decq	%rcx
100003941:	48 89 4f 18 	movq	%rcx, 24(%rdi)
100003945:	40 88 31 	movb	%sil, (%rcx)
100003948:	89 f0 	movl	%esi, %eax
10000394a:	5d 	popq	%rbp
10000394b:	c3 	retq
10000394c:	48 ff c9 	decq	%rcx
10000394f:	48 89 4f 18 	movq	%rcx, 24(%rdi)
100003953:	31 c0 	xorl	%eax, %eax
100003955:	5d 	popq	%rbp
100003956:	c3 	retq
100003957:	66 0f 1f 84 00 00 00 00 00 	nopw	(%rax,%rax)

__ZNSt3__113basic_filebufIcNS_11char_traitsIcEEE8overflowEi:
100003960:	55 	pushq	%rbp
100003961:	48 89 e5 	movq	%rsp, %rbp
100003964:	41 57 	pushq	%r15
100003966:	41 56 	pushq	%r14
100003968:	41 55 	pushq	%r13
10000396a:	41 54 	pushq	%r12
10000396c:	53 	pushq	%rbx
10000396d:	48 83 ec 38 	subq	$56, %rsp
100003971:	41 89 f6 	movl	%esi, %r14d
100003974:	49 89 fc 	movq	%rdi, %r12
100003977:	49 83 7c 24 78 00 	cmpq	$0, 120(%r12)
10000397d:	0f 84 b9 02 00 00 	je	697 <__ZNSt3__113basic_filebufIcNS_11char_traitsIcEEE8overflowEi+0x2dc>
100003983:	41 f6 84 24 8c 01 00 00 10 	testb	$16, 396(%r12)
10000398c:	75 38 	jne	56 <__ZNSt3__113basic_filebufIcNS_11char_traitsIcEEE8overflowEi+0x66>
10000398e:	49 c7 44 24 20 00 00 00 00 	movq	$0, 32(%r12)
100003997:	49 c7 44 24 18 00 00 00 00 	movq	$0, 24(%r12)
1000039a0:	49 c7 44 24 10 00 00 00 00 	movq	$0, 16(%r12)
1000039a9:	49 8b 4c 24 60 	movq	96(%r12), %rcx
1000039ae:	48 83 f9 09 	cmpq	$9, %rcx
1000039b2:	72 2f 	jb	47 <__ZNSt3__113basic_filebufIcNS_11char_traitsIcEEE8overflowEi+0x83>
1000039b4:	41 80 bc 24 92 01 00 00 00 	cmpb	$0, 402(%r12)
1000039bd:	74 56 	je	86 <__ZNSt3__113basic_filebufIcNS_11char_traitsIcEEE8overflowEi+0xb5>
1000039bf:	49 8b 44 24 40 	movq	64(%r12), %rax
1000039c4:	eb 59 	jmp	89 <__ZNSt3__113basic_filebufIcNS_11char_traitsIcEEE8overflowEi+0xbf>
1000039c6:	4d 8d 7c 24 28 	leaq	40(%r12), %r15
1000039cb:	49 8b 44 24 28 	movq	40(%r12), %rax
1000039d0:	4d 8b 6c 24 38 	movq	56(%r12), %r13
1000039d5:	49 8d 4c 24 38 	leaq	56(%r12), %rcx
1000039da:	48 89 4d c8 	movq	%rcx, -56(%rbp)
1000039de:	48 89 c2 	movq	%rax, %rdx
1000039e1:	eb 6d 	jmp	109 <__ZNSt3__113basic_filebufIcNS_11char_traitsIcEEE8overflowEi+0xf0>
1000039e3:	4d 8d 7c 24 28 	leaq	40(%r12), %r15
1000039e8:	49 c7 44 24 38 00 00 00 00 	movq	$0, 56(%r12)
1000039f1:	49 c7 44 24 30 00 00 00 00 	movq	$0, 48(%r12)
1000039fa:	49 c7 44 24 28 00 00 00 00 	movq	$0, 40(%r12)
100003a03:	49 8d 44 24 38 	leaq	56(%r12), %rax
100003a08:	48 89 45 c8 	movq	%rax, -56(%rbp)
100003a0c:	31 c0 	xorl	%eax, %eax
100003a0e:	45 31 ed 	xorl	%r13d, %r13d
100003a11:	31 d2 	xorl	%edx, %edx
100003a13:	eb 2f 	jmp	47 <__ZNSt3__113basic_filebufIcNS_11char_traitsIcEEE8overflowEi+0xe4>
100003a15:	49 8b 44 24 68 	movq	104(%r12), %rax
100003a1a:	49 8b 4c 24 70 	movq	112(%r12), %rcx
100003a1f:	4c 8d 6c 08 ff 	leaq	-1(%rax,%rcx), %r13
100003a24:	49 89 44 24 30 	movq	%rax, 48(%r12)
100003a29:	49 89 44 24 28 	movq	%rax, 40(%r12)
100003a2e:	4d 8d 7c 24 28 	leaq	40(%r12), %r15
100003a33:	49 8d 4c 24 38 	leaq	56(%r12), %rcx
100003a38:	48 89 4d c8 	movq	%rcx, -56(%rbp)
100003a3c:	4d 89 6c 24 38 	movq	%r13, 56(%r12)
100003a41:	48 89 c2 	movq	%rax, %rdx
100003a44:	41 c7 84 24 8c 01 00 00 10 00 00 00 	movl	$16, 396(%r12)
100003a50:	49 8b 4c 24 30 	movq	48(%r12), %rcx
100003a55:	41 83 fe ff 	cmpl	$-1, %r14d
100003a59:	74 31 	je	49 <__ZNSt3__113basic_filebufIcNS_11char_traitsIcEEE8overflowEi+0x12c>
100003a5b:	48 85 c9 	testq	%rcx, %rcx
100003a5e:	75 17 	jne	23 <__ZNSt3__113basic_filebufIcNS_11char_traitsIcEEE8overflowEi+0x117>
100003a60:	48 8d 45 d8 	leaq	-40(%rbp), %rax
100003a64:	48 8d 4d d7 	leaq	-41(%rbp), %rcx
100003a68:	49 89 4c 24 30 	movq	%rcx, 48(%r12)
100003a6d:	49 89 4c 24 28 	movq	%rcx, 40(%r12)
100003a72:	49 89 44 24 38 	movq	%rax, 56(%r12)
100003a77:	44 88 31 	movb	%r14b, (%rcx)
100003a7a:	49 8b 44 24 28 	movq	40(%r12), %rax
100003a7f:	49 8b 4c 24 30 	movq	48(%r12), %rcx
100003a84:	48 ff c1 	incq	%rcx
100003a87:	49 89 4c 24 30 	movq	%rcx, 48(%r12)
100003a8c:	48 89 cb 	movq	%rcx, %rbx
100003a8f:	48 29 c3 	subq	%rax, %rbx
100003a92:	74 48 	je	72 <__ZNSt3__113basic_filebufIcNS_11char_traitsIcEEE8overflowEi+0x17c>
100003a94:	48 89 55 a0 	movq	%rdx, -96(%rbp)
100003a98:	41 80 bc 24 92 01 00 00 00 	cmpb	$0, 402(%r12)
100003aa1:	74 48 	je	72 <__ZNSt3__113basic_filebufIcNS_11char_traitsIcEEE8overflowEi+0x18b>
100003aa3:	49 8b 4c 24 78 	movq	120(%r12), %rcx
100003aa8:	be 01 00 00 00 	movl	$1, %esi
100003aad:	48 89 c7 	movq	%rax, %rdi
100003ab0:	48 89 da 	movq	%rbx, %rdx
100003ab3:	e8 16 17 00 00 	callq	5910
100003ab8:	48 89 c1 	movq	%rax, %rcx
100003abb:	b8 ff ff ff ff 	movl	$4294967295, %eax
100003ac0:	48 39 d9 	cmpq	%rbx, %rcx
100003ac3:	0f 85 78 01 00 00 	jne	376 <__ZNSt3__113basic_filebufIcNS_11char_traitsIcEEE8overflowEi+0x2e1>
100003ac9:	48 8b 45 a0 	movq	-96(%rbp), %rax
100003acd:	49 89 44 24 30 	movq	%rax, 48(%r12)
100003ad2:	49 89 07 	movq	%rax, (%r15)
100003ad5:	48 8b 45 c8 	movq	-56(%rbp), %rax
100003ad9:	4c 89 28 	movq	%r13, (%rax)
100003adc:	31 c0 	xorl	%eax, %eax
100003ade:	41 83 fe ff 	cmpl	$-1, %r14d
100003ae2:	41 0f 45 c6 	cmovnel	%r14d, %eax
100003ae6:	e9 56 01 00 00 	jmp	342 <__ZNSt3__113basic_filebufIcNS_11char_traitsIcEEE8overflowEi+0x2e1>
100003aeb:	4c 89 6d a8 	movq	%r13, -88(%rbp)
100003aef:	4c 89 7d b8 	movq	%r15, -72(%rbp)
100003af3:	4d 8b 4c 24 40 	movq	64(%r12), %r9
100003af8:	4c 89 4d b0 	movq	%r9, -80(%rbp)
100003afc:	49 8b bc 24 80 00 00 00 	movq	128(%r12), %rdi
100003b04:	48 85 ff 	testq	%rdi, %rdi
100003b07:	0f 84 d8 00 00 00 	je	216 <__ZNSt3__113basic_filebufIcNS_11char_traitsIcEEE8overflowEi+0x285>
100003b0d:	4d 8d bc 24 88 00 00 00 	leaq	136(%r12), %r15
100003b15:	49 8b 5c 24 60 	movq	96(%r12), %rbx
100003b1a:	4c 01 cb 	addq	%r9, %rbx
100003b1d:	4c 8b 17 	movq	(%rdi), %r10
100003b20:	4c 8d 5d b0 	leaq	-80(%rbp), %r11
100003b24:	4c 8d 45 c0 	leaq	-64(%rbp), %r8
100003b28:	4c 89 fe 	movq	%r15, %rsi
100003b2b:	48 89 c2 	movq	%rax, %rdx
100003b2e:	41 53 	pushq	%r11
100003b30:	53 	pushq	%rbx
100003b31:	eb 2a 	jmp	42 <__ZNSt3__113basic_filebufIcNS_11char_traitsIcEEE8overflowEi+0x1fd>
100003b33:	66 66 66 66 2e 0f 1f 84 00 00 00 00 00 	nopw	%cs:(%rax,%rax)
100003b40:	4d 8b 4c 24 40 	movq	64(%r12), %r9
100003b45:	49 8b 44 24 60 	movq	96(%r12), %rax
100003b4a:	4c 01 c8 	addq	%r9, %rax
100003b4d:	4c 8b 17 	movq	(%rdi), %r10
100003b50:	4c 89 fe 	movq	%r15, %rsi
100003b53:	4c 8d 45 c0 	leaq	-64(%rbp), %r8
100003b57:	48 8d 5d b0 	leaq	-80(%rbp), %rbx
100003b5b:	53 	pushq	%rbx
100003b5c:	50 	pushq	%rax
100003b5d:	41 ff 52 18 	callq	*24(%r10)
100003b61:	48 83 c4 10 	addq	$16, %rsp
100003b65:	41 89 c5 	movl	%eax, %r13d
100003b68:	49 8b 7c 24 28 	movq	40(%r12), %rdi
100003b6d:	48 39 7d c0 	cmpq	%rdi, -64(%rbp)
100003b71:	0f 84 c5 00 00 00 	je	197 <__ZNSt3__113basic_filebufIcNS_11char_traitsIcEEE8overflowEi+0x2dc>
100003b77:	41 83 fd 03 	cmpl	$3, %r13d
100003b7b:	0f 84 8f 00 00 00 	je	143 <__ZNSt3__113basic_filebufIcNS_11char_traitsIcEEE8overflowEi+0x2b0>
100003b81:	41 83 fd 01 	cmpl	$1, %r13d
100003b85:	0f 87 b1 00 00 00 	ja	177 <__ZNSt3__113basic_filebufIcNS_11char_traitsIcEEE8overflowEi+0x2dc>
100003b8b:	48 8b 5d b0 	movq	-80(%rbp), %rbx
100003b8f:	49 8b 7c 24 40 	movq	64(%r12), %rdi
100003b94:	49 8b 4c 24 78 	movq	120(%r12), %rcx
100003b99:	48 29 fb 	subq	%rdi, %rbx
100003b9c:	be 01 00 00 00 	movl	$1, %esi
100003ba1:	48 89 da 	movq	%rbx, %rdx
100003ba4:	e8 25 16 00 00 	callq	5669
100003ba9:	48 39 d8 	cmpq	%rbx, %rax
100003bac:	0f 85 8a 00 00 00 	jne	138 <__ZNSt3__113basic_filebufIcNS_11char_traitsIcEEE8overflowEi+0x2dc>
100003bb2:	41 83 fd 01 	cmpl	$1, %r13d
100003bb6:	75 77 	jne	119 <__ZNSt3__113basic_filebufIcNS_11char_traitsIcEEE8overflowEi+0x2cf>
100003bb8:	48 8b 55 c0 	movq	-64(%rbp), %rdx
100003bbc:	49 8b 4c 24 30 	movq	48(%r12), %rcx
100003bc1:	48 8b 45 b8 	movq	-72(%rbp), %rax
100003bc5:	48 89 10 	movq	%rdx, (%rax)
100003bc8:	48 8b 45 c8 	movq	-56(%rbp), %rax
100003bcc:	48 89 08 	movq	%rcx, (%rax)
100003bcf:	49 89 4c 24 30 	movq	%rcx, 48(%r12)
100003bd4:	49 8b bc 24 80 00 00 00 	movq	128(%r12), %rdi
100003bdc:	48 85 ff 	testq	%rdi, %rdi
100003bdf:	0f 85 5b ff ff ff 	jne	-165 <__ZNSt3__113basic_filebufIcNS_11char_traitsIcEEE8overflowEi+0x1e0>
100003be5:	bf 08 00 00 00 	movl	$8, %edi
100003bea:	e8 8b 15 00 00 	callq	5515
100003bef:	48 89 c3 	movq	%rax, %rbx
100003bf2:	48 89 df 	movq	%rbx, %rdi
100003bf5:	e8 56 15 00 00 	callq	5462
100003bfa:	48 8b 35 47 24 00 00 	movq	9287(%rip), %rsi
100003c01:	48 8b 15 30 24 00 00 	movq	9264(%rip), %rdx
100003c08:	48 89 df 	movq	%rbx, %rdi
100003c0b:	e8 82 15 00 00 	callq	5506
100003c10:	49 8b 5c 24 30 	movq	48(%r12), %rbx
100003c15:	49 8b 4c 24 78 	movq	120(%r12), %rcx
100003c1a:	48 29 fb 	subq	%rdi, %rbx
100003c1d:	be 01 00 00 00 	movl	$1, %esi
100003c22:	48 89 da 	movq	%rbx, %rdx
100003c25:	e8 a4 15 00 00 	callq	5540
100003c2a:	48 39 d8 	cmpq	%rbx, %rax
100003c2d:	75 0d 	jne	13 <__ZNSt3__113basic_filebufIcNS_11char_traitsIcEEE8overflowEi+0x2dc>
100003c2f:	4c 8b 7d b8 	movq	-72(%rbp), %r15
100003c33:	4c 8b 6d a8 	movq	-88(%rbp), %r13
100003c37:	e9 8d fe ff ff 	jmp	-371 <__ZNSt3__113basic_filebufIcNS_11char_traitsIcEEE8overflowEi+0x169>
100003c3c:	b8 ff ff ff ff 	movl	$4294967295, %eax
100003c41:	48 83 c4 38 	addq	$56, %rsp
100003c45:	5b 	popq	%rbx
100003c46:	41 5c 	popq	%r12
100003c48:	41 5d 	popq	%r13
100003c4a:	41 5e 	popq	%r14
100003c4c:	41 5f 	popq	%r15
100003c4e:	5d 	popq	%rbp
100003c4f:	c3 	retq

__ZNSt3__113basic_filebufIcNS_11char_traitsIcEEEC2Ev:
100003c50:	55 	pushq	%rbp
100003c51:	48 89 e5 	movq	%rsp, %rbp
100003c54:	41 57 	pushq	%r15
100003c56:	41 56 	pushq	%r14
100003c58:	53 	pushq	%rbx
100003c59:	50 	pushq	%rax
100003c5a:	48 89 fb 	movq	%rdi, %rbx
100003c5d:	e8 be 14 00 00 	callq	5310
100003c62:	48 8b 05 ef 23 00 00 	movq	9199(%rip), %rax
100003c69:	48 83 c0 10 	addq	$16, %rax
100003c6d:	48 89 03 	movq	%rax, (%rbx)
100003c70:	48 8d 7b 60 	leaq	96(%rbx), %rdi
100003c74:	48 c7 43 50 00 00 00 00 	movq	$0, 80(%rbx)
100003c7c:	48 c7 43 48 00 00 00 00 	movq	$0, 72(%rbx)
100003c84:	48 c7 43 40 00 00 00 00 	movq	$0, 64(%rbx)
100003c8c:	be 33 01 00 00 	movl	$307, %esi
100003c91:	e8 de 14 00 00 	callq	5342
100003c96:	4c 8d 73 08 	leaq	8(%rbx), %r14
100003c9a:	4c 8d 7d e0 	leaq	-32(%rbp), %r15
100003c9e:	4c 89 ff 	movq	%r15, %rdi
100003ca1:	4c 89 f6 	movq	%r14, %rsi
100003ca4:	e8 83 14 00 00 	callq	5251
100003ca9:	48 8b 35 80 23 00 00 	movq	9088(%rip), %rsi
100003cb0:	4c 89 ff 	movq	%r15, %rdi
100003cb3:	e8 14 14 00 00 	callq	5140
100003cb8:	41 89 c7 	movl	%eax, %r15d
100003cbb:	48 8d 7d e0 	leaq	-32(%rbp), %rdi
100003cbf:	e8 6e 14 00 00 	callq	5230
100003cc4:	45 84 ff 	testb	%r15b, %r15b
100003cc7:	74 41 	je	65 <__ZNSt3__113basic_filebufIcNS_11char_traitsIcEEEC2Ev+0xba>
100003cc9:	4c 8d 7d e0 	leaq	-32(%rbp), %r15
100003ccd:	4c 89 ff 	movq	%r15, %rdi
100003cd0:	4c 89 f6 	movq	%r14, %rsi
100003cd3:	e8 54 14 00 00 	callq	5204
100003cd8:	48 8b 35 51 23 00 00 	movq	9041(%rip), %rsi
100003cdf:	4c 89 ff 	movq	%r15, %rdi
100003ce2:	e8 eb 13 00 00 	callq	5099
100003ce7:	48 89 83 80 00 00 00 	movq	%rax, 128(%rbx)
100003cee:	48 8d 7d e0 	leaq	-32(%rbp), %rdi
100003cf2:	e8 3b 14 00 00 	callq	5179
100003cf7:	48 8b bb 80 00 00 00 	movq	128(%rbx), %rdi
100003cfe:	48 8b 07 	movq	(%rdi), %rax
100003d01:	ff 50 38 	callq	*56(%rax)
100003d04:	88 83 92 01 00 00 	movb	%al, 402(%rbx)
100003d0a:	48 8b 03 	movq	(%rbx), %rax
100003d0d:	31 f6 	xorl	%esi, %esi
100003d0f:	ba 00 10 00 00 	movl	$4096, %edx
100003d14:	48 89 df 	movq	%rbx, %rdi
100003d17:	ff 50 18 	callq	*24(%rax)
100003d1a:	48 83 c4 08 	addq	$8, %rsp
100003d1e:	5b 	popq	%rbx
100003d1f:	41 5e 	popq	%r14
100003d21:	41 5f 	popq	%r15
100003d23:	5d 	popq	%rbp
100003d24:	c3 	retq
100003d25:	eb 10 	jmp	16 <__ZNSt3__113basic_filebufIcNS_11char_traitsIcEEEC2Ev+0xe7>
100003d27:	49 89 c6 	movq	%rax, %r14
100003d2a:	48 8d 7d e0 	leaq	-32(%rbp), %rdi
100003d2e:	e8 ff 13 00 00 	callq	5119
100003d33:	eb 05 	jmp	5 <__ZNSt3__113basic_filebufIcNS_11char_traitsIcEEEC2Ev+0xea>
100003d35:	eb 00 	jmp	0 <__ZNSt3__113basic_filebufIcNS_11char_traitsIcEEEC2Ev+0xe7>
100003d37:	49 89 c6 	movq	%rax, %r14
100003d3a:	48 89 df 	movq	%rbx, %rdi
100003d3d:	e8 e4 13 00 00 	callq	5092
100003d42:	4c 89 f7 	movq	%r14, %rdi
100003d45:	e8 76 13 00 00 	callq	4982
100003d4a:	0f 0b 	ud2
100003d4c:	48 89 c7 	movq	%rax, %rdi
100003d4f:	e8 3c da ff ff 	callq	-9668 <___clang_call_terminate>
100003d54:	48 89 c7 	movq	%rax, %rdi
100003d57:	e8 2a 14 00 00 	callq	5162
100003d5c:	0f 1f 40 00 	nopl	(%rax)

__ZNSt3__16vectorINS_12basic_stringIcNS_11char_traitsIcEENS_9allocatorIcEEEENS4_IS6_EEE21__push_back_slow_pathIKS6_EEvRT_:
100003d60:	55 	pushq	%rbp
100003d61:	48 89 e5 	movq	%rsp, %rbp
100003d64:	41 57 	pushq	%r15
100003d66:	41 56 	pushq	%r14
100003d68:	41 55 	pushq	%r13
100003d6a:	41 54 	pushq	%r12
100003d6c:	53 	pushq	%rbx
100003d6d:	48 83 ec 18 	subq	$24, %rsp
100003d71:	49 89 f4 	movq	%rsi, %r12
100003d74:	49 89 fd 	movq	%rdi, %r13
100003d77:	48 bf aa aa aa aa aa aa aa 0a 	movabsq	$768614336404564650, %rdi
100003d81:	49 8b 55 00 	movq	(%r13), %rdx
100003d85:	49 8b 5d 08 	movq	8(%r13), %rbx
100003d89:	48 29 d3 	subq	%rdx, %rbx
100003d8c:	48 c1 fb 03 	sarq	$3, %rbx
100003d90:	48 be ab aa aa aa aa aa aa aa 	movabsq	$-6148914691236517205, %rsi
100003d9a:	48 0f af de 	imulq	%rsi, %rbx
100003d9e:	48 8d 43 01 	leaq	1(%rbx), %rax
100003da2:	48 39 f8 	cmpq	%rdi, %rax
100003da5:	0f 87 38 01 00 00 	ja	312 <__ZNSt3__16vectorINS_12basic_stringIcNS_11char_traitsIcEENS_9allocatorIcEEEENS4_IS6_EEE21__push_back_slow_pathIKS6_EEvRT_+0x183>
100003dab:	49 8b 4d 10 	movq	16(%r13), %rcx
100003daf:	48 29 d1 	subq	%rdx, %rcx
100003db2:	48 c1 f9 03 	sarq	$3, %rcx
100003db6:	48 0f af ce 	imulq	%rsi, %rcx
100003dba:	48 ba 54 55 55 55 55 55 55 05 	movabsq	$384307168202282324, %rdx
100003dc4:	48 39 d1 	cmpq	%rdx, %rcx
100003dc7:	77 16 	ja	22 <__ZNSt3__16vectorINS_12basic_stringIcNS_11char_traitsIcEENS_9allocatorIcEEEENS4_IS6_EEE21__push_back_slow_pathIKS6_EEvRT_+0x7f>
100003dc9:	48 01 c9 	addq	%rcx, %rcx
100003dcc:	48 39 c1 	cmpq	%rax, %rcx
100003dcf:	48 0f 42 c8 	cmovbq	%rax, %rcx
100003dd3:	48 89 cf 	movq	%rcx, %rdi
100003dd6:	48 85 c9 	testq	%rcx, %rcx
100003dd9:	0f 84 f7 00 00 00 	je	247 <__ZNSt3__16vectorINS_12basic_stringIcNS_11char_traitsIcEENS_9allocatorIcEEEENS4_IS6_EEE21__push_back_slow_pathIKS6_EEvRT_+0x176>
100003ddf:	48 89 7d d0 	movq	%rdi, -48(%rbp)
100003de3:	48 8d 04 fd 00 00 00 00 	leaq	(,%rdi,8), %rax
100003deb:	48 8d 3c 40 	leaq	(%rax,%rax,2), %rdi
100003def:	e8 7a 13 00 00 	callq	4986
100003df4:	48 8d 0c 5b 	leaq	(%rbx,%rbx,2), %rcx
100003df8:	48 89 45 c8 	movq	%rax, -56(%rbp)
100003dfc:	48 8d 1c c8 	leaq	(%rax,%rcx,8), %rbx
100003e00:	48 89 df 	movq	%rbx, %rdi
100003e03:	4c 89 e6 	movq	%r12, %rsi
100003e06:	e8 d9 12 00 00 	callq	4825
100003e0b:	4c 8d 7b 18 	leaq	24(%rbx), %r15
100003e0f:	4d 8b 75 00 	movq	(%r13), %r14
100003e13:	4d 8b 65 08 	movq	8(%r13), %r12
100003e17:	4d 39 f4 	cmpq	%r14, %r12
100003e1a:	74 42 	je	66 <__ZNSt3__16vectorINS_12basic_stringIcNS_11char_traitsIcEENS_9allocatorIcEEEENS4_IS6_EEE21__push_back_slow_pathIKS6_EEvRT_+0xfe>
100003e1c:	4c 89 6d c0 	movq	%r13, -64(%rbp)
100003e20:	4d 29 e6 	subq	%r12, %r14
100003e23:	49 83 c4 e8 	addq	$-24, %r12
100003e27:	49 89 dd 	movq	%rbx, %r13
100003e2a:	66 0f 1f 44 00 00 	nopw	(%rax,%rax)
100003e30:	48 83 c3 e8 	addq	$-24, %rbx
100003e34:	48 89 df 	movq	%rbx, %rdi
100003e37:	4c 89 e6 	movq	%r12, %rsi
100003e3a:	e8 a5 12 00 00 	callq	4773
100003e3f:	49 83 c5 e8 	addq	$-24, %r13
100003e43:	4c 89 eb 	movq	%r13, %rbx
100003e46:	49 83 c4 e8 	addq	$-24, %r12
100003e4a:	49 83 c6 18 	addq	$24, %r14
100003e4e:	75 e0 	jne	-32 <__ZNSt3__16vectorINS_12basic_stringIcNS_11char_traitsIcEENS_9allocatorIcEEEENS4_IS6_EEE21__push_back_slow_pathIKS6_EEvRT_+0xd0>
100003e50:	4c 8b 6d c0 	movq	-64(%rbp), %r13
100003e54:	4d 8b 65 00 	movq	(%r13), %r12
100003e58:	4d 8b 75 08 	movq	8(%r13), %r14
100003e5c:	eb 03 	jmp	3 <__ZNSt3__16vectorINS_12basic_stringIcNS_11char_traitsIcEENS_9allocatorIcEEEENS4_IS6_EEE21__push_back_slow_pathIKS6_EEvRT_+0x101>
100003e5e:	4d 89 f4 	movq	%r14, %r12
100003e61:	48 8b 45 d0 	movq	-48(%rbp), %rax
100003e65:	48 8d 04 40 	leaq	(%rax,%rax,2), %rax
100003e69:	49 89 5d 00 	movq	%rbx, (%r13)
100003e6d:	4d 89 7d 08 	movq	%r15, 8(%r13)
100003e71:	48 8b 4d c8 	movq	-56(%rbp), %rcx
100003e75:	48 8d 04 c1 	leaq	(%rcx,%rax,8), %rax
100003e79:	49 89 45 10 	movq	%rax, 16(%r13)
100003e7d:	4d 39 e6 	cmpq	%r12, %r14
100003e80:	74 2a 	je	42 <__ZNSt3__16vectorINS_12basic_stringIcNS_11char_traitsIcEENS_9allocatorIcEEEENS4_IS6_EEE21__push_back_slow_pathIKS6_EEvRT_+0x14c>
100003e82:	66 66 66 66 66 2e 0f 1f 84 00 00 00 00 00 	nopw	%cs:(%rax,%rax)
100003e90:	49 8d 5e e8 	leaq	-24(%r14), %rbx
100003e94:	41 f6 46 e8 01 	testb	$1, -24(%r14)
100003e99:	74 09 	je	9 <__ZNSt3__16vectorINS_12basic_stringIcNS_11char_traitsIcEENS_9allocatorIcEEEENS4_IS6_EEE21__push_back_slow_pathIKS6_EEvRT_+0x144>
100003e9b:	49 8b 7e f8 	movq	-8(%r14), %rdi
100003e9f:	e8 be 12 00 00 	callq	4798
100003ea4:	49 89 de 	movq	%rbx, %r14
100003ea7:	49 39 dc 	cmpq	%rbx, %r12
100003eaa:	75 e4 	jne	-28 <__ZNSt3__16vectorINS_12basic_stringIcNS_11char_traitsIcEENS_9allocatorIcEEEENS4_IS6_EEE21__push_back_slow_pathIKS6_EEvRT_+0x130>
100003eac:	4d 85 e4 	testq	%r12, %r12
100003eaf:	74 16 	je	22 <__ZNSt3__16vectorINS_12basic_stringIcNS_11char_traitsIcEENS_9allocatorIcEEEENS4_IS6_EEE21__push_back_slow_pathIKS6_EEvRT_+0x167>
100003eb1:	4c 89 e7 	movq	%r12, %rdi
100003eb4:	48 83 c4 18 	addq	$24, %rsp
100003eb8:	5b 	popq	%rbx
100003eb9:	41 5c 	popq	%r12
100003ebb:	41 5d 	popq	%r13
100003ebd:	41 5e 	popq	%r14
100003ebf:	41 5f 	popq	%r15
100003ec1:	5d 	popq	%rbp
100003ec2:	e9 9b 12 00 00 	jmp	4763
100003ec7:	48 83 c4 18 	addq	$24, %rsp
100003ecb:	5b 	popq	%rbx
100003ecc:	41 5c 	popq	%r12
100003ece:	41 5d 	popq	%r13
100003ed0:	41 5e 	popq	%r14
100003ed2:	41 5f 	popq	%r15
100003ed4:	5d 	popq	%rbp
100003ed5:	c3 	retq
100003ed6:	31 c0 	xorl	%eax, %eax
100003ed8:	48 89 45 d0 	movq	%rax, -48(%rbp)
100003edc:	31 c0 	xorl	%eax, %eax
100003ede:	e9 11 ff ff ff 	jmp	-239 <__ZNSt3__16vectorINS_12basic_stringIcNS_11char_traitsIcEENS_9allocatorIcEEEENS4_IS6_EEE21__push_back_slow_pathIKS6_EEvRT_+0x94>
100003ee3:	4c 89 ef 	movq	%r13, %rdi
100003ee6:	e8 db 11 00 00 	callq	4571
100003eeb:	49 89 c6 	movq	%rax, %r14
100003eee:	49 89 dd 	movq	%rbx, %r13
100003ef1:	49 89 df 	movq	%rbx, %r15
100003ef4:	4d 39 ef 	cmpq	%r13, %r15
100003ef7:	75 17 	jne	23 <__ZNSt3__16vectorINS_12basic_stringIcNS_11char_traitsIcEENS_9allocatorIcEEEENS4_IS6_EEE21__push_back_slow_pathIKS6_EEvRT_+0x1b0>
100003ef9:	eb 31 	jmp	49 <__ZNSt3__16vectorINS_12basic_stringIcNS_11char_traitsIcEENS_9allocatorIcEEEENS4_IS6_EEE21__push_back_slow_pathIKS6_EEvRT_+0x1cc>
100003efb:	49 89 c6 	movq	%rax, %r14
100003efe:	4d 39 ef 	cmpq	%r13, %r15
100003f01:	74 29 	je	41 <__ZNSt3__16vectorINS_12basic_stringIcNS_11char_traitsIcEENS_9allocatorIcEEEENS4_IS6_EEE21__push_back_slow_pathIKS6_EEvRT_+0x1cc>
100003f03:	66 66 66 66 2e 0f 1f 84 00 00 00 00 00 	nopw	%cs:(%rax,%rax)
100003f10:	49 8d 5f e8 	leaq	-24(%r15), %rbx
100003f14:	41 f6 47 e8 01 	testb	$1, -24(%r15)
100003f19:	74 09 	je	9 <__ZNSt3__16vectorINS_12basic_stringIcNS_11char_traitsIcEENS_9allocatorIcEEEENS4_IS6_EEE21__push_back_slow_pathIKS6_EEvRT_+0x1c4>
100003f1b:	49 8b 7f f8 	movq	-8(%r15), %rdi
100003f1f:	e8 3e 12 00 00 	callq	4670
100003f24:	49 89 df 	movq	%rbx, %r15
100003f27:	49 39 dd 	cmpq	%rbx, %r13
100003f2a:	75 e4 	jne	-28 <__ZNSt3__16vectorINS_12basic_stringIcNS_11char_traitsIcEENS_9allocatorIcEEEENS4_IS6_EEE21__push_back_slow_pathIKS6_EEvRT_+0x1b0>
100003f2c:	48 8b 7d c8 	movq	-56(%rbp), %rdi
100003f30:	48 85 ff 	testq	%rdi, %rdi
100003f33:	74 05 	je	5 <__ZNSt3__16vectorINS_12basic_stringIcNS_11char_traitsIcEENS_9allocatorIcEEEENS4_IS6_EEE21__push_back_slow_pathIKS6_EEvRT_+0x1da>
100003f35:	e8 28 12 00 00 	callq	4648
100003f3a:	4c 89 f7 	movq	%r14, %rdi
100003f3d:	e8 7e 11 00 00 	callq	4478
100003f42:	0f 0b 	ud2
100003f44:	66 66 66 2e 0f 1f 84 00 00 00 00 00 	nopw	%cs:(%rax,%rax)

__ZNSt3__16__sortIR7comparePNS_12basic_stringIcNS_11char_traitsIcEENS_9allocatorIcEEEEEEvT0_SA_T_:
100003f50:	55 	pushq	%rbp
100003f51:	48 89 e5 	movq	%rsp, %rbp
100003f54:	41 57 	pushq	%r15
100003f56:	41 56 	pushq	%r14
100003f58:	41 55 	pushq	%r13
100003f5a:	41 54 	pushq	%r12
100003f5c:	53 	pushq	%rbx
100003f5d:	48 83 ec 38 	subq	$56, %rsp
100003f61:	48 89 55 b8 	movq	%rdx, -72(%rbp)
100003f65:	49 89 f5 	movq	%rsi, %r13
100003f68:	48 89 fb 	movq	%rdi, %rbx
100003f6b:	eb 23 	jmp	35 <__ZNSt3__16__sortIR7comparePNS_12basic_stringIcNS_11char_traitsIcEENS_9allocatorIcEEEEEEvT0_SA_T_+0x40>
100003f6d:	49 8d 7e 18 	leaq	24(%r14), %rdi
100003f71:	4c 89 ee 	movq	%r13, %rsi
100003f74:	48 8b 55 b8 	movq	-72(%rbp), %rdx
100003f78:	e8 d3 ff ff ff 	callq	-45 <__ZNSt3__16__sortIR7comparePNS_12basic_stringIcNS_11char_traitsIcEENS_9allocatorIcEEEEEEvT0_SA_T_>
100003f7d:	4d 89 f5 	movq	%r14, %r13
100003f80:	4c 89 e3 	movq	%r12, %rbx
100003f83:	66 66 66 66 2e 0f 1f 84 00 00 00 00 00 	nopw	%cs:(%rax,%rax)
100003f90:	49 be ab aa aa aa aa aa aa aa 	movabsq	$-6148914691236517205, %r14
100003f9a:	4d 8d 7d e8 	leaq	-24(%r13), %r15
100003f9e:	49 8d 45 d0 	leaq	-48(%r13), %rax
100003fa2:	48 89 45 a8 	movq	%rax, -88(%rbp)
100003fa6:	49 89 dc 	movq	%rbx, %r12
100003fa9:	4c 89 6d b0 	movq	%r13, -80(%rbp)
100003fad:	eb 21 	jmp	33 <__ZNSt3__16__sortIR7comparePNS_12basic_stringIcNS_11char_traitsIcEENS_9allocatorIcEEEEEEvT0_SA_T_+0x80>
100003faf:	90 	nop
100003fb0:	4c 89 e7 	movq	%r12, %rdi
100003fb3:	4c 89 f6 	movq	%r14, %rsi
100003fb6:	48 8b 55 b8 	movq	-72(%rbp), %rdx
100003fba:	e8 91 ff ff ff 	callq	-111 <__ZNSt3__16__sortIR7comparePNS_12basic_stringIcNS_11char_traitsIcEENS_9allocatorIcEEEEEEvT0_SA_T_>
100003fbf:	49 83 c6 18 	addq	$24, %r14
100003fc3:	4d 89 f4 	movq	%r14, %r12
100003fc6:	49 be ab aa aa aa aa aa aa aa 	movabsq	$-6148914691236517205, %r14
100003fd0:	4c 89 e9 	movq	%r13, %rcx
100003fd3:	4c 29 e1 	subq	%r12, %rcx
100003fd6:	48 89 c8 	movq	%rcx, %rax
100003fd9:	48 c1 f8 03 	sarq	$3, %rax
100003fdd:	49 0f af c6 	imulq	%r14, %rax
100003fe1:	48 83 f8 05 	cmpq	$5, %rax
100003fe5:	0f 86 50 05 00 00 	jbe	1360 <__ZNSt3__16__sortIR7comparePNS_12basic_stringIcNS_11char_traitsIcEENS_9allocatorIcEEEEEEvT0_SA_T_+0x5eb>
100003feb:	48 81 f9 a7 00 00 00 	cmpq	$167, %rcx
100003ff2:	0f 8e 68 05 00 00 	jle	1384 <__ZNSt3__16__sortIR7comparePNS_12basic_stringIcNS_11char_traitsIcEENS_9allocatorIcEEEEEEvT0_SA_T_+0x610>
100003ff8:	48 89 c8 	movq	%rcx, %rax
100003ffb:	49 f7 e6 	mulq	%r14
100003ffe:	48 c1 ea 05 	shrq	$5, %rdx
100004002:	48 8d 1c 52 	leaq	(%rdx,%rdx,2), %rbx
100004006:	4d 8d 2c dc 	leaq	(%r12,%rbx,8), %r13
10000400a:	48 81 f9 a9 5d 00 00 	cmpq	$23977, %rcx
100004011:	7c 2d 	jl	45 <__ZNSt3__16__sortIR7comparePNS_12basic_stringIcNS_11char_traitsIcEENS_9allocatorIcEEEEEEvT0_SA_T_+0xf0>
100004013:	48 89 c8 	movq	%rcx, %rax
100004016:	49 f7 e6 	mulq	%r14
100004019:	48 c1 ea 06 	shrq	$6, %rdx
10000401d:	48 c1 e2 03 	shlq	$3, %rdx
100004021:	48 8d 0c 52 	leaq	(%rdx,%rdx,2), %rcx
100004025:	49 8d 34 0c 	leaq	(%r12,%rcx), %rsi
100004029:	4c 01 e9 	addq	%r13, %rcx
10000402c:	4c 89 e7 	movq	%r12, %rdi
10000402f:	4c 89 ea 	movq	%r13, %rdx
100004032:	4d 89 f8 	movq	%r15, %r8
100004035:	4c 8b 4d b8 	movq	-72(%rbp), %r9
100004039:	e8 32 0a 00 00 	callq	2610 <__ZNSt3__17__sort5IR7comparePNS_12basic_stringIcNS_11char_traitsIcEENS_9allocatorIcEEEEEEjT0_SA_SA_SA_SA_T_>
10000403e:	eb 12 	jmp	18 <__ZNSt3__16__sortIR7comparePNS_12basic_stringIcNS_11char_traitsIcEENS_9allocatorIcEEEEEEvT0_SA_T_+0x102>
100004040:	4c 89 e7 	movq	%r12, %rdi
100004043:	4c 89 ee 	movq	%r13, %rsi
100004046:	4c 89 fa 	movq	%r15, %rdx
100004049:	48 8b 4d b8 	movq	-72(%rbp), %rcx
10000404d:	e8 4e 06 00 00 	callq	1614 <__ZNSt3__17__sort3IR7comparePNS_12basic_stringIcNS_11char_traitsIcEENS_9allocatorIcEEEEEEjT0_SA_SA_T_>
100004052:	41 8a 0c 24 	movb	(%r12), %cl
100004056:	f6 c1 01 	testb	$1, %cl
100004059:	74 15 	je	21 <__ZNSt3__16__sortIR7comparePNS_12basic_stringIcNS_11char_traitsIcEENS_9allocatorIcEEEEEEvT0_SA_T_+0x120>
10000405b:	49 8b 54 24 08 	movq	8(%r12), %rdx
100004060:	eb 13 	jmp	19 <__ZNSt3__16__sortIR7comparePNS_12basic_stringIcNS_11char_traitsIcEENS_9allocatorIcEEEEEEvT0_SA_T_+0x125>
100004062:	66 66 66 66 66 2e 0f 1f 84 00 00 00 00 00 	nopw	%cs:(%rax,%rax)
100004070:	d0 e9 	shrb	%cl
100004072:	0f b6 d1 	movzbl	%cl, %edx
100004075:	41 8a 4d 00 	movb	(%r13), %cl
100004079:	f6 c1 01 	testb	$1, %cl
10000407c:	74 62 	je	98 <__ZNSt3__16__sortIR7comparePNS_12basic_stringIcNS_11char_traitsIcEENS_9allocatorIcEEEEEEvT0_SA_T_+0x190>
10000407e:	49 8b 74 dc 08 	movq	8(%r12,%rbx,8), %rsi
100004083:	48 39 f2 	cmpq	%rsi, %rdx
100004086:	77 62 	ja	98 <__ZNSt3__16__sortIR7comparePNS_12basic_stringIcNS_11char_traitsIcEENS_9allocatorIcEEEEEEvT0_SA_T_+0x19a>
100004088:	48 8b 7d a8 	movq	-88(%rbp), %rdi
10000408c:	48 89 f9 	movq	%rdi, %rcx
10000408f:	49 39 fc 	cmpq	%rdi, %r12
100004092:	0f 84 a8 02 00 00 	je	680 <__ZNSt3__16__sortIR7comparePNS_12basic_stringIcNS_11char_traitsIcEENS_9allocatorIcEEEEEEvT0_SA_T_+0x3f0>
100004098:	0f 1f 84 00 00 00 00 00 	nopl	(%rax,%rax)
1000040a0:	0f b6 19 	movzbl	(%rcx), %ebx
1000040a3:	f6 c3 01 	testb	$1, %bl
1000040a6:	74 18 	je	24 <__ZNSt3__16__sortIR7comparePNS_12basic_stringIcNS_11char_traitsIcEENS_9allocatorIcEEEEEEvT0_SA_T_+0x170>
1000040a8:	48 8b 79 08 	movq	8(%rcx), %rdi
1000040ac:	48 39 f7 	cmpq	%rsi, %rdi
1000040af:	76 19 	jbe	25 <__ZNSt3__16__sortIR7comparePNS_12basic_stringIcNS_11char_traitsIcEENS_9allocatorIcEEEEEEvT0_SA_T_+0x17a>
1000040b1:	eb 3d 	jmp	61 <__ZNSt3__16__sortIR7comparePNS_12basic_stringIcNS_11char_traitsIcEENS_9allocatorIcEEEEEEvT0_SA_T_+0x1a0>
1000040b3:	66 66 66 66 2e 0f 1f 84 00 00 00 00 00 	nopw	%cs:(%rax,%rax)
1000040c0:	d0 eb 	shrb	%bl
1000040c2:	0f b6 fb 	movzbl	%bl, %edi
1000040c5:	48 39 f7 	cmpq	%rsi, %rdi
1000040c8:	77 26 	ja	38 <__ZNSt3__16__sortIR7comparePNS_12basic_stringIcNS_11char_traitsIcEENS_9allocatorIcEEEEEEvT0_SA_T_+0x1a0>
1000040ca:	48 83 c1 e8 	addq	$-24, %rcx
1000040ce:	49 39 cc 	cmpq	%rcx, %r12
1000040d1:	75 cd 	jne	-51 <__ZNSt3__16__sortIR7comparePNS_12basic_stringIcNS_11char_traitsIcEENS_9allocatorIcEEEEEEvT0_SA_T_+0x150>
1000040d3:	e9 68 02 00 00 	jmp	616 <__ZNSt3__16__sortIR7comparePNS_12basic_stringIcNS_11char_traitsIcEENS_9allocatorIcEEEEEEvT0_SA_T_+0x3f0>
1000040d8:	0f 1f 84 00 00 00 00 00 	nopl	(%rax,%rax)
1000040e0:	d0 e9 	shrb	%cl
1000040e2:	0f b6 f1 	movzbl	%cl, %esi
1000040e5:	48 39 f2 	cmpq	%rsi, %rdx
1000040e8:	76 9e 	jbe	-98 <__ZNSt3__16__sortIR7comparePNS_12basic_stringIcNS_11char_traitsIcEENS_9allocatorIcEEEEEEvT0_SA_T_+0x138>
1000040ea:	4c 89 f9 	movq	%r15, %rcx
1000040ed:	eb 4d 	jmp	77 <__ZNSt3__16__sortIR7comparePNS_12basic_stringIcNS_11char_traitsIcEENS_9allocatorIcEEEEEEvT0_SA_T_+0x1ec>
1000040ef:	90 	nop
1000040f0:	49 8b 54 24 10 	movq	16(%r12), %rdx
1000040f5:	48 89 55 d0 	movq	%rdx, -48(%rbp)
1000040f9:	49 8b 14 24 	movq	(%r12), %rdx
1000040fd:	49 8b 74 24 08 	movq	8(%r12), %rsi
100004102:	48 89 75 c8 	movq	%rsi, -56(%rbp)
100004106:	48 89 55 c0 	movq	%rdx, -64(%rbp)
10000410a:	48 8b 51 10 	movq	16(%rcx), %rdx
10000410e:	49 89 54 24 10 	movq	%rdx, 16(%r12)
100004113:	48 8b 11 	movq	(%rcx), %rdx
100004116:	48 8b 71 08 	movq	8(%rcx), %rsi
10000411a:	49 89 74 24 08 	movq	%rsi, 8(%r12)
10000411f:	49 89 14 24 	movq	%rdx, (%r12)
100004123:	48 8b 55 d0 	movq	-48(%rbp), %rdx
100004127:	48 89 51 10 	movq	%rdx, 16(%rcx)
10000412b:	48 8b 55 c0 	movq	-64(%rbp), %rdx
10000412f:	48 8b 75 c8 	movq	-56(%rbp), %rsi
100004133:	48 89 71 08 	movq	%rsi, 8(%rcx)
100004137:	48 89 11 	movq	%rdx, (%rcx)
10000413a:	ff c0 	incl	%eax
10000413c:	4d 8d 74 24 18 	leaq	24(%r12), %r14
100004141:	49 39 ce 	cmpq	%rcx, %r14
100004144:	72 67 	jb	103 <__ZNSt3__16__sortIR7comparePNS_12basic_stringIcNS_11char_traitsIcEENS_9allocatorIcEEEEEEvT0_SA_T_+0x25d>
100004146:	4d 39 ee 	cmpq	%r13, %r14
100004149:	0f 85 e4 00 00 00 	jne	228 <__ZNSt3__16__sortIR7comparePNS_12basic_stringIcNS_11char_traitsIcEENS_9allocatorIcEEEEEEvT0_SA_T_+0x2e3>
10000414f:	e9 6e 01 00 00 	jmp	366 <__ZNSt3__16__sortIR7comparePNS_12basic_stringIcNS_11char_traitsIcEENS_9allocatorIcEEEEEEvT0_SA_T_+0x372>
100004154:	66 66 66 2e 0f 1f 84 00 00 00 00 00 	nopw	%cs:(%rax,%rax)
100004160:	48 8b 72 10 	movq	16(%rdx), %rsi
100004164:	48 89 75 d0 	movq	%rsi, -48(%rbp)
100004168:	48 8b 32 	movq	(%rdx), %rsi
10000416b:	48 8b 7a 08 	movq	8(%rdx), %rdi
10000416f:	48 89 7d c8 	movq	%rdi, -56(%rbp)
100004173:	48 89 75 c0 	movq	%rsi, -64(%rbp)
100004177:	48 8b 71 10 	movq	16(%rcx), %rsi
10000417b:	48 89 72 10 	movq	%rsi, 16(%rdx)
10000417f:	48 8b 31 	movq	(%rcx), %rsi
100004182:	48 8b 79 08 	movq	8(%rcx), %rdi
100004186:	48 89 7a 08 	movq	%rdi, 8(%rdx)
10000418a:	48 89 32 	movq	%rsi, (%rdx)
10000418d:	48 8b 75 d0 	movq	-48(%rbp), %rsi
100004191:	48 89 71 10 	movq	%rsi, 16(%rcx)
100004195:	48 8b 75 c0 	movq	-64(%rbp), %rsi
100004199:	48 8b 7d c8 	movq	-56(%rbp), %rdi
10000419d:	48 89 79 08 	movq	%rdi, 8(%rcx)
1000041a1:	48 89 31 	movq	%rsi, (%rcx)
1000041a4:	ff c0 	incl	%eax
1000041a6:	49 39 d5 	cmpq	%rdx, %r13
1000041a9:	4c 0f 44 e9 	cmoveq	%rcx, %r13
1000041ad:	41 8a 55 00 	movb	(%r13), %dl
1000041b1:	f6 c2 01 	testb	$1, %dl
1000041b4:	74 0a 	je	10 <__ZNSt3__16__sortIR7comparePNS_12basic_stringIcNS_11char_traitsIcEENS_9allocatorIcEEEEEEvT0_SA_T_+0x270>
1000041b6:	49 8b 75 08 	movq	8(%r13), %rsi
1000041ba:	eb 09 	jmp	9 <__ZNSt3__16__sortIR7comparePNS_12basic_stringIcNS_11char_traitsIcEENS_9allocatorIcEEEEEEvT0_SA_T_+0x275>
1000041bc:	0f 1f 40 00 	nopl	(%rax)
1000041c0:	d0 ea 	shrb	%dl
1000041c2:	0f b6 f2 	movzbl	%dl, %esi
1000041c5:	49 83 c6 e8 	addq	$-24, %r14
1000041c9:	4c 89 f2 	movq	%r14, %rdx
1000041cc:	0f 1f 40 00 	nopl	(%rax)
1000041d0:	0f b6 5a 18 	movzbl	24(%rdx), %ebx
1000041d4:	f6 c3 01 	testb	$1, %bl
1000041d7:	74 07 	je	7 <__ZNSt3__16__sortIR7comparePNS_12basic_stringIcNS_11char_traitsIcEENS_9allocatorIcEEEEEEvT0_SA_T_+0x290>
1000041d9:	48 8b 7a 20 	movq	32(%rdx), %rdi
1000041dd:	eb 06 	jmp	6 <__ZNSt3__16__sortIR7comparePNS_12basic_stringIcNS_11char_traitsIcEENS_9allocatorIcEEEEEEvT0_SA_T_+0x295>
1000041df:	90 	nop
1000041e0:	d0 eb 	shrb	%bl
1000041e2:	0f b6 fb 	movzbl	%bl, %edi
1000041e5:	48 83 c2 18 	addq	$24, %rdx
1000041e9:	48 39 f7 	cmpq	%rsi, %rdi
1000041ec:	77 e2 	ja	-30 <__ZNSt3__16__sortIR7comparePNS_12basic_stringIcNS_11char_traitsIcEENS_9allocatorIcEEEEEEvT0_SA_T_+0x280>
1000041ee:	4c 8d 72 18 	leaq	24(%rdx), %r14
1000041f2:	66 66 66 66 66 2e 0f 1f 84 00 00 00 00 00 	nopw	%cs:(%rax,%rax)
100004200:	0f b6 59 e8 	movzbl	-24(%rcx), %ebx
100004204:	f6 c3 01 	testb	$1, %bl
100004207:	74 07 	je	7 <__ZNSt3__16__sortIR7comparePNS_12basic_stringIcNS_11char_traitsIcEENS_9allocatorIcEEEEEEvT0_SA_T_+0x2c0>
100004209:	48 8b 79 f0 	movq	-16(%rcx), %rdi
10000420d:	eb 06 	jmp	6 <__ZNSt3__16__sortIR7comparePNS_12basic_stringIcNS_11char_traitsIcEENS_9allocatorIcEEEEEEvT0_SA_T_+0x2c5>
10000420f:	90 	nop
100004210:	d0 eb 	shrb	%bl
100004212:	0f b6 fb 	movzbl	%bl, %edi
100004215:	48 83 c1 e8 	addq	$-24, %rcx
100004219:	48 39 f7 	cmpq	%rsi, %rdi
10000421c:	76 e2 	jbe	-30 <__ZNSt3__16__sortIR7comparePNS_12basic_stringIcNS_11char_traitsIcEENS_9allocatorIcEEEEEEvT0_SA_T_+0x2b0>
10000421e:	48 39 ca 	cmpq	%rcx, %rdx
100004221:	0f 86 39 ff ff ff 	jbe	-199 <__ZNSt3__16__sortIR7comparePNS_12basic_stringIcNS_11char_traitsIcEENS_9allocatorIcEEEEEEvT0_SA_T_+0x210>
100004227:	49 89 d6 	movq	%rdx, %r14
10000422a:	4d 39 ee 	cmpq	%r13, %r14
10000422d:	0f 84 8f 00 00 00 	je	143 <__ZNSt3__16__sortIR7comparePNS_12basic_stringIcNS_11char_traitsIcEENS_9allocatorIcEEEEEEvT0_SA_T_+0x372>
100004233:	41 8a 4d 00 	movb	(%r13), %cl
100004237:	f6 c1 01 	testb	$1, %cl
10000423a:	74 14 	je	20 <__ZNSt3__16__sortIR7comparePNS_12basic_stringIcNS_11char_traitsIcEENS_9allocatorIcEEEEEEvT0_SA_T_+0x300>
10000423c:	49 8b 4d 08 	movq	8(%r13), %rcx
100004240:	eb 13 	jmp	19 <__ZNSt3__16__sortIR7comparePNS_12basic_stringIcNS_11char_traitsIcEENS_9allocatorIcEEEEEEvT0_SA_T_+0x305>
100004242:	66 66 66 66 66 2e 0f 1f 84 00 00 00 00 00 	nopw	%cs:(%rax,%rax)
100004250:	d0 e9 	shrb	%cl
100004252:	0f b6 c9 	movzbl	%cl, %ecx
100004255:	41 8a 16 	movb	(%r14), %dl
100004258:	f6 c2 01 	testb	$1, %dl
10000425b:	74 13 	je	19 <__ZNSt3__16__sortIR7comparePNS_12basic_stringIcNS_11char_traitsIcEENS_9allocatorIcEEEEEEvT0_SA_T_+0x320>
10000425d:	49 8b 56 08 	movq	8(%r14), %rdx
100004261:	48 39 d1 	cmpq	%rdx, %rcx
100004264:	77 14 	ja	20 <__ZNSt3__16__sortIR7comparePNS_12basic_stringIcNS_11char_traitsIcEENS_9allocatorIcEEEEEEvT0_SA_T_+0x32a>
100004266:	eb 5a 	jmp	90 <__ZNSt3__16__sortIR7comparePNS_12basic_stringIcNS_11char_traitsIcEENS_9allocatorIcEEEEEEvT0_SA_T_+0x372>
100004268:	0f 1f 84 00 00 00 00 00 	nopl	(%rax,%rax)
100004270:	d0 ea 	shrb	%dl
100004272:	0f b6 d2 	movzbl	%dl, %edx
100004275:	48 39 d1 	cmpq	%rdx, %rcx
100004278:	76 48 	jbe	72 <__ZNSt3__16__sortIR7comparePNS_12basic_stringIcNS_11char_traitsIcEENS_9allocatorIcEEEEEEvT0_SA_T_+0x372>
10000427a:	49 8b 4e 10 	movq	16(%r14), %rcx
10000427e:	48 89 4d d0 	movq	%rcx, -48(%rbp)
100004282:	49 8b 0e 	movq	(%r14), %rcx
100004285:	49 8b 56 08 	movq	8(%r14), %rdx
100004289:	48 89 55 c8 	movq	%rdx, -56(%rbp)
10000428d:	48 89 4d c0 	movq	%rcx, -64(%rbp)
100004291:	49 8b 4d 10 	movq	16(%r13), %rcx
100004295:	49 89 4e 10 	movq	%rcx, 16(%r14)
100004299:	49 8b 4d 00 	movq	(%r13), %rcx
10000429d:	49 8b 55 08 	movq	8(%r13), %rdx
1000042a1:	49 89 56 08 	movq	%rdx, 8(%r14)
1000042a5:	49 89 0e 	movq	%rcx, (%r14)
1000042a8:	48 8b 4d d0 	movq	-48(%rbp), %rcx
1000042ac:	49 89 4d 10 	movq	%rcx, 16(%r13)
1000042b0:	48 8b 4d c0 	movq	-64(%rbp), %rcx
1000042b4:	48 8b 55 c8 	movq	-56(%rbp), %rdx
1000042b8:	49 89 55 08 	movq	%rdx, 8(%r13)
1000042bc:	49 89 4d 00 	movq	%rcx, (%r13)
1000042c0:	ff c0 	incl	%eax
1000042c2:	85 c0 	testl	%eax, %eax
1000042c4:	4c 8b 6d b0 	movq	-80(%rbp), %r13
1000042c8:	75 3a 	jne	58 <__ZNSt3__16__sortIR7comparePNS_12basic_stringIcNS_11char_traitsIcEENS_9allocatorIcEEEEEEvT0_SA_T_+0x3b4>
1000042ca:	4c 89 e7 	movq	%r12, %rdi
1000042cd:	4c 89 f6 	movq	%r14, %rsi
1000042d0:	48 8b 55 b8 	movq	-72(%rbp), %rdx
1000042d4:	e8 37 0b 00 00 	callq	2871 <__ZNSt3__127__insertion_sort_incompleteIR7comparePNS_12basic_stringIcNS_11char_traitsIcEENS_9allocatorIcEEEEEEbT0_SA_T_>
1000042d9:	4c 89 ee 	movq	%r13, %rsi
1000042dc:	41 89 c5 	movl	%eax, %r13d
1000042df:	49 8d 5e 18 	leaq	24(%r14), %rbx
1000042e3:	48 89 df 	movq	%rbx, %rdi
1000042e6:	48 8b 55 b8 	movq	-72(%rbp), %rdx
1000042ea:	e8 21 0b 00 00 	callq	2849 <__ZNSt3__127__insertion_sort_incompleteIR7comparePNS_12basic_stringIcNS_11char_traitsIcEENS_9allocatorIcEEEEEEbT0_SA_T_>
1000042ef:	84 c0 	testb	%al, %al
1000042f1:	0f 85 15 02 00 00 	jne	533 <__ZNSt3__16__sortIR7comparePNS_12basic_stringIcNS_11char_traitsIcEENS_9allocatorIcEEEEEEvT0_SA_T_+0x5bc>
1000042f7:	45 84 ed 	testb	%r13b, %r13b
1000042fa:	4c 8b 6d b0 	movq	-80(%rbp), %r13
1000042fe:	0f 85 26 02 00 00 	jne	550 <__ZNSt3__16__sortIR7comparePNS_12basic_stringIcNS_11char_traitsIcEENS_9allocatorIcEEEEEEvT0_SA_T_+0x5da>
100004304:	4c 89 f0 	movq	%r14, %rax
100004307:	4c 29 e0 	subq	%r12, %rax
10000430a:	48 c1 f8 03 	sarq	$3, %rax
10000430e:	48 b9 ab aa aa aa aa aa aa aa 	movabsq	$-6148914691236517205, %rcx
100004318:	48 89 ca 	movq	%rcx, %rdx
10000431b:	48 0f af c2 	imulq	%rdx, %rax
10000431f:	4c 89 e9 	movq	%r13, %rcx
100004322:	4c 29 f1 	subq	%r14, %rcx
100004325:	48 c1 f9 03 	sarq	$3, %rcx
100004329:	48 0f af ca 	imulq	%rdx, %rcx
10000432d:	48 39 c8 	cmpq	%rcx, %rax
100004330:	0f 8c 7a fc ff ff 	jl	-902 <__ZNSt3__16__sortIR7comparePNS_12basic_stringIcNS_11char_traitsIcEENS_9allocatorIcEEEEEEvT0_SA_T_+0x60>
100004336:	e9 32 fc ff ff 	jmp	-974 <__ZNSt3__16__sortIR7comparePNS_12basic_stringIcNS_11char_traitsIcEENS_9allocatorIcEEEEEEvT0_SA_T_+0x1d>
10000433b:	0f 1f 44 00 00 	nopl	(%rax,%rax)
100004340:	4c 8b 6d b0 	movq	-80(%rbp), %r13
100004344:	41 8a 45 e8 	movb	-24(%r13), %al
100004348:	a8 01 	testb	$1, %al
10000434a:	74 14 	je	20 <__ZNSt3__16__sortIR7comparePNS_12basic_stringIcNS_11char_traitsIcEENS_9allocatorIcEEEEEEvT0_SA_T_+0x410>
10000434c:	49 8b 4d f0 	movq	-16(%r13), %rcx
100004350:	eb 13 	jmp	19 <__ZNSt3__16__sortIR7comparePNS_12basic_stringIcNS_11char_traitsIcEENS_9allocatorIcEEEEEEvT0_SA_T_+0x415>
100004352:	66 66 66 66 66 2e 0f 1f 84 00 00 00 00 00 	nopw	%cs:(%rax,%rax)
100004360:	d0 e8 	shrb	%al
100004362:	0f b6 c8 	movzbl	%al, %ecx
100004365:	49 8d 44 24 18 	leaq	24(%r12), %rax
10000436a:	48 39 ca 	cmpq	%rcx, %rdx
10000436d:	0f 87 a3 00 00 00 	ja	163 <__ZNSt3__16__sortIR7comparePNS_12basic_stringIcNS_11char_traitsIcEENS_9allocatorIcEEEEEEvT0_SA_T_+0x4c6>
100004373:	4c 39 f8 	cmpq	%r15, %rax
100004376:	0f 84 f6 02 00 00 	je	758 <__ZNSt3__16__sortIR7comparePNS_12basic_stringIcNS_11char_traitsIcEENS_9allocatorIcEEEEEEvT0_SA_T_+0x722>
10000437c:	49 8d 44 24 30 	leaq	48(%r12), %rax
100004381:	66 66 66 66 66 66 2e 0f 1f 84 00 00 00 00 00 	nopw	%cs:(%rax,%rax)
100004390:	0f b6 48 e8 	movzbl	-24(%rax), %ecx
100004394:	f6 c1 01 	testb	$1, %cl
100004397:	74 17 	je	23 <__ZNSt3__16__sortIR7comparePNS_12basic_stringIcNS_11char_traitsIcEENS_9allocatorIcEEEEEEvT0_SA_T_+0x460>
100004399:	48 8b 48 f0 	movq	-16(%rax), %rcx
10000439d:	48 39 ca 	cmpq	%rcx, %rdx
1000043a0:	76 18 	jbe	24 <__ZNSt3__16__sortIR7comparePNS_12basic_stringIcNS_11char_traitsIcEENS_9allocatorIcEEEEEEvT0_SA_T_+0x46a>
1000043a2:	eb 2c 	jmp	44 <__ZNSt3__16__sortIR7comparePNS_12basic_stringIcNS_11char_traitsIcEENS_9allocatorIcEEEEEEvT0_SA_T_+0x480>
1000043a4:	66 66 66 2e 0f 1f 84 00 00 00 00 00 	nopw	%cs:(%rax,%rax)
1000043b0:	d0 e9 	shrb	%cl
1000043b2:	0f b6 c9 	movzbl	%cl, %ecx
1000043b5:	48 39 ca 	cmpq	%rcx, %rdx
1000043b8:	77 16 	ja	22 <__ZNSt3__16__sortIR7comparePNS_12basic_stringIcNS_11char_traitsIcEENS_9allocatorIcEEEEEEvT0_SA_T_+0x480>
1000043ba:	48 8d 48 e8 	leaq	-24(%rax), %rcx
1000043be:	48 83 c0 18 	addq	$24, %rax
1000043c2:	48 83 c1 18 	addq	$24, %rcx
1000043c6:	4c 39 f9 	cmpq	%r15, %rcx
1000043c9:	75 c5 	jne	-59 <__ZNSt3__16__sortIR7comparePNS_12basic_stringIcNS_11char_traitsIcEENS_9allocatorIcEEEEEEvT0_SA_T_+0x440>
1000043cb:	e9 a2 02 00 00 	jmp	674 <__ZNSt3__16__sortIR7comparePNS_12basic_stringIcNS_11char_traitsIcEENS_9allocatorIcEEEEEEvT0_SA_T_+0x722>
1000043d0:	48 8b 48 f8 	movq	-8(%rax), %rcx
1000043d4:	48 89 4d d0 	movq	%rcx, -48(%rbp)
1000043d8:	48 8b 48 e8 	movq	-24(%rax), %rcx
1000043dc:	48 8b 50 f0 	movq	-16(%rax), %rdx
1000043e0:	48 89 55 c8 	movq	%rdx, -56(%rbp)
1000043e4:	48 89 4d c0 	movq	%rcx, -64(%rbp)
1000043e8:	49 8b 4f 10 	movq	16(%r15), %rcx
1000043ec:	48 89 48 f8 	movq	%rcx, -8(%rax)
1000043f0:	49 8b 0f 	movq	(%r15), %rcx
1000043f3:	49 8b 57 08 	movq	8(%r15), %rdx
1000043f7:	48 89 50 f0 	movq	%rdx, -16(%rax)
1000043fb:	48 89 48 e8 	movq	%rcx, -24(%rax)
1000043ff:	48 8b 4d d0 	movq	-48(%rbp), %rcx
100004403:	49 89 4f 10 	movq	%rcx, 16(%r15)
100004407:	48 8b 4d c0 	movq	-64(%rbp), %rcx
10000440b:	48 8b 55 c8 	movq	-56(%rbp), %rdx
10000440f:	49 89 57 08 	movq	%rdx, 8(%r15)
100004413:	49 89 0f 	movq	%rcx, (%r15)
100004416:	4c 39 f8 	cmpq	%r15, %rax
100004419:	75 49 	jne	73 <__ZNSt3__16__sortIR7comparePNS_12basic_stringIcNS_11char_traitsIcEENS_9allocatorIcEEEEEEvT0_SA_T_+0x514>
10000441b:	e9 52 02 00 00 	jmp	594 <__ZNSt3__16__sortIR7comparePNS_12basic_stringIcNS_11char_traitsIcEENS_9allocatorIcEEEEEEvT0_SA_T_+0x722>
100004420:	48 8b 4b 10 	movq	16(%rbx), %rcx
100004424:	48 89 4d d0 	movq	%rcx, -48(%rbp)
100004428:	48 8b 0b 	movq	(%rbx), %rcx
10000442b:	48 8b 53 08 	movq	8(%rbx), %rdx
10000442f:	48 89 55 c8 	movq	%rdx, -56(%rbp)
100004433:	48 89 4d c0 	movq	%rcx, -64(%rbp)
100004437:	49 8b 4f 10 	movq	16(%r15), %rcx
10000443b:	48 89 4b 10 	movq	%rcx, 16(%rbx)
10000443f:	49 8b 0f 	movq	(%r15), %rcx
100004442:	49 8b 57 08 	movq	8(%r15), %rdx
100004446:	48 89 53 08 	movq	%rdx, 8(%rbx)
10000444a:	48 89 0b 	movq	%rcx, (%rbx)
10000444d:	48 8b 4d d0 	movq	-48(%rbp), %rcx
100004451:	49 89 4f 10 	movq	%rcx, 16(%r15)
100004455:	48 8b 4d c0 	movq	-64(%rbp), %rcx
100004459:	48 8b 55 c8 	movq	-56(%rbp), %rdx
10000445d:	49 89 57 08 	movq	%rdx, 8(%r15)
100004461:	49 89 0f 	movq	%rcx, (%r15)
100004464:	41 8a 0c 24 	movb	(%r12), %cl
100004468:	f6 c1 01 	testb	$1, %cl
10000446b:	74 13 	je	19 <__ZNSt3__16__sortIR7comparePNS_12basic_stringIcNS_11char_traitsIcEENS_9allocatorIcEEEEEEvT0_SA_T_+0x530>
10000446d:	49 8b 4c 24 08 	movq	8(%r12), %rcx
100004472:	eb 11 	jmp	17 <__ZNSt3__16__sortIR7comparePNS_12basic_stringIcNS_11char_traitsIcEENS_9allocatorIcEEEEEEvT0_SA_T_+0x535>
100004474:	66 66 66 2e 0f 1f 84 00 00 00 00 00 	nopw	%cs:(%rax,%rax)
100004480:	d0 e9 	shrb	%cl
100004482:	0f b6 c9 	movzbl	%cl, %ecx
100004485:	48 83 c0 e8 	addq	$-24, %rax
100004489:	48 89 c3 	movq	%rax, %rbx
10000448c:	0f 1f 40 00 	nopl	(%rax)
100004490:	0f b6 43 18 	movzbl	24(%rbx), %eax
100004494:	a8 01 	testb	$1, %al
100004496:	74 08 	je	8 <__ZNSt3__16__sortIR7comparePNS_12basic_stringIcNS_11char_traitsIcEENS_9allocatorIcEEEEEEvT0_SA_T_+0x550>
100004498:	48 8b 43 20 	movq	32(%rbx), %rax
10000449c:	eb 07 	jmp	7 <__ZNSt3__16__sortIR7comparePNS_12basic_stringIcNS_11char_traitsIcEENS_9allocatorIcEEEEEEvT0_SA_T_+0x555>
10000449e:	66 90 	nop
1000044a0:	d0 e8 	shrb	%al
1000044a2:	0f b6 c0 	movzbl	%al, %eax
1000044a5:	48 83 c3 18 	addq	$24, %rbx
1000044a9:	48 39 c1 	cmpq	%rax, %rcx
1000044ac:	76 e2 	jbe	-30 <__ZNSt3__16__sortIR7comparePNS_12basic_stringIcNS_11char_traitsIcEENS_9allocatorIcEEEEEEvT0_SA_T_+0x540>
1000044ae:	48 8d 43 18 	leaq	24(%rbx), %rax
1000044b2:	66 66 66 66 66 2e 0f 1f 84 00 00 00 00 00 	nopw	%cs:(%rax,%rax)
1000044c0:	41 0f b6 57 e8 	movzbl	-24(%r15), %edx
1000044c5:	f6 c2 01 	testb	$1, %dl
1000044c8:	74 06 	je	6 <__ZNSt3__16__sortIR7comparePNS_12basic_stringIcNS_11char_traitsIcEENS_9allocatorIcEEEEEEvT0_SA_T_+0x580>
1000044ca:	49 8b 57 f0 	movq	-16(%r15), %rdx
1000044ce:	eb 05 	jmp	5 <__ZNSt3__16__sortIR7comparePNS_12basic_stringIcNS_11char_traitsIcEENS_9allocatorIcEEEEEEvT0_SA_T_+0x585>
1000044d0:	d0 ea 	shrb	%dl
1000044d2:	0f b6 d2 	movzbl	%dl, %edx
1000044d5:	49 83 c7 e8 	addq	$-24, %r15
1000044d9:	48 39 d1 	cmpq	%rdx, %rcx
1000044dc:	77 e2 	ja	-30 <__ZNSt3__16__sortIR7comparePNS_12basic_stringIcNS_11char_traitsIcEENS_9allocatorIcEEEEEEvT0_SA_T_+0x570>
1000044de:	4c 39 fb 	cmpq	%r15, %rbx
1000044e1:	0f 82 39 ff ff ff 	jb	-199 <__ZNSt3__16__sortIR7comparePNS_12basic_stringIcNS_11char_traitsIcEENS_9allocatorIcEEEEEEvT0_SA_T_+0x4d0>
1000044e7:	b8 04 00 00 00 	movl	$4, %eax
1000044ec:	24 07 	andb	$7, %al
1000044ee:	3c 04 	cmpb	$4, %al
1000044f0:	0f 87 7c 01 00 00 	ja	380 <__ZNSt3__16__sortIR7comparePNS_12basic_stringIcNS_11char_traitsIcEENS_9allocatorIcEEEEEEvT0_SA_T_+0x722>
1000044f6:	0f b6 c0 	movzbl	%al, %eax
1000044f9:	b9 15 00 00 00 	movl	$21, %ecx
1000044fe:	0f a3 c1 	btl	%eax, %ecx
100004501:	0f 82 93 fa ff ff 	jb	-1389 <__ZNSt3__16__sortIR7comparePNS_12basic_stringIcNS_11char_traitsIcEENS_9allocatorIcEEEEEEvT0_SA_T_+0x4a>
100004507:	e9 66 01 00 00 	jmp	358 <__ZNSt3__16__sortIR7comparePNS_12basic_stringIcNS_11char_traitsIcEENS_9allocatorIcEEEEEEvT0_SA_T_+0x722>
10000450c:	45 84 ed 	testb	%r13b, %r13b
10000450f:	48 8b 45 b0 	movq	-80(%rbp), %rax
100004513:	49 0f 44 c6 	cmoveq	%r14, %rax
100004517:	41 0f b6 cd 	movzbl	%r13b, %ecx
10000451b:	49 89 c5 	movq	%rax, %r13
10000451e:	b8 02 00 00 00 	movl	$2, %eax
100004523:	29 c8 	subl	%ecx, %eax
100004525:	4c 89 e3 	movq	%r12, %rbx
100004528:	eb 05 	jmp	5 <__ZNSt3__16__sortIR7comparePNS_12basic_stringIcNS_11char_traitsIcEENS_9allocatorIcEEEEEEvT0_SA_T_+0x5df>
10000452a:	b8 02 00 00 00 	movl	$2, %eax
10000452f:	49 be ab aa aa aa aa aa aa aa 	movabsq	$-6148914691236517205, %r14
100004539:	eb b1 	jmp	-79 <__ZNSt3__16__sortIR7comparePNS_12basic_stringIcNS_11char_traitsIcEENS_9allocatorIcEEEEEEvT0_SA_T_+0x59c>
10000453b:	48 8d 0d 42 01 00 00 	leaq	322(%rip), %rcx
100004542:	48 63 04 81 	movslq	(%rcx,%rax,4), %rax
100004546:	48 01 c8 	addq	%rcx, %rax
100004549:	ff e0 	jmpq	*%rax
10000454b:	41 8a 45 e8 	movb	-24(%r13), %al
10000454f:	a8 01 	testb	$1, %al
100004551:	0f 84 a7 00 00 00 	je	167 <__ZNSt3__16__sortIR7comparePNS_12basic_stringIcNS_11char_traitsIcEENS_9allocatorIcEEEEEEvT0_SA_T_+0x6ae>
100004557:	49 8b 45 f0 	movq	-16(%r13), %rax
10000455b:	e9 a3 00 00 00 	jmp	163 <__ZNSt3__16__sortIR7comparePNS_12basic_stringIcNS_11char_traitsIcEENS_9allocatorIcEEEEEEvT0_SA_T_+0x6b3>
100004560:	4c 89 e7 	movq	%r12, %rdi
100004563:	4c 89 ee 	movq	%r13, %rsi
100004566:	48 8b 55 b8 	movq	-72(%rbp), %rdx
10000456a:	48 83 c4 38 	addq	$56, %rsp
10000456e:	5b 	popq	%rbx
10000456f:	41 5c 	popq	%r12
100004571:	41 5d 	popq	%r13
100004573:	41 5e 	popq	%r14
100004575:	41 5f 	popq	%r15
100004577:	5d 	popq	%rbp
100004578:	e9 23 07 00 00 	jmp	1827 <__ZNSt3__118__insertion_sort_3IR7comparePNS_12basic_stringIcNS_11char_traitsIcEENS_9allocatorIcEEEEEEvT0_SA_T_>
10000457d:	49 8d 74 24 18 	leaq	24(%r12), %rsi
100004582:	49 83 c5 e8 	addq	$-24, %r13
100004586:	4c 89 e7 	movq	%r12, %rdi
100004589:	4c 89 ea 	movq	%r13, %rdx
10000458c:	48 8b 4d b8 	movq	-72(%rbp), %rcx
100004590:	48 83 c4 38 	addq	$56, %rsp
100004594:	5b 	popq	%rbx
100004595:	41 5c 	popq	%r12
100004597:	41 5d 	popq	%r13
100004599:	41 5e 	popq	%r14
10000459b:	41 5f 	popq	%r15
10000459d:	5d 	popq	%rbp
10000459e:	e9 fd 00 00 00 	jmp	253 <__ZNSt3__17__sort3IR7comparePNS_12basic_stringIcNS_11char_traitsIcEENS_9allocatorIcEEEEEEjT0_SA_SA_T_>
1000045a3:	49 8d 74 24 18 	leaq	24(%r12), %rsi
1000045a8:	49 8d 54 24 30 	leaq	48(%r12), %rdx
1000045ad:	49 83 c5 e8 	addq	$-24, %r13
1000045b1:	4c 89 e7 	movq	%r12, %rdi
1000045b4:	4c 89 e9 	movq	%r13, %rcx
1000045b7:	4c 8b 45 b8 	movq	-72(%rbp), %r8
1000045bb:	48 83 c4 38 	addq	$56, %rsp
1000045bf:	5b 	popq	%rbx
1000045c0:	41 5c 	popq	%r12
1000045c2:	41 5d 	popq	%r13
1000045c4:	41 5e 	popq	%r14
1000045c6:	41 5f 	popq	%r15
1000045c8:	5d 	popq	%rbp
1000045c9:	e9 f2 02 00 00 	jmp	754 <__ZNSt3__17__sort4IR7comparePNS_12basic_stringIcNS_11char_traitsIcEENS_9allocatorIcEEEEEEjT0_SA_SA_SA_T_>
1000045ce:	49 8d 54 24 30 	leaq	48(%r12), %rdx
1000045d3:	49 8d 4c 24 48 	leaq	72(%r12), %rcx
1000045d8:	49 83 c5 e8 	addq	$-24, %r13
1000045dc:	49 8d 74 24 18 	leaq	24(%r12), %rsi
1000045e1:	4c 89 e7 	movq	%r12, %rdi
1000045e4:	4d 89 e8 	movq	%r13, %r8
1000045e7:	4c 8b 4d b8 	movq	-72(%rbp), %r9
1000045eb:	48 83 c4 38 	addq	$56, %rsp
1000045ef:	5b 	popq	%rbx
1000045f0:	41 5c 	popq	%r12
1000045f2:	41 5d 	popq	%r13
1000045f4:	41 5e 	popq	%r14
1000045f6:	41 5f 	popq	%r15
1000045f8:	5d 	popq	%rbp
1000045f9:	e9 72 04 00 00 	jmp	1138 <__ZNSt3__17__sort5IR7comparePNS_12basic_stringIcNS_11char_traitsIcEENS_9allocatorIcEEEEEEjT0_SA_SA_SA_SA_T_>
1000045fe:	d0 e8 	shrb	%al
100004600:	0f b6 c0 	movzbl	%al, %eax
100004603:	41 8a 0c 24 	movb	(%r12), %cl
100004607:	f6 c1 01 	testb	$1, %cl
10000460a:	74 0c 	je	12 <__ZNSt3__16__sortIR7comparePNS_12basic_stringIcNS_11char_traitsIcEENS_9allocatorIcEEEEEEvT0_SA_T_+0x6c8>
10000460c:	49 8b 4c 24 08 	movq	8(%r12), %rcx
100004611:	48 39 c8 	cmpq	%rcx, %rax
100004614:	77 0c 	ja	12 <__ZNSt3__16__sortIR7comparePNS_12basic_stringIcNS_11char_traitsIcEENS_9allocatorIcEEEEEEvT0_SA_T_+0x6d2>
100004616:	eb 5a 	jmp	90 <__ZNSt3__16__sortIR7comparePNS_12basic_stringIcNS_11char_traitsIcEENS_9allocatorIcEEEEEEvT0_SA_T_+0x722>
100004618:	d0 e9 	shrb	%cl
10000461a:	0f b6 c9 	movzbl	%cl, %ecx
10000461d:	48 39 c8 	cmpq	%rcx, %rax
100004620:	76 50 	jbe	80 <__ZNSt3__16__sortIR7comparePNS_12basic_stringIcNS_11char_traitsIcEENS_9allocatorIcEEEEEEvT0_SA_T_+0x722>
100004622:	49 8b 44 24 10 	movq	16(%r12), %rax
100004627:	48 89 45 d0 	movq	%rax, -48(%rbp)
10000462b:	49 8b 04 24 	movq	(%r12), %rax
10000462f:	49 8b 4c 24 08 	movq	8(%r12), %rcx
100004634:	48 89 4d c8 	movq	%rcx, -56(%rbp)
100004638:	48 89 45 c0 	movq	%rax, -64(%rbp)
10000463c:	49 83 c5 e8 	addq	$-24, %r13
100004640:	49 8b 45 10 	movq	16(%r13), %rax
100004644:	49 89 44 24 10 	movq	%rax, 16(%r12)
100004649:	49 8b 45 00 	movq	(%r13), %rax
10000464d:	49 8b 4d 08 	movq	8(%r13), %rcx
100004651:	49 89 4c 24 08 	movq	%rcx, 8(%r12)
100004656:	49 89 04 24 	movq	%rax, (%r12)
10000465a:	48 8b 45 d0 	movq	-48(%rbp), %rax
10000465e:	49 89 45 10 	movq	%rax, 16(%r13)
100004662:	48 8b 45 c0 	movq	-64(%rbp), %rax
100004666:	48 8b 4d c8 	movq	-56(%rbp), %rcx
10000466a:	49 89 4d 08 	movq	%rcx, 8(%r13)
10000466e:	49 89 45 00 	movq	%rax, (%r13)
100004672:	48 83 c4 38 	addq	$56, %rsp
100004676:	5b 	popq	%rbx
100004677:	41 5c 	popq	%r12
100004679:	41 5d 	popq	%r13
10000467b:	41 5e 	popq	%r14
10000467d:	41 5f 	popq	%r15
10000467f:	5d 	popq	%rbp
100004680:	c3 	retq
100004681:	0f 1f 00 	nopl	(%rax)
100004684:	ee 	outb	%al, %dx
100004685:	ff ff  <unknown>
100004687:	ff ee  <unknown>
100004689:	ff ff  <unknown>
10000468b:	ff c7 	incl	%edi
10000468d:	fe ff  <unknown>
10000468f:	ff f9  <unknown>
100004691:	fe ff  <unknown>
100004693:	ff 1f 	lcalll	*(%rdi)
100004695:	ff ff  <unknown>
100004697:	ff 4a ff 	decl	-1(%rdx)
10000469a:	ff ff  <unknown>
10000469c:	0f 1f 40 00 	nopl	(%rax)

__ZNSt3__17__sort3IR7comparePNS_12basic_stringIcNS_11char_traitsIcEENS_9allocatorIcEEEEEEjT0_SA_SA_T_:
1000046a0:	8a 06 	movb	(%rsi), %al
1000046a2:	a8 01 	testb	$1, %al
1000046a4:	74 06 	je	6 <__ZNSt3__17__sort3IR7comparePNS_12basic_stringIcNS_11char_traitsIcEENS_9allocatorIcEEEEEEjT0_SA_SA_T_+0xc>
1000046a6:	4c 8b 46 08 	movq	8(%rsi), %r8
1000046aa:	eb 06 	jmp	6 <__ZNSt3__17__sort3IR7comparePNS_12basic_stringIcNS_11char_traitsIcEENS_9allocatorIcEEEEEEjT0_SA_SA_T_+0x12>
1000046ac:	d0 e8 	shrb	%al
1000046ae:	44 0f b6 c0 	movzbl	%al, %r8d
1000046b2:	8a 07 	movb	(%rdi), %al
1000046b4:	a8 01 	testb	$1, %al
1000046b6:	74 06 	je	6 <__ZNSt3__17__sort3IR7comparePNS_12basic_stringIcNS_11char_traitsIcEENS_9allocatorIcEEEEEEjT0_SA_SA_T_+0x1e>
1000046b8:	48 8b 47 08 	movq	8(%rdi), %rax
1000046bc:	eb 05 	jmp	5 <__ZNSt3__17__sort3IR7comparePNS_12basic_stringIcNS_11char_traitsIcEENS_9allocatorIcEEEEEEjT0_SA_SA_T_+0x23>
1000046be:	d0 e8 	shrb	%al
1000046c0:	0f b6 c0 	movzbl	%al, %eax
1000046c3:	8a 0a 	movb	(%rdx), %cl
1000046c5:	f6 c1 01 	testb	$1, %cl
1000046c8:	74 06 	je	6 <__ZNSt3__17__sort3IR7comparePNS_12basic_stringIcNS_11char_traitsIcEENS_9allocatorIcEEEEEEjT0_SA_SA_T_+0x30>
1000046ca:	48 8b 4a 08 	movq	8(%rdx), %rcx
1000046ce:	eb 05 	jmp	5 <__ZNSt3__17__sort3IR7comparePNS_12basic_stringIcNS_11char_traitsIcEENS_9allocatorIcEEEEEEjT0_SA_SA_T_+0x35>
1000046d0:	d0 e9 	shrb	%cl
1000046d2:	0f b6 c9 	movzbl	%cl, %ecx
1000046d5:	55 	pushq	%rbp
1000046d6:	48 89 e5 	movq	%rsp, %rbp
1000046d9:	49 39 c0 	cmpq	%rax, %r8
1000046dc:	76 54 	jbe	84 <__ZNSt3__17__sort3IR7comparePNS_12basic_stringIcNS_11char_traitsIcEENS_9allocatorIcEEEEEEjT0_SA_SA_T_+0x92>
1000046de:	4c 39 c1 	cmpq	%r8, %rcx
1000046e1:	0f 86 a6 00 00 00 	jbe	166 <__ZNSt3__17__sort3IR7comparePNS_12basic_stringIcNS_11char_traitsIcEENS_9allocatorIcEEEEEEjT0_SA_SA_T_+0xed>
1000046e7:	48 8b 47 10 	movq	16(%rdi), %rax
1000046eb:	48 89 45 f8 	movq	%rax, -8(%rbp)
1000046ef:	48 8b 07 	movq	(%rdi), %rax
1000046f2:	48 8b 4f 08 	movq	8(%rdi), %rcx
1000046f6:	48 89 4d f0 	movq	%rcx, -16(%rbp)
1000046fa:	48 89 45 e8 	movq	%rax, -24(%rbp)
1000046fe:	48 8b 42 10 	movq	16(%rdx), %rax
100004702:	48 89 47 10 	movq	%rax, 16(%rdi)
100004706:	48 8b 02 	movq	(%rdx), %rax
100004709:	48 8b 4a 08 	movq	8(%rdx), %rcx
10000470d:	48 89 4f 08 	movq	%rcx, 8(%rdi)
100004711:	48 89 07 	movq	%rax, (%rdi)
100004714:	48 8b 45 f8 	movq	-8(%rbp), %rax
100004718:	48 89 42 10 	movq	%rax, 16(%rdx)
10000471c:	48 8b 45 e8 	movq	-24(%rbp), %rax
100004720:	48 8b 4d f0 	movq	-16(%rbp), %rcx
100004724:	48 89 4a 08 	movq	%rcx, 8(%rdx)
100004728:	48 89 02 	movq	%rax, (%rdx)
10000472b:	b8 01 00 00 00 	movl	$1, %eax
100004730:	5d 	popq	%rbp
100004731:	c3 	retq
100004732:	31 c0 	xorl	%eax, %eax
100004734:	4c 39 c1 	cmpq	%r8, %rcx
100004737:	0f 86 73 01 00 00 	jbe	371 <__ZNSt3__17__sort3IR7comparePNS_12basic_stringIcNS_11char_traitsIcEENS_9allocatorIcEEEEEEjT0_SA_SA_T_+0x210>
10000473d:	48 8b 46 10 	movq	16(%rsi), %rax
100004741:	48 89 45 f8 	movq	%rax, -8(%rbp)
100004745:	48 8b 06 	movq	(%rsi), %rax
100004748:	48 8b 4e 08 	movq	8(%rsi), %rcx
10000474c:	48 89 4d f0 	movq	%rcx, -16(%rbp)
100004750:	48 89 45 e8 	movq	%rax, -24(%rbp)
100004754:	48 8b 42 10 	movq	16(%rdx), %rax
100004758:	48 89 46 10 	movq	%rax, 16(%rsi)
10000475c:	48 8b 02 	movq	(%rdx), %rax
10000475f:	48 8b 4a 08 	movq	8(%rdx), %rcx
100004763:	48 89 4e 08 	movq	%rcx, 8(%rsi)
100004767:	48 89 06 	movq	%rax, (%rsi)
10000476a:	48 8b 45 f8 	movq	-8(%rbp), %rax
10000476e:	48 89 42 10 	movq	%rax, 16(%rdx)
100004772:	48 8b 45 e8 	movq	-24(%rbp), %rax
100004776:	48 8b 4d f0 	movq	-16(%rbp), %rcx
10000477a:	48 89 4a 08 	movq	%rcx, 8(%rdx)
10000477e:	48 89 02 	movq	%rax, (%rdx)
100004781:	8a 06 	movb	(%rsi), %al
100004783:	a8 01 	testb	$1, %al
100004785:	74 56 	je	86 <__ZNSt3__17__sort3IR7comparePNS_12basic_stringIcNS_11char_traitsIcEENS_9allocatorIcEEEEEEjT0_SA_SA_T_+0x13d>
100004787:	48 8b 4e 08 	movq	8(%rsi), %rcx
10000478b:	eb 55 	jmp	85 <__ZNSt3__17__sort3IR7comparePNS_12basic_stringIcNS_11char_traitsIcEENS_9allocatorIcEEEEEEjT0_SA_SA_T_+0x142>
10000478d:	48 8b 47 10 	movq	16(%rdi), %rax
100004791:	48 89 45 f8 	movq	%rax, -8(%rbp)
100004795:	48 8b 07 	movq	(%rdi), %rax
100004798:	48 8b 4f 08 	movq	8(%rdi), %rcx
10000479c:	48 89 4d f0 	movq	%rcx, -16(%rbp)
1000047a0:	48 89 45 e8 	movq	%rax, -24(%rbp)
1000047a4:	48 8b 46 10 	movq	16(%rsi), %rax
1000047a8:	48 89 47 10 	movq	%rax, 16(%rdi)
1000047ac:	48 8b 06 	movq	(%rsi), %rax
1000047af:	48 8b 4e 08 	movq	8(%rsi), %rcx
1000047b3:	48 89 4f 08 	movq	%rcx, 8(%rdi)
1000047b7:	48 89 07 	movq	%rax, (%rdi)
1000047ba:	48 8b 45 f8 	movq	-8(%rbp), %rax
1000047be:	48 89 46 10 	movq	%rax, 16(%rsi)
1000047c2:	48 8b 45 e8 	movq	-24(%rbp), %rax
1000047c6:	48 8b 4d f0 	movq	-16(%rbp), %rcx
1000047ca:	48 89 4e 08 	movq	%rcx, 8(%rsi)
1000047ce:	48 89 06 	movq	%rax, (%rsi)
1000047d1:	8a 02 	movb	(%rdx), %al
1000047d3:	a8 01 	testb	$1, %al
1000047d5:	74 17 	je	23 <__ZNSt3__17__sort3IR7comparePNS_12basic_stringIcNS_11char_traitsIcEENS_9allocatorIcEEEEEEjT0_SA_SA_T_+0x14e>
1000047d7:	48 8b 4a 08 	movq	8(%rdx), %rcx
1000047db:	eb 16 	jmp	22 <__ZNSt3__17__sort3IR7comparePNS_12basic_stringIcNS_11char_traitsIcEENS_9allocatorIcEEEEEEjT0_SA_SA_T_+0x153>
1000047dd:	d0 e8 	shrb	%al
1000047df:	0f b6 c8 	movzbl	%al, %ecx
1000047e2:	8a 07 	movb	(%rdi), %al
1000047e4:	a8 01 	testb	$1, %al
1000047e6:	74 17 	je	23 <__ZNSt3__17__sort3IR7comparePNS_12basic_stringIcNS_11char_traitsIcEENS_9allocatorIcEEEEEEjT0_SA_SA_T_+0x15f>
1000047e8:	48 8b 57 08 	movq	8(%rdi), %rdx
1000047ec:	eb 16 	jmp	22 <__ZNSt3__17__sort3IR7comparePNS_12basic_stringIcNS_11char_traitsIcEENS_9allocatorIcEEEEEEjT0_SA_SA_T_+0x164>
1000047ee:	d0 e8 	shrb	%al
1000047f0:	0f b6 c8 	movzbl	%al, %ecx
1000047f3:	8a 06 	movb	(%rsi), %al
1000047f5:	a8 01 	testb	$1, %al
1000047f7:	74 5f 	je	95 <__ZNSt3__17__sort3IR7comparePNS_12basic_stringIcNS_11char_traitsIcEENS_9allocatorIcEEEEEEjT0_SA_SA_T_+0x1b8>
1000047f9:	48 8b 7e 08 	movq	8(%rsi), %rdi
1000047fd:	eb 5e 	jmp	94 <__ZNSt3__17__sort3IR7comparePNS_12basic_stringIcNS_11char_traitsIcEENS_9allocatorIcEEEEEEjT0_SA_SA_T_+0x1bd>
1000047ff:	d0 e8 	shrb	%al
100004801:	0f b6 d0 	movzbl	%al, %edx
100004804:	b8 01 00 00 00 	movl	$1, %eax
100004809:	48 39 d1 	cmpq	%rdx, %rcx
10000480c:	0f 86 9e 00 00 00 	jbe	158 <__ZNSt3__17__sort3IR7comparePNS_12basic_stringIcNS_11char_traitsIcEENS_9allocatorIcEEEEEEjT0_SA_SA_T_+0x210>
100004812:	48 8b 47 10 	movq	16(%rdi), %rax
100004816:	48 89 45 f8 	movq	%rax, -8(%rbp)
10000481a:	48 8b 07 	movq	(%rdi), %rax
10000481d:	48 8b 4f 08 	movq	8(%rdi), %rcx
100004821:	48 89 4d f0 	movq	%rcx, -16(%rbp)
100004825:	48 89 45 e8 	movq	%rax, -24(%rbp)
100004829:	48 8b 46 10 	movq	16(%rsi), %rax
10000482d:	48 89 47 10 	movq	%rax, 16(%rdi)
100004831:	48 8b 06 	movq	(%rsi), %rax
100004834:	48 8b 4e 08 	movq	8(%rsi), %rcx
100004838:	48 89 4f 08 	movq	%rcx, 8(%rdi)
10000483c:	48 89 07 	movq	%rax, (%rdi)
10000483f:	48 8b 45 f8 	movq	-8(%rbp), %rax
100004843:	48 89 46 10 	movq	%rax, 16(%rsi)
100004847:	48 8b 45 e8 	movq	-24(%rbp), %rax
10000484b:	48 8b 4d f0 	movq	-16(%rbp), %rcx
10000484f:	48 89 4e 08 	movq	%rcx, 8(%rsi)
100004853:	48 89 06 	movq	%rax, (%rsi)
100004856:	eb 53 	jmp	83 <__ZNSt3__17__sort3IR7comparePNS_12basic_stringIcNS_11char_traitsIcEENS_9allocatorIcEEEEEEjT0_SA_SA_T_+0x20b>
100004858:	d0 e8 	shrb	%al
10000485a:	0f b6 f8 	movzbl	%al, %edi
10000485d:	b8 01 00 00 00 	movl	$1, %eax
100004862:	48 39 f9 	cmpq	%rdi, %rcx
100004865:	76 49 	jbe	73 <__ZNSt3__17__sort3IR7comparePNS_12basic_stringIcNS_11char_traitsIcEENS_9allocatorIcEEEEEEjT0_SA_SA_T_+0x210>
100004867:	48 8b 46 10 	movq	16(%rsi), %rax
10000486b:	48 89 45 f8 	movq	%rax, -8(%rbp)
10000486f:	48 8b 06 	movq	(%rsi), %rax
100004872:	48 8b 4e 08 	movq	8(%rsi), %rcx
100004876:	48 89 4d f0 	movq	%rcx, -16(%rbp)
10000487a:	48 89 45 e8 	movq	%rax, -24(%rbp)
10000487e:	48 8b 42 10 	movq	16(%rdx), %rax
100004882:	48 89 46 10 	movq	%rax, 16(%rsi)
100004886:	48 8b 02 	movq	(%rdx), %rax
100004889:	48 8b 4a 08 	movq	8(%rdx), %rcx
10000488d:	48 89 4e 08 	movq	%rcx, 8(%rsi)
100004891:	48 89 06 	movq	%rax, (%rsi)
100004894:	48 8b 45 f8 	movq	-8(%rbp), %rax
100004898:	48 89 42 10 	movq	%rax, 16(%rdx)
10000489c:	48 8b 45 e8 	movq	-24(%rbp), %rax
1000048a0:	48 8b 4d f0 	movq	-16(%rbp), %rcx
1000048a4:	48 89 4a 08 	movq	%rcx, 8(%rdx)
1000048a8:	48 89 02 	movq	%rax, (%rdx)
1000048ab:	b8 02 00 00 00 	movl	$2, %eax
1000048b0:	5d 	popq	%rbp
1000048b1:	c3 	retq
1000048b2:	66 66 66 66 66 2e 0f 1f 84 00 00 00 00 00 	nopw	%cs:(%rax,%rax)

__ZNSt3__17__sort4IR7comparePNS_12basic_stringIcNS_11char_traitsIcEENS_9allocatorIcEEEEEEjT0_SA_SA_SA_T_:
1000048c0:	55 	pushq	%rbp
1000048c1:	48 89 e5 	movq	%rsp, %rbp
1000048c4:	41 57 	pushq	%r15
1000048c6:	41 56 	pushq	%r14
1000048c8:	41 54 	pushq	%r12
1000048ca:	53 	pushq	%rbx
1000048cb:	48 83 ec 20 	subq	$32, %rsp
1000048cf:	49 89 cc 	movq	%rcx, %r12
1000048d2:	48 89 d3 	movq	%rdx, %rbx
1000048d5:	49 89 f7 	movq	%rsi, %r15
1000048d8:	49 89 fe 	movq	%rdi, %r14
1000048db:	4c 89 c1 	movq	%r8, %rcx
1000048de:	e8 bd fd ff ff 	callq	-579 <__ZNSt3__17__sort3IR7comparePNS_12basic_stringIcNS_11char_traitsIcEENS_9allocatorIcEEEEEEjT0_SA_SA_T_>
1000048e3:	41 8a 0c 24 	movb	(%r12), %cl
1000048e7:	f6 c1 01 	testb	$1, %cl
1000048ea:	74 07 	je	7 <__ZNSt3__17__sort4IR7comparePNS_12basic_stringIcNS_11char_traitsIcEENS_9allocatorIcEEEEEEjT0_SA_SA_SA_T_+0x33>
1000048ec:	49 8b 4c 24 08 	movq	8(%r12), %rcx
1000048f1:	eb 05 	jmp	5 <__ZNSt3__17__sort4IR7comparePNS_12basic_stringIcNS_11char_traitsIcEENS_9allocatorIcEEEEEEjT0_SA_SA_SA_T_+0x38>
1000048f3:	d0 e9 	shrb	%cl
1000048f5:	0f b6 c9 	movzbl	%cl, %ecx
1000048f8:	8a 13 	movb	(%rbx), %dl
1000048fa:	f6 c2 01 	testb	$1, %dl
1000048fd:	74 0e 	je	14 <__ZNSt3__17__sort4IR7comparePNS_12basic_stringIcNS_11char_traitsIcEENS_9allocatorIcEEEEEEjT0_SA_SA_SA_T_+0x4d>
1000048ff:	48 8b 53 08 	movq	8(%rbx), %rdx
100004903:	48 39 d1 	cmpq	%rdx, %rcx
100004906:	77 13 	ja	19 <__ZNSt3__17__sort4IR7comparePNS_12basic_stringIcNS_11char_traitsIcEENS_9allocatorIcEEEEEEjT0_SA_SA_SA_T_+0x5b>
100004908:	e9 4a 01 00 00 	jmp	330 <__ZNSt3__17__sort4IR7comparePNS_12basic_stringIcNS_11char_traitsIcEENS_9allocatorIcEEEEEEjT0_SA_SA_SA_T_+0x197>
10000490d:	d0 ea 	shrb	%dl
10000490f:	0f b6 d2 	movzbl	%dl, %edx
100004912:	48 39 d1 	cmpq	%rdx, %rcx
100004915:	0f 86 3c 01 00 00 	jbe	316 <__ZNSt3__17__sort4IR7comparePNS_12basic_stringIcNS_11char_traitsIcEENS_9allocatorIcEEEEEEjT0_SA_SA_SA_T_+0x197>
10000491b:	48 8b 4b 10 	movq	16(%rbx), %rcx
10000491f:	48 89 4d d8 	movq	%rcx, -40(%rbp)
100004923:	48 8b 0b 	movq	(%rbx), %rcx
100004926:	48 8b 53 08 	movq	8(%rbx), %rdx
10000492a:	48 89 55 d0 	movq	%rdx, -48(%rbp)
10000492e:	48 89 4d c8 	movq	%rcx, -56(%rbp)
100004932:	49 8b 4c 24 10 	movq	16(%r12), %rcx
100004937:	48 89 4b 10 	movq	%rcx, 16(%rbx)
10000493b:	49 8b 0c 24 	movq	(%r12), %rcx
10000493f:	49 8b 54 24 08 	movq	8(%r12), %rdx
100004944:	48 89 53 08 	movq	%rdx, 8(%rbx)
100004948:	48 89 0b 	movq	%rcx, (%rbx)
10000494b:	48 8b 4d d8 	movq	-40(%rbp), %rcx
10000494f:	49 89 4c 24 10 	movq	%rcx, 16(%r12)
100004954:	48 8b 4d c8 	movq	-56(%rbp), %rcx
100004958:	48 8b 55 d0 	movq	-48(%rbp), %rdx
10000495c:	49 89 54 24 08 	movq	%rdx, 8(%r12)
100004961:	49 89 0c 24 	movq	%rcx, (%r12)
100004965:	8a 0b 	movb	(%rbx), %cl
100004967:	f6 c1 01 	testb	$1, %cl
10000496a:	74 06 	je	6 <__ZNSt3__17__sort4IR7comparePNS_12basic_stringIcNS_11char_traitsIcEENS_9allocatorIcEEEEEEjT0_SA_SA_SA_T_+0xb2>
10000496c:	48 8b 4b 08 	movq	8(%rbx), %rcx
100004970:	eb 05 	jmp	5 <__ZNSt3__17__sort4IR7comparePNS_12basic_stringIcNS_11char_traitsIcEENS_9allocatorIcEEEEEEjT0_SA_SA_SA_T_+0xb7>
100004972:	d0 e9 	shrb	%cl
100004974:	0f b6 c9 	movzbl	%cl, %ecx
100004977:	41 8a 17 	movb	(%r15), %dl
10000497a:	f6 c2 01 	testb	$1, %dl
10000497d:	74 10 	je	16 <__ZNSt3__17__sort4IR7comparePNS_12basic_stringIcNS_11char_traitsIcEENS_9allocatorIcEEEEEEjT0_SA_SA_SA_T_+0xcf>
10000497f:	49 8b 57 08 	movq	8(%r15), %rdx
100004983:	48 39 d1 	cmpq	%rdx, %rcx
100004986:	77 11 	ja	17 <__ZNSt3__17__sort4IR7comparePNS_12basic_stringIcNS_11char_traitsIcEENS_9allocatorIcEEEEEEjT0_SA_SA_SA_T_+0xd9>
100004988:	ff c0 	incl	%eax
10000498a:	e9 c8 00 00 00 	jmp	200 <__ZNSt3__17__sort4IR7comparePNS_12basic_stringIcNS_11char_traitsIcEENS_9allocatorIcEEEEEEjT0_SA_SA_SA_T_+0x197>
10000498f:	d0 ea 	shrb	%dl
100004991:	0f b6 d2 	movzbl	%dl, %edx
100004994:	48 39 d1 	cmpq	%rdx, %rcx
100004997:	76 ef 	jbe	-17 <__ZNSt3__17__sort4IR7comparePNS_12basic_stringIcNS_11char_traitsIcEENS_9allocatorIcEEEEEEjT0_SA_SA_SA_T_+0xc8>
100004999:	49 8b 4f 10 	movq	16(%r15), %rcx
10000499d:	48 89 4d d8 	movq	%rcx, -40(%rbp)
1000049a1:	49 8b 0f 	movq	(%r15), %rcx
1000049a4:	49 8b 57 08 	movq	8(%r15), %rdx
1000049a8:	48 89 55 d0 	movq	%rdx, -48(%rbp)
1000049ac:	48 89 4d c8 	movq	%rcx, -56(%rbp)
1000049b0:	48 8b 4b 10 	movq	16(%rbx), %rcx
1000049b4:	49 89 4f 10 	movq	%rcx, 16(%r15)
1000049b8:	48 8b 0b 	movq	(%rbx), %rcx
1000049bb:	48 8b 53 08 	movq	8(%rbx), %rdx
1000049bf:	49 89 57 08 	movq	%rdx, 8(%r15)
1000049c3:	49 89 0f 	movq	%rcx, (%r15)
1000049c6:	48 8b 4d d8 	movq	-40(%rbp), %rcx
1000049ca:	48 89 4b 10 	movq	%rcx, 16(%rbx)
1000049ce:	48 8b 4d c8 	movq	-56(%rbp), %rcx
1000049d2:	48 8b 55 d0 	movq	-48(%rbp), %rdx
1000049d6:	48 89 53 08 	movq	%rdx, 8(%rbx)
1000049da:	48 89 0b 	movq	%rcx, (%rbx)
1000049dd:	41 8a 0f 	movb	(%r15), %cl
1000049e0:	f6 c1 01 	testb	$1, %cl
1000049e3:	74 06 	je	6 <__ZNSt3__17__sort4IR7comparePNS_12basic_stringIcNS_11char_traitsIcEENS_9allocatorIcEEEEEEjT0_SA_SA_SA_T_+0x12b>
1000049e5:	49 8b 4f 08 	movq	8(%r15), %rcx
1000049e9:	eb 05 	jmp	5 <__ZNSt3__17__sort4IR7comparePNS_12basic_stringIcNS_11char_traitsIcEENS_9allocatorIcEEEEEEjT0_SA_SA_SA_T_+0x130>
1000049eb:	d0 e9 	shrb	%cl
1000049ed:	0f b6 c9 	movzbl	%cl, %ecx
1000049f0:	41 8a 16 	movb	(%r14), %dl
1000049f3:	f6 c2 01 	testb	$1, %dl
1000049f6:	74 0e 	je	14 <__ZNSt3__17__sort4IR7comparePNS_12basic_stringIcNS_11char_traitsIcEENS_9allocatorIcEEEEEEjT0_SA_SA_SA_T_+0x146>
1000049f8:	49 8b 56 08 	movq	8(%r14), %rdx
1000049fc:	48 39 d1 	cmpq	%rdx, %rcx
1000049ff:	77 0f 	ja	15 <__ZNSt3__17__sort4IR7comparePNS_12basic_stringIcNS_11char_traitsIcEENS_9allocatorIcEEEEEEjT0_SA_SA_SA_T_+0x150>
100004a01:	83 c0 02 	addl	$2, %eax
100004a04:	eb 51 	jmp	81 <__ZNSt3__17__sort4IR7comparePNS_12basic_stringIcNS_11char_traitsIcEENS_9allocatorIcEEEEEEjT0_SA_SA_SA_T_+0x197>
100004a06:	d0 ea 	shrb	%dl
100004a08:	0f b6 d2 	movzbl	%dl, %edx
100004a0b:	48 39 d1 	cmpq	%rdx, %rcx
100004a0e:	76 f1 	jbe	-15 <__ZNSt3__17__sort4IR7comparePNS_12basic_stringIcNS_11char_traitsIcEENS_9allocatorIcEEEEEEjT0_SA_SA_SA_T_+0x141>
100004a10:	49 8b 4e 10 	movq	16(%r14), %rcx
100004a14:	48 89 4d d8 	movq	%rcx, -40(%rbp)
100004a18:	49 8b 0e 	movq	(%r14), %rcx
100004a1b:	49 8b 56 08 	movq	8(%r14), %rdx
100004a1f:	48 89 55 d0 	movq	%rdx, -48(%rbp)
100004a23:	48 89 4d c8 	movq	%rcx, -56(%rbp)
100004a27:	49 8b 4f 10 	movq	16(%r15), %rcx
100004a2b:	49 89 4e 10 	movq	%rcx, 16(%r14)
100004a2f:	49 8b 0f 	movq	(%r15), %rcx
100004a32:	49 8b 57 08 	movq	8(%r15), %rdx
100004a36:	49 89 56 08 	movq	%rdx, 8(%r14)
100004a3a:	49 89 0e 	movq	%rcx, (%r14)
100004a3d:	48 8b 4d d8 	movq	-40(%rbp), %rcx
100004a41:	49 89 4f 10 	movq	%rcx, 16(%r15)
100004a45:	48 8b 4d c8 	movq	-56(%rbp), %rcx
100004a49:	48 8b 55 d0 	movq	-48(%rbp), %rdx
100004a4d:	49 89 57 08 	movq	%rdx, 8(%r15)
100004a51:	49 89 0f 	movq	%rcx, (%r15)
100004a54:	83 c0 03 	addl	$3, %eax
100004a57:	48 83 c4 20 	addq	$32, %rsp
100004a5b:	5b 	popq	%rbx
100004a5c:	41 5c 	popq	%r12
100004a5e:	41 5e 	popq	%r14
100004a60:	41 5f 	popq	%r15
100004a62:	5d 	popq	%rbp
100004a63:	c3 	retq
100004a64:	66 66 66 2e 0f 1f 84 00 00 00 00 00 	nopw	%cs:(%rax,%rax)

__ZNSt3__17__sort5IR7comparePNS_12basic_stringIcNS_11char_traitsIcEENS_9allocatorIcEEEEEEjT0_SA_SA_SA_SA_T_:
100004a70:	55 	pushq	%rbp
100004a71:	48 89 e5 	movq	%rsp, %rbp
100004a74:	41 57 	pushq	%r15
100004a76:	41 56 	pushq	%r14
100004a78:	41 55 	pushq	%r13
100004a7a:	41 54 	pushq	%r12
100004a7c:	53 	pushq	%rbx
100004a7d:	48 83 ec 18 	subq	$24, %rsp
100004a81:	4d 89 c5 	movq	%r8, %r13
100004a84:	48 89 cb 	movq	%rcx, %rbx
100004a87:	49 89 d4 	movq	%rdx, %r12
100004a8a:	49 89 f7 	movq	%rsi, %r15
100004a8d:	49 89 fe 	movq	%rdi, %r14
100004a90:	4d 89 c8 	movq	%r9, %r8
100004a93:	e8 28 fe ff ff 	callq	-472 <__ZNSt3__17__sort4IR7comparePNS_12basic_stringIcNS_11char_traitsIcEENS_9allocatorIcEEEEEEjT0_SA_SA_SA_T_>
100004a98:	41 8a 4d 00 	movb	(%r13), %cl
100004a9c:	f6 c1 01 	testb	$1, %cl
100004a9f:	74 06 	je	6 <__ZNSt3__17__sort5IR7comparePNS_12basic_stringIcNS_11char_traitsIcEENS_9allocatorIcEEEEEEjT0_SA_SA_SA_SA_T_+0x37>
100004aa1:	49 8b 4d 08 	movq	8(%r13), %rcx
100004aa5:	eb 05 	jmp	5 <__ZNSt3__17__sort5IR7comparePNS_12basic_stringIcNS_11char_traitsIcEENS_9allocatorIcEEEEEEjT0_SA_SA_SA_SA_T_+0x3c>
100004aa7:	d0 e9 	shrb	%cl
100004aa9:	0f b6 c9 	movzbl	%cl, %ecx
100004aac:	8a 13 	movb	(%rbx), %dl
100004aae:	f6 c2 01 	testb	$1, %dl
100004ab1:	74 0e 	je	14 <__ZNSt3__17__sort5IR7comparePNS_12basic_stringIcNS_11char_traitsIcEENS_9allocatorIcEEEEEEjT0_SA_SA_SA_SA_T_+0x51>
100004ab3:	48 8b 53 08 	movq	8(%rbx), %rdx
100004ab7:	48 39 d1 	cmpq	%rdx, %rcx
100004aba:	77 13 	ja	19 <__ZNSt3__17__sort5IR7comparePNS_12basic_stringIcNS_11char_traitsIcEENS_9allocatorIcEEEEEEjT0_SA_SA_SA_SA_T_+0x5f>
100004abc:	e9 d0 01 00 00 	jmp	464 <__ZNSt3__17__sort5IR7comparePNS_12basic_stringIcNS_11char_traitsIcEENS_9allocatorIcEEEEEEjT0_SA_SA_SA_SA_T_+0x221>
100004ac1:	d0 ea 	shrb	%dl
100004ac3:	0f b6 d2 	movzbl	%dl, %edx
100004ac6:	48 39 d1 	cmpq	%rdx, %rcx
100004ac9:	0f 86 c2 01 00 00 	jbe	450 <__ZNSt3__17__sort5IR7comparePNS_12basic_stringIcNS_11char_traitsIcEENS_9allocatorIcEEEEEEjT0_SA_SA_SA_SA_T_+0x221>
100004acf:	48 8b 4b 10 	movq	16(%rbx), %rcx
100004ad3:	48 89 4d d0 	movq	%rcx, -48(%rbp)
100004ad7:	48 8b 0b 	movq	(%rbx), %rcx
100004ada:	48 8b 53 08 	movq	8(%rbx), %rdx
100004ade:	48 89 55 c8 	movq	%rdx, -56(%rbp)
100004ae2:	48 89 4d c0 	movq	%rcx, -64(%rbp)
100004ae6:	49 8b 4d 10 	movq	16(%r13), %rcx
100004aea:	48 89 4b 10 	movq	%rcx, 16(%rbx)
100004aee:	49 8b 4d 00 	movq	(%r13), %rcx
100004af2:	49 8b 55 08 	movq	8(%r13), %rdx
100004af6:	48 89 53 08 	movq	%rdx, 8(%rbx)
100004afa:	48 89 0b 	movq	%rcx, (%rbx)
100004afd:	48 8b 4d d0 	movq	-48(%rbp), %rcx
100004b01:	49 89 4d 10 	movq	%rcx, 16(%r13)
100004b05:	48 8b 4d c0 	movq	-64(%rbp), %rcx
100004b09:	48 8b 55 c8 	movq	-56(%rbp), %rdx
100004b0d:	49 89 55 08 	movq	%rdx, 8(%r13)
100004b11:	49 89 4d 00 	movq	%rcx, (%r13)
100004b15:	8a 0b 	movb	(%rbx), %cl
100004b17:	f6 c1 01 	testb	$1, %cl
100004b1a:	74 06 	je	6 <__ZNSt3__17__sort5IR7comparePNS_12basic_stringIcNS_11char_traitsIcEENS_9allocatorIcEEEEEEjT0_SA_SA_SA_SA_T_+0xb2>
100004b1c:	48 8b 4b 08 	movq	8(%rbx), %rcx
100004b20:	eb 05 	jmp	5 <__ZNSt3__17__sort5IR7comparePNS_12basic_stringIcNS_11char_traitsIcEENS_9allocatorIcEEEEEEjT0_SA_SA_SA_SA_T_+0xb7>
100004b22:	d0 e9 	shrb	%cl
100004b24:	0f b6 c9 	movzbl	%cl, %ecx
100004b27:	41 8a 14 24 	movb	(%r12), %dl
100004b2b:	f6 c2 01 	testb	$1, %dl
100004b2e:	74 11 	je	17 <__ZNSt3__17__sort5IR7comparePNS_12basic_stringIcNS_11char_traitsIcEENS_9allocatorIcEEEEEEjT0_SA_SA_SA_SA_T_+0xd1>
100004b30:	49 8b 54 24 08 	movq	8(%r12), %rdx
100004b35:	48 39 d1 	cmpq	%rdx, %rcx
100004b38:	77 11 	ja	17 <__ZNSt3__17__sort5IR7comparePNS_12basic_stringIcNS_11char_traitsIcEENS_9allocatorIcEEEEEEjT0_SA_SA_SA_SA_T_+0xdb>
100004b3a:	ff c0 	incl	%eax
100004b3c:	e9 50 01 00 00 	jmp	336 <__ZNSt3__17__sort5IR7comparePNS_12basic_stringIcNS_11char_traitsIcEENS_9allocatorIcEEEEEEjT0_SA_SA_SA_SA_T_+0x221>
100004b41:	d0 ea 	shrb	%dl
100004b43:	0f b6 d2 	movzbl	%dl, %edx
100004b46:	48 39 d1 	cmpq	%rdx, %rcx
100004b49:	76 ef 	jbe	-17 <__ZNSt3__17__sort5IR7comparePNS_12basic_stringIcNS_11char_traitsIcEENS_9allocatorIcEEEEEEjT0_SA_SA_SA_SA_T_+0xca>
100004b4b:	49 8b 4c 24 10 	movq	16(%r12), %rcx
100004b50:	48 89 4d d0 	movq	%rcx, -48(%rbp)
100004b54:	49 8b 0c 24 	movq	(%r12), %rcx
100004b58:	49 8b 54 24 08 	movq	8(%r12), %rdx
100004b5d:	48 89 55 c8 	movq	%rdx, -56(%rbp)
100004b61:	48 89 4d c0 	movq	%rcx, -64(%rbp)
100004b65:	48 8b 4b 10 	movq	16(%rbx), %rcx
100004b69:	49 89 4c 24 10 	movq	%rcx, 16(%r12)
100004b6e:	48 8b 0b 	movq	(%rbx), %rcx
100004b71:	48 8b 53 08 	movq	8(%rbx), %rdx
100004b75:	49 89 54 24 08 	movq	%rdx, 8(%r12)
100004b7a:	49 89 0c 24 	movq	%rcx, (%r12)
100004b7e:	48 8b 4d d0 	movq	-48(%rbp), %rcx
100004b82:	48 89 4b 10 	movq	%rcx, 16(%rbx)
100004b86:	48 8b 4d c0 	movq	-64(%rbp), %rcx
100004b8a:	48 8b 55 c8 	movq	-56(%rbp), %rdx
100004b8e:	48 89 53 08 	movq	%rdx, 8(%rbx)
100004b92:	48 89 0b 	movq	%rcx, (%rbx)
100004b95:	41 8a 0c 24 	movb	(%r12), %cl
100004b99:	f6 c1 01 	testb	$1, %cl
100004b9c:	74 07 	je	7 <__ZNSt3__17__sort5IR7comparePNS_12basic_stringIcNS_11char_traitsIcEENS_9allocatorIcEEEEEEjT0_SA_SA_SA_SA_T_+0x135>
100004b9e:	49 8b 4c 24 08 	movq	8(%r12), %rcx
100004ba3:	eb 05 	jmp	5 <__ZNSt3__17__sort5IR7comparePNS_12basic_stringIcNS_11char_traitsIcEENS_9allocatorIcEEEEEEjT0_SA_SA_SA_SA_T_+0x13a>
100004ba5:	d0 e9 	shrb	%cl
100004ba7:	0f b6 c9 	movzbl	%cl, %ecx
100004baa:	41 8a 17 	movb	(%r15), %dl
100004bad:	f6 c2 01 	testb	$1, %dl
100004bb0:	74 11 	je	17 <__ZNSt3__17__sort5IR7comparePNS_12basic_stringIcNS_11char_traitsIcEENS_9allocatorIcEEEEEEjT0_SA_SA_SA_SA_T_+0x153>
100004bb2:	49 8b 57 08 	movq	8(%r15), %rdx
100004bb6:	48 39 d1 	cmpq	%rdx, %rcx
100004bb9:	77 12 	ja	18 <__ZNSt3__17__sort5IR7comparePNS_12basic_stringIcNS_11char_traitsIcEENS_9allocatorIcEEEEEEjT0_SA_SA_SA_SA_T_+0x15d>
100004bbb:	83 c0 02 	addl	$2, %eax
100004bbe:	e9 ce 00 00 00 	jmp	206 <__ZNSt3__17__sort5IR7comparePNS_12basic_stringIcNS_11char_traitsIcEENS_9allocatorIcEEEEEEjT0_SA_SA_SA_SA_T_+0x221>
100004bc3:	d0 ea 	shrb	%dl
100004bc5:	0f b6 d2 	movzbl	%dl, %edx
100004bc8:	48 39 d1 	cmpq	%rdx, %rcx
100004bcb:	76 ee 	jbe	-18 <__ZNSt3__17__sort5IR7comparePNS_12basic_stringIcNS_11char_traitsIcEENS_9allocatorIcEEEEEEjT0_SA_SA_SA_SA_T_+0x14b>
100004bcd:	49 8b 4f 10 	movq	16(%r15), %rcx
100004bd1:	48 89 4d d0 	movq	%rcx, -48(%rbp)
100004bd5:	49 8b 0f 	movq	(%r15), %rcx
100004bd8:	49 8b 57 08 	movq	8(%r15), %rdx
100004bdc:	48 89 55 c8 	movq	%rdx, -56(%rbp)
100004be0:	48 89 4d c0 	movq	%rcx, -64(%rbp)
100004be4:	49 8b 4c 24 10 	movq	16(%r12), %rcx
100004be9:	49 89 4f 10 	movq	%rcx, 16(%r15)
100004bed:	49 8b 0c 24 	movq	(%r12), %rcx
100004bf1:	49 8b 54 24 08 	movq	8(%r12), %rdx
100004bf6:	49 89 57 08 	movq	%rdx, 8(%r15)
100004bfa:	49 89 0f 	movq	%rcx, (%r15)
100004bfd:	48 8b 4d d0 	movq	-48(%rbp), %rcx
100004c01:	49 89 4c 24 10 	movq	%rcx, 16(%r12)
100004c06:	48 8b 4d c0 	movq	-64(%rbp), %rcx
100004c0a:	48 8b 55 c8 	movq	-56(%rbp), %rdx
100004c0e:	49 89 54 24 08 	movq	%rdx, 8(%r12)
100004c13:	49 89 0c 24 	movq	%rcx, (%r12)
100004c17:	41 8a 0f 	movb	(%r15), %cl
100004c1a:	f6 c1 01 	testb	$1, %cl
100004c1d:	74 06 	je	6 <__ZNSt3__17__sort5IR7comparePNS_12basic_stringIcNS_11char_traitsIcEENS_9allocatorIcEEEEEEjT0_SA_SA_SA_SA_T_+0x1b5>
100004c1f:	49 8b 4f 08 	movq	8(%r15), %rcx
100004c23:	eb 05 	jmp	5 <__ZNSt3__17__sort5IR7comparePNS_12basic_stringIcNS_11char_traitsIcEENS_9allocatorIcEEEEEEjT0_SA_SA_SA_SA_T_+0x1ba>
100004c25:	d0 e9 	shrb	%cl
100004c27:	0f b6 c9 	movzbl	%cl, %ecx
100004c2a:	41 8a 16 	movb	(%r14), %dl
100004c2d:	f6 c2 01 	testb	$1, %dl
100004c30:	74 0e 	je	14 <__ZNSt3__17__sort5IR7comparePNS_12basic_stringIcNS_11char_traitsIcEENS_9allocatorIcEEEEEEjT0_SA_SA_SA_SA_T_+0x1d0>
100004c32:	49 8b 56 08 	movq	8(%r14), %rdx
100004c36:	48 39 d1 	cmpq	%rdx, %rcx
100004c39:	77 0f 	ja	15 <__ZNSt3__17__sort5IR7comparePNS_12basic_stringIcNS_11char_traitsIcEENS_9allocatorIcEEEEEEjT0_SA_SA_SA_SA_T_+0x1da>
100004c3b:	83 c0 03 	addl	$3, %eax
100004c3e:	eb 51 	jmp	81 <__ZNSt3__17__sort5IR7comparePNS_12basic_stringIcNS_11char_traitsIcEENS_9allocatorIcEEEEEEjT0_SA_SA_SA_SA_T_+0x221>
100004c40:	d0 ea 	shrb	%dl
100004c42:	0f b6 d2 	movzbl	%dl, %edx
100004c45:	48 39 d1 	cmpq	%rdx, %rcx
100004c48:	76 f1 	jbe	-15 <__ZNSt3__17__sort5IR7comparePNS_12basic_stringIcNS_11char_traitsIcEENS_9allocatorIcEEEEEEjT0_SA_SA_SA_SA_T_+0x1cb>
100004c4a:	49 8b 4e 10 	movq	16(%r14), %rcx
100004c4e:	48 89 4d d0 	movq	%rcx, -48(%rbp)
100004c52:	49 8b 0e 	movq	(%r14), %rcx
100004c55:	49 8b 56 08 	movq	8(%r14), %rdx
100004c59:	48 89 55 c8 	movq	%rdx, -56(%rbp)
100004c5d:	48 89 4d c0 	movq	%rcx, -64(%rbp)
100004c61:	49 8b 4f 10 	movq	16(%r15), %rcx
100004c65:	49 89 4e 10 	movq	%rcx, 16(%r14)
100004c69:	49 8b 0f 	movq	(%r15), %rcx
100004c6c:	49 8b 57 08 	movq	8(%r15), %rdx
100004c70:	49 89 56 08 	movq	%rdx, 8(%r14)
100004c74:	49 89 0e 	movq	%rcx, (%r14)
100004c77:	48 8b 4d d0 	movq	-48(%rbp), %rcx
100004c7b:	49 89 4f 10 	movq	%rcx, 16(%r15)
100004c7f:	48 8b 4d c0 	movq	-64(%rbp), %rcx
100004c83:	48 8b 55 c8 	movq	-56(%rbp), %rdx
100004c87:	49 89 57 08 	movq	%rdx, 8(%r15)
100004c8b:	49 89 0f 	movq	%rcx, (%r15)
100004c8e:	83 c0 04 	addl	$4, %eax
100004c91:	48 83 c4 18 	addq	$24, %rsp
100004c95:	5b 	popq	%rbx
100004c96:	41 5c 	popq	%r12
100004c98:	41 5d 	popq	%r13
100004c9a:	41 5e 	popq	%r14
100004c9c:	41 5f 	popq	%r15
100004c9e:	5d 	popq	%rbp
100004c9f:	c3 	retq

__ZNSt3__118__insertion_sort_3IR7comparePNS_12basic_stringIcNS_11char_traitsIcEENS_9allocatorIcEEEEEEvT0_SA_T_:
100004ca0:	55 	pushq	%rbp
100004ca1:	48 89 e5 	movq	%rsp, %rbp
100004ca4:	41 57 	pushq	%r15
100004ca6:	41 56 	pushq	%r14
100004ca8:	41 55 	pushq	%r13
100004caa:	41 54 	pushq	%r12
100004cac:	53 	pushq	%rbx
100004cad:	48 83 ec 28 	subq	$40, %rsp
100004cb1:	48 89 d0 	movq	%rdx, %rax
100004cb4:	49 89 f4 	movq	%rsi, %r12
100004cb7:	49 89 ff 	movq	%rdi, %r15
100004cba:	49 8d 5f 30 	leaq	48(%r15), %rbx
100004cbe:	49 8d 77 18 	leaq	24(%r15), %rsi
100004cc2:	48 89 da 	movq	%rbx, %rdx
100004cc5:	48 89 c1 	movq	%rax, %rcx
100004cc8:	e8 d3 f9 ff ff 	callq	-1581 <__ZNSt3__17__sort3IR7comparePNS_12basic_stringIcNS_11char_traitsIcEENS_9allocatorIcEEEEEEjT0_SA_SA_T_>
100004ccd:	4d 8d 6f 48 	leaq	72(%r15), %r13
100004cd1:	4d 39 e5 	cmpq	%r12, %r13
100004cd4:	0f 84 fd 00 00 00 	je	253 <__ZNSt3__118__insertion_sort_3IR7comparePNS_12basic_stringIcNS_11char_traitsIcEENS_9allocatorIcEEEEEEvT0_SA_T_+0x137>
100004cda:	49 c7 c6 d0 ff ff ff 	movq	$-48, %r14
100004ce1:	4c 89 65 d0 	movq	%r12, -48(%rbp)
100004ce5:	41 8a 45 00 	movb	(%r13), %al
100004ce9:	a8 01 	testb	$1, %al
100004ceb:	74 13 	je	19 <__ZNSt3__118__insertion_sort_3IR7comparePNS_12basic_stringIcNS_11char_traitsIcEENS_9allocatorIcEEEEEEvT0_SA_T_+0x60>
100004ced:	49 8b 45 08 	movq	8(%r13), %rax
100004cf1:	eb 12 	jmp	18 <__ZNSt3__118__insertion_sort_3IR7comparePNS_12basic_stringIcNS_11char_traitsIcEENS_9allocatorIcEEEEEEvT0_SA_T_+0x65>
100004cf3:	66 66 66 66 2e 0f 1f 84 00 00 00 00 00 	nopw	%cs:(%rax,%rax)
100004d00:	d0 e8 	shrb	%al
100004d02:	0f b6 c0 	movzbl	%al, %eax
100004d05:	8a 0b 	movb	(%rbx), %cl
100004d07:	f6 c1 01 	testb	$1, %cl
100004d0a:	74 14 	je	20 <__ZNSt3__118__insertion_sort_3IR7comparePNS_12basic_stringIcNS_11char_traitsIcEENS_9allocatorIcEEEEEEvT0_SA_T_+0x80>
100004d0c:	48 8b 4b 08 	movq	8(%rbx), %rcx
100004d10:	48 39 c8 	cmpq	%rcx, %rax
100004d13:	77 19 	ja	25 <__ZNSt3__118__insertion_sort_3IR7comparePNS_12basic_stringIcNS_11char_traitsIcEENS_9allocatorIcEEEEEEvT0_SA_T_+0x8e>
100004d15:	e9 a6 00 00 00 	jmp	166 <__ZNSt3__118__insertion_sort_3IR7comparePNS_12basic_stringIcNS_11char_traitsIcEENS_9allocatorIcEEEEEEvT0_SA_T_+0x120>
100004d1a:	66 0f 1f 44 00 00 	nopw	(%rax,%rax)
100004d20:	d0 e9 	shrb	%cl
100004d22:	0f b6 c9 	movzbl	%cl, %ecx
100004d25:	48 39 c8 	cmpq	%rcx, %rax
100004d28:	0f 86 92 00 00 00 	jbe	146 <__ZNSt3__118__insertion_sort_3IR7comparePNS_12basic_stringIcNS_11char_traitsIcEENS_9allocatorIcEEEEEEvT0_SA_T_+0x120>
100004d2e:	48 8d 7d b8 	leaq	-72(%rbp), %rdi
100004d32:	4c 89 ee 	movq	%r13, %rsi
100004d35:	e8 aa 03 00 00 	callq	938
100004d3a:	4d 89 f4 	movq	%r14, %r12
100004d3d:	0f 1f 00 	nopl	(%rax)
100004d40:	48 8d 7b 18 	leaq	24(%rbx), %rdi
100004d44:	48 89 de 	movq	%rbx, %rsi
100004d47:	e8 9e 03 00 00 	callq	926
100004d4c:	4d 85 e4 	testq	%r12, %r12
100004d4f:	74 47 	je	71 <__ZNSt3__118__insertion_sort_3IR7comparePNS_12basic_stringIcNS_11char_traitsIcEENS_9allocatorIcEEEEEEvT0_SA_T_+0xf8>
100004d51:	0f b6 45 b8 	movzbl	-72(%rbp), %eax
100004d55:	a8 01 	testb	$1, %al
100004d57:	74 07 	je	7 <__ZNSt3__118__insertion_sort_3IR7comparePNS_12basic_stringIcNS_11char_traitsIcEENS_9allocatorIcEEEEEEvT0_SA_T_+0xc0>
100004d59:	48 8b 45 c0 	movq	-64(%rbp), %rax
100004d5d:	eb 06 	jmp	6 <__ZNSt3__118__insertion_sort_3IR7comparePNS_12basic_stringIcNS_11char_traitsIcEENS_9allocatorIcEEEEEEvT0_SA_T_+0xc5>
100004d5f:	90 	nop
100004d60:	d0 e8 	shrb	%al
100004d62:	0f b6 c0 	movzbl	%al, %eax
100004d65:	0f b6 4b e8 	movzbl	-24(%rbx), %ecx
100004d69:	f6 c1 01 	testb	$1, %cl
100004d6c:	74 12 	je	18 <__ZNSt3__118__insertion_sort_3IR7comparePNS_12basic_stringIcNS_11char_traitsIcEENS_9allocatorIcEEEEEEvT0_SA_T_+0xe0>
100004d6e:	48 8b 4b f0 	movq	-16(%rbx), %rcx
100004d72:	eb 11 	jmp	17 <__ZNSt3__118__insertion_sort_3IR7comparePNS_12basic_stringIcNS_11char_traitsIcEENS_9allocatorIcEEEEEEvT0_SA_T_+0xe5>
100004d74:	66 66 66 2e 0f 1f 84 00 00 00 00 00 	nopw	%cs:(%rax,%rax)
100004d80:	d0 e9 	shrb	%cl
100004d82:	0f b6 c9 	movzbl	%cl, %ecx
100004d85:	48 83 c3 e8 	addq	$-24, %rbx
100004d89:	49 83 c4 18 	addq	$24, %r12
100004d8d:	48 39 c8 	cmpq	%rcx, %rax
100004d90:	77 ae 	ja	-82 <__ZNSt3__118__insertion_sort_3IR7comparePNS_12basic_stringIcNS_11char_traitsIcEENS_9allocatorIcEEEEEEvT0_SA_T_+0xa0>
100004d92:	48 83 c3 18 	addq	$24, %rbx
100004d96:	eb 03 	jmp	3 <__ZNSt3__118__insertion_sort_3IR7comparePNS_12basic_stringIcNS_11char_traitsIcEENS_9allocatorIcEEEEEEvT0_SA_T_+0xfb>
100004d98:	4c 89 fb 	movq	%r15, %rbx
100004d9b:	4c 8b 65 d0 	movq	-48(%rbp), %r12
100004d9f:	48 89 df 	movq	%rbx, %rdi
100004da2:	48 8d 75 b8 	leaq	-72(%rbp), %rsi
100004da6:	e8 3f 03 00 00 	callq	831
100004dab:	f6 45 b8 01 	testb	$1, -72(%rbp)
100004daf:	74 0f 	je	15 <__ZNSt3__118__insertion_sort_3IR7comparePNS_12basic_stringIcNS_11char_traitsIcEENS_9allocatorIcEEEEEEvT0_SA_T_+0x120>
100004db1:	48 8b 7d c8 	movq	-56(%rbp), %rdi
100004db5:	e8 a8 03 00 00 	callq	936
100004dba:	66 0f 1f 44 00 00 	nopw	(%rax,%rax)
100004dc0:	4c 89 eb 	movq	%r13, %rbx
100004dc3:	49 8d 45 18 	leaq	24(%r13), %rax
100004dc7:	49 83 c6 e8 	addq	$-24, %r14
100004dcb:	49 89 c5 	movq	%rax, %r13
100004dce:	4c 39 e0 	cmpq	%r12, %rax
100004dd1:	0f 85 0e ff ff ff 	jne	-242 <__ZNSt3__118__insertion_sort_3IR7comparePNS_12basic_stringIcNS_11char_traitsIcEENS_9allocatorIcEEEEEEvT0_SA_T_+0x45>
100004dd7:	48 83 c4 28 	addq	$40, %rsp
100004ddb:	5b 	popq	%rbx
100004ddc:	41 5c 	popq	%r12
100004dde:	41 5d 	popq	%r13
100004de0:	41 5e 	popq	%r14
100004de2:	41 5f 	popq	%r15
100004de4:	5d 	popq	%rbp
100004de5:	c3 	retq
100004de6:	eb 00 	jmp	0 <__ZNSt3__118__insertion_sort_3IR7comparePNS_12basic_stringIcNS_11char_traitsIcEENS_9allocatorIcEEEEEEvT0_SA_T_+0x148>
100004de8:	48 89 c3 	movq	%rax, %rbx
100004deb:	f6 45 b8 01 	testb	$1, -72(%rbp)
100004def:	74 09 	je	9 <__ZNSt3__118__insertion_sort_3IR7comparePNS_12basic_stringIcNS_11char_traitsIcEENS_9allocatorIcEEEEEEvT0_SA_T_+0x15a>
100004df1:	48 8b 7d c8 	movq	-56(%rbp), %rdi
100004df5:	e8 68 03 00 00 	callq	872
100004dfa:	48 89 df 	movq	%rbx, %rdi
100004dfd:	e8 be 02 00 00 	callq	702
100004e02:	0f 0b 	ud2
100004e04:	66 66 66 2e 0f 1f 84 00 00 00 00 00 	nopw	%cs:(%rax,%rax)

__ZNSt3__127__insertion_sort_incompleteIR7comparePNS_12basic_stringIcNS_11char_traitsIcEENS_9allocatorIcEEEEEEbT0_SA_T_:
100004e10:	55 	pushq	%rbp
100004e11:	48 89 e5 	movq	%rsp, %rbp
100004e14:	41 57 	pushq	%r15
100004e16:	41 56 	pushq	%r14
100004e18:	41 55 	pushq	%r13
100004e1a:	41 54 	pushq	%r12
100004e1c:	53 	pushq	%rbx
100004e1d:	48 83 ec 28 	subq	$40, %rsp
100004e21:	48 89 d0 	movq	%rdx, %rax
100004e24:	49 89 f7 	movq	%rsi, %r15
100004e27:	48 89 fb 	movq	%rdi, %rbx
100004e2a:	4c 89 fa 	movq	%r15, %rdx
100004e2d:	48 29 da 	subq	%rbx, %rdx
100004e30:	48 c1 fa 03 	sarq	$3, %rdx
100004e34:	48 b9 ab aa aa aa aa aa aa aa 	movabsq	$-6148914691236517205, %rcx
100004e3e:	48 0f af ca 	imulq	%rdx, %rcx
100004e42:	41 b6 01 	movb	$1, %r14b
100004e45:	48 83 f9 05 	cmpq	$5, %rcx
100004e49:	77 25 	ja	37 <__ZNSt3__127__insertion_sort_incompleteIR7comparePNS_12basic_stringIcNS_11char_traitsIcEENS_9allocatorIcEEEEEEbT0_SA_T_+0x60>
100004e4b:	48 8d 15 56 02 00 00 	leaq	598(%rip), %rdx
100004e52:	48 63 0c 8a 	movslq	(%rdx,%rcx,4), %rcx
100004e56:	48 01 d1 	addq	%rdx, %rcx
100004e59:	ff e1 	jmpq	*%rcx
100004e5b:	41 8a 47 e8 	movb	-24(%r15), %al
100004e5f:	a8 01 	testb	$1, %al
100004e61:	0f 84 9a 01 00 00 	je	410 <__ZNSt3__127__insertion_sort_incompleteIR7comparePNS_12basic_stringIcNS_11char_traitsIcEENS_9allocatorIcEEEEEEbT0_SA_T_+0x1f1>
100004e67:	49 8b 47 f0 	movq	-16(%r15), %rax
100004e6b:	e9 96 01 00 00 	jmp	406 <__ZNSt3__127__insertion_sort_incompleteIR7comparePNS_12basic_stringIcNS_11char_traitsIcEENS_9allocatorIcEEEEEEbT0_SA_T_+0x1f6>
100004e70:	4c 8d 63 30 	leaq	48(%rbx), %r12
100004e74:	48 8d 73 18 	leaq	24(%rbx), %rsi
100004e78:	48 89 df 	movq	%rbx, %rdi
100004e7b:	4c 89 e2 	movq	%r12, %rdx
100004e7e:	48 89 c1 	movq	%rax, %rcx
100004e81:	e8 1a f8 ff ff 	callq	-2022 <__ZNSt3__17__sort3IR7comparePNS_12basic_stringIcNS_11char_traitsIcEENS_9allocatorIcEEEEEEjT0_SA_SA_T_>
100004e86:	48 8d 43 48 	leaq	72(%rbx), %rax
100004e8a:	4c 39 f8 	cmpq	%r15, %rax
100004e8d:	0f 84 d7 01 00 00 	je	471 <__ZNSt3__127__insertion_sort_incompleteIR7comparePNS_12basic_stringIcNS_11char_traitsIcEENS_9allocatorIcEEEEEEbT0_SA_T_+0x25a>
100004e93:	45 31 f6 	xorl	%r14d, %r14d
100004e96:	49 c7 c5 d0 ff ff ff 	movq	$-48, %r13
100004e9d:	48 89 c6 	movq	%rax, %rsi
100004ea0:	8a 06 	movb	(%rsi), %al
100004ea2:	a8 01 	testb	$1, %al
100004ea4:	74 0a 	je	10 <__ZNSt3__127__insertion_sort_incompleteIR7comparePNS_12basic_stringIcNS_11char_traitsIcEENS_9allocatorIcEEEEEEbT0_SA_T_+0xa0>
100004ea6:	48 8b 46 08 	movq	8(%rsi), %rax
100004eaa:	eb 09 	jmp	9 <__ZNSt3__127__insertion_sort_incompleteIR7comparePNS_12basic_stringIcNS_11char_traitsIcEENS_9allocatorIcEEEEEEbT0_SA_T_+0xa5>
100004eac:	0f 1f 40 00 	nopl	(%rax)
100004eb0:	d0 e8 	shrb	%al
100004eb2:	0f b6 c0 	movzbl	%al, %eax
100004eb5:	41 8a 0c 24 	movb	(%r12), %cl
100004eb9:	f6 c1 01 	testb	$1, %cl
100004ebc:	74 12 	je	18 <__ZNSt3__127__insertion_sort_incompleteIR7comparePNS_12basic_stringIcNS_11char_traitsIcEENS_9allocatorIcEEEEEEbT0_SA_T_+0xc0>
100004ebe:	49 8b 4c 24 08 	movq	8(%r12), %rcx
100004ec3:	48 39 c8 	cmpq	%rcx, %rax
100004ec6:	77 16 	ja	22 <__ZNSt3__127__insertion_sort_incompleteIR7comparePNS_12basic_stringIcNS_11char_traitsIcEENS_9allocatorIcEEEEEEbT0_SA_T_+0xce>
100004ec8:	e9 be 00 00 00 	jmp	190 <__ZNSt3__127__insertion_sort_incompleteIR7comparePNS_12basic_stringIcNS_11char_traitsIcEENS_9allocatorIcEEEEEEbT0_SA_T_+0x17b>
100004ecd:	0f 1f 00 	nopl	(%rax)
100004ed0:	d0 e9 	shrb	%cl
100004ed2:	0f b6 c9 	movzbl	%cl, %ecx
100004ed5:	48 39 c8 	cmpq	%rcx, %rax
100004ed8:	0f 86 ad 00 00 00 	jbe	173 <__ZNSt3__127__insertion_sort_incompleteIR7comparePNS_12basic_stringIcNS_11char_traitsIcEENS_9allocatorIcEEEEEEbT0_SA_T_+0x17b>
100004ede:	44 89 75 bc 	movl	%r14d, -68(%rbp)
100004ee2:	48 8d 7d c0 	leaq	-64(%rbp), %rdi
100004ee6:	48 89 75 b0 	movq	%rsi, -80(%rbp)
100004eea:	e8 f5 01 00 00 	callq	501
100004eef:	4d 89 ee 	movq	%r13, %r14
100004ef2:	66 66 66 66 66 2e 0f 1f 84 00 00 00 00 00 	nopw	%cs:(%rax,%rax)
100004f00:	49 8d 7c 24 18 	leaq	24(%r12), %rdi
100004f05:	4c 89 e6 	movq	%r12, %rsi
100004f08:	e8 dd 01 00 00 	callq	477
100004f0d:	4d 85 f6 	testq	%r14, %r14
100004f10:	74 46 	je	70 <__ZNSt3__127__insertion_sort_incompleteIR7comparePNS_12basic_stringIcNS_11char_traitsIcEENS_9allocatorIcEEEEEEbT0_SA_T_+0x148>
100004f12:	0f b6 45 c0 	movzbl	-64(%rbp), %eax
100004f16:	a8 01 	testb	$1, %al
100004f18:	74 06 	je	6 <__ZNSt3__127__insertion_sort_incompleteIR7comparePNS_12basic_stringIcNS_11char_traitsIcEENS_9allocatorIcEEEEEEbT0_SA_T_+0x110>
100004f1a:	48 8b 45 c8 	movq	-56(%rbp), %rax
100004f1e:	eb 05 	jmp	5 <__ZNSt3__127__insertion_sort_incompleteIR7comparePNS_12basic_stringIcNS_11char_traitsIcEENS_9allocatorIcEEEEEEbT0_SA_T_+0x115>
100004f20:	d0 e8 	shrb	%al
100004f22:	0f b6 c0 	movzbl	%al, %eax
100004f25:	41 0f b6 4c 24 e8 	movzbl	-24(%r12), %ecx
100004f2b:	f6 c1 01 	testb	$1, %cl
100004f2e:	74 10 	je	16 <__ZNSt3__127__insertion_sort_incompleteIR7comparePNS_12basic_stringIcNS_11char_traitsIcEENS_9allocatorIcEEEEEEbT0_SA_T_+0x130>
100004f30:	49 8b 4c 24 f0 	movq	-16(%r12), %rcx
100004f35:	eb 0e 	jmp	14 <__ZNSt3__127__insertion_sort_incompleteIR7comparePNS_12basic_stringIcNS_11char_traitsIcEENS_9allocatorIcEEEEEEbT0_SA_T_+0x135>
100004f37:	66 0f 1f 84 00 00 00 00 00 	nopw	(%rax,%rax)
100004f40:	d0 e9 	shrb	%cl
100004f42:	0f b6 c9 	movzbl	%cl, %ecx
100004f45:	49 83 c4 e8 	addq	$-24, %r12
100004f49:	49 83 c6 18 	addq	$24, %r14
100004f4d:	48 39 c8 	cmpq	%rcx, %rax
100004f50:	77 ae 	ja	-82 <__ZNSt3__127__insertion_sort_incompleteIR7comparePNS_12basic_stringIcNS_11char_traitsIcEENS_9allocatorIcEEEEEEbT0_SA_T_+0xf0>
100004f52:	49 83 c4 18 	addq	$24, %r12
100004f56:	eb 03 	jmp	3 <__ZNSt3__127__insertion_sort_incompleteIR7comparePNS_12basic_stringIcNS_11char_traitsIcEENS_9allocatorIcEEEEEEbT0_SA_T_+0x14b>
100004f58:	49 89 dc 	movq	%rbx, %r12
100004f5b:	4c 89 e7 	movq	%r12, %rdi
100004f5e:	48 8d 75 c0 	leaq	-64(%rbp), %rsi
100004f62:	e8 83 01 00 00 	callq	387
100004f67:	44 8b 75 bc 	movl	-68(%rbp), %r14d
100004f6b:	41 ff c6 	incl	%r14d
100004f6e:	f6 45 c0 01 	testb	$1, -64(%rbp)
100004f72:	74 09 	je	9 <__ZNSt3__127__insertion_sort_incompleteIR7comparePNS_12basic_stringIcNS_11char_traitsIcEENS_9allocatorIcEEEEEEbT0_SA_T_+0x16d>
100004f74:	48 8b 7d d0 	movq	-48(%rbp), %rdi
100004f78:	e8 e5 01 00 00 	callq	485
100004f7d:	41 83 fe 08 	cmpl	$8, %r14d
100004f81:	48 8b 75 b0 	movq	-80(%rbp), %rsi
100004f85:	0f 84 f1 00 00 00 	je	241 <__ZNSt3__127__insertion_sort_incompleteIR7comparePNS_12basic_stringIcNS_11char_traitsIcEENS_9allocatorIcEEEEEEbT0_SA_T_+0x26c>
100004f8b:	48 8d 46 18 	leaq	24(%rsi), %rax
100004f8f:	49 83 c5 e8 	addq	$-24, %r13
100004f93:	49 89 f4 	movq	%rsi, %r12
100004f96:	4c 39 f8 	cmpq	%r15, %rax
100004f99:	0f 85 fe fe ff ff 	jne	-258 <__ZNSt3__127__insertion_sort_incompleteIR7comparePNS_12basic_stringIcNS_11char_traitsIcEENS_9allocatorIcEEEEEEbT0_SA_T_+0x8d>
100004f9f:	41 b6 01 	movb	$1, %r14b
100004fa2:	e9 c3 00 00 00 	jmp	195 <__ZNSt3__127__insertion_sort_incompleteIR7comparePNS_12basic_stringIcNS_11char_traitsIcEENS_9allocatorIcEEEEEEbT0_SA_T_+0x25a>
100004fa7:	48 8d 73 18 	leaq	24(%rbx), %rsi
100004fab:	49 83 c7 e8 	addq	$-24, %r15
100004faf:	48 89 df 	movq	%rbx, %rdi
100004fb2:	4c 89 fa 	movq	%r15, %rdx
100004fb5:	48 89 c1 	movq	%rax, %rcx
100004fb8:	e8 e3 f6 ff ff 	callq	-2333 <__ZNSt3__17__sort3IR7comparePNS_12basic_stringIcNS_11char_traitsIcEENS_9allocatorIcEEEEEEjT0_SA_SA_T_>
100004fbd:	e9 a8 00 00 00 	jmp	168 <__ZNSt3__127__insertion_sort_incompleteIR7comparePNS_12basic_stringIcNS_11char_traitsIcEENS_9allocatorIcEEEEEEbT0_SA_T_+0x25a>
100004fc2:	48 8d 73 18 	leaq	24(%rbx), %rsi
100004fc6:	48 8d 53 30 	leaq	48(%rbx), %rdx
100004fca:	49 83 c7 e8 	addq	$-24, %r15
100004fce:	48 89 df 	movq	%rbx, %rdi
100004fd1:	4c 89 f9 	movq	%r15, %rcx
100004fd4:	49 89 c0 	movq	%rax, %r8
100004fd7:	e8 e4 f8 ff ff 	callq	-1820 <__ZNSt3__17__sort4IR7comparePNS_12basic_stringIcNS_11char_traitsIcEENS_9allocatorIcEEEEEEjT0_SA_SA_SA_T_>
100004fdc:	e9 89 00 00 00 	jmp	137 <__ZNSt3__127__insertion_sort_incompleteIR7comparePNS_12basic_stringIcNS_11char_traitsIcEENS_9allocatorIcEEEEEEbT0_SA_T_+0x25a>
100004fe1:	48 8d 53 30 	leaq	48(%rbx), %rdx
100004fe5:	48 8d 4b 48 	leaq	72(%rbx), %rcx
100004fe9:	49 83 c7 e8 	addq	$-24, %r15
100004fed:	48 8d 73 18 	leaq	24(%rbx), %rsi
100004ff1:	48 89 df 	movq	%rbx, %rdi
100004ff4:	4d 89 f8 	movq	%r15, %r8
100004ff7:	49 89 c1 	movq	%rax, %r9
100004ffa:	e8 71 fa ff ff 	callq	-1423 <__ZNSt3__17__sort5IR7comparePNS_12basic_stringIcNS_11char_traitsIcEENS_9allocatorIcEEEEEEjT0_SA_SA_SA_SA_T_>
100004fff:	eb 69 	jmp	105 <__ZNSt3__127__insertion_sort_incompleteIR7comparePNS_12basic_stringIcNS_11char_traitsIcEENS_9allocatorIcEEEEEEbT0_SA_T_+0x25a>
100005001:	d0 e8 	shrb	%al
100005003:	0f b6 c0 	movzbl	%al, %eax
100005006:	8a 0b 	movb	(%rbx), %cl
100005008:	f6 c1 01 	testb	$1, %cl
10000500b:	74 0b 	je	11 <__ZNSt3__127__insertion_sort_incompleteIR7comparePNS_12basic_stringIcNS_11char_traitsIcEENS_9allocatorIcEEEEEEbT0_SA_T_+0x208>
10000500d:	48 8b 4b 08 	movq	8(%rbx), %rcx
100005011:	48 39 c8 	cmpq	%rcx, %rax
100005014:	77 0c 	ja	12 <__ZNSt3__127__insertion_sort_incompleteIR7comparePNS_12basic_stringIcNS_11char_traitsIcEENS_9allocatorIcEEEEEEbT0_SA_T_+0x212>
100005016:	eb 52 	jmp	82 <__ZNSt3__127__insertion_sort_incompleteIR7comparePNS_12basic_stringIcNS_11char_traitsIcEENS_9allocatorIcEEEEEEbT0_SA_T_+0x25a>
100005018:	d0 e9 	shrb	%cl
10000501a:	0f b6 c9 	movzbl	%cl, %ecx
10000501d:	48 39 c8 	cmpq	%rcx, %rax
100005020:	76 48 	jbe	72 <__ZNSt3__127__insertion_sort_incompleteIR7comparePNS_12basic_stringIcNS_11char_traitsIcEENS_9allocatorIcEEEEEEbT0_SA_T_+0x25a>
100005022:	48 8b 43 10 	movq	16(%rbx), %rax
100005026:	48 89 45 d0 	movq	%rax, -48(%rbp)
10000502a:	48 8b 03 	movq	(%rbx), %rax
10000502d:	48 8b 4b 08 	movq	8(%rbx), %rcx
100005031:	48 89 4d c8 	movq	%rcx, -56(%rbp)
100005035:	48 89 45 c0 	movq	%rax, -64(%rbp)
100005039:	49 83 c7 e8 	addq	$-24, %r15
10000503d:	49 8b 47 10 	movq	16(%r15), %rax
100005041:	48 89 43 10 	movq	%rax, 16(%rbx)
100005045:	49 8b 07 	movq	(%r15), %rax
100005048:	49 8b 4f 08 	movq	8(%r15), %rcx
10000504c:	48 89 4b 08 	movq	%rcx, 8(%rbx)
100005050:	48 89 03 	movq	%rax, (%rbx)
100005053:	48 8b 45 d0 	movq	-48(%rbp), %rax
100005057:	49 89 47 10 	movq	%rax, 16(%r15)
10000505b:	48 8b 45 c0 	movq	-64(%rbp), %rax
10000505f:	48 8b 4d c8 	movq	-56(%rbp), %rcx
100005063:	49 89 4f 08 	movq	%rcx, 8(%r15)
100005067:	49 89 07 	movq	%rax, (%r15)
10000506a:	44 89 f0 	movl	%r14d, %eax
10000506d:	48 83 c4 28 	addq	$40, %rsp
100005071:	5b 	popq	%rbx
100005072:	41 5c 	popq	%r12
100005074:	41 5d 	popq	%r13
100005076:	41 5e 	popq	%r14
100005078:	41 5f 	popq	%r15
10000507a:	5d 	popq	%rbp
10000507b:	c3 	retq
10000507c:	48 83 c6 18 	addq	$24, %rsi
100005080:	4c 39 fe 	cmpq	%r15, %rsi
100005083:	41 0f 94 c6 	sete	%r14b
100005087:	eb e1 	jmp	-31 <__ZNSt3__127__insertion_sort_incompleteIR7comparePNS_12basic_stringIcNS_11char_traitsIcEENS_9allocatorIcEEEEEEbT0_SA_T_+0x25a>
100005089:	eb 00 	jmp	0 <__ZNSt3__127__insertion_sort_incompleteIR7comparePNS_12basic_stringIcNS_11char_traitsIcEENS_9allocatorIcEEEEEEbT0_SA_T_+0x27b>
10000508b:	48 89 c3 	movq	%rax, %rbx
10000508e:	f6 45 c0 01 	testb	$1, -64(%rbp)
100005092:	74 09 	je	9 <__ZNSt3__127__insertion_sort_incompleteIR7comparePNS_12basic_stringIcNS_11char_traitsIcEENS_9allocatorIcEEEEEEbT0_SA_T_+0x28d>
100005094:	48 8b 7d d0 	movq	-48(%rbp), %rdi
100005098:	e8 c5 00 00 00 	callq	197
10000509d:	48 89 df 	movq	%rbx, %rdi
1000050a0:	e8 1b 00 00 00 	callq	27
1000050a5:	0f 0b 	ud2
1000050a7:	90 	nop
1000050a8:	c2 ff ff 	retq	$-1
1000050ab:	ff c2 	incl	%edx
1000050ad:	ff ff  <unknown>
1000050af:	ff b3 fd ff ff ff 	pushq	-3(%rbx)
1000050b5:	fe ff  <unknown>
1000050b7:	ff 1a 	lcalll	*(%rdx)
1000050b9:	ff ff  <unknown>
1000050bb:	ff 39  <unknown>
1000050bd:	ff ff  <unknown>
1000050bf:	ff  <unknown>
Disassembly of section __TEXT,__stubs:
__stubs:
1000050c0:	ff 25 b2 0f 00 00 	jmpq	*4018(%rip)
1000050c6:	ff 25 b4 0f 00 00 	jmpq	*4020(%rip)
1000050cc:	ff 25 b6 0f 00 00 	jmpq	*4022(%rip)
1000050d2:	ff 25 b8 0f 00 00 	jmpq	*4024(%rip)
1000050d8:	ff 25 ba 0f 00 00 	jmpq	*4026(%rip)
1000050de:	ff 25 bc 0f 00 00 	jmpq	*4028(%rip)
1000050e4:	ff 25 be 0f 00 00 	jmpq	*4030(%rip)
1000050ea:	ff 25 c0 0f 00 00 	jmpq	*4032(%rip)
1000050f0:	ff 25 c2 0f 00 00 	jmpq	*4034(%rip)
1000050f6:	ff 25 c4 0f 00 00 	jmpq	*4036(%rip)
1000050fc:	ff 25 c6 0f 00 00 	jmpq	*4038(%rip)
100005102:	ff 25 c8 0f 00 00 	jmpq	*4040(%rip)
100005108:	ff 25 ca 0f 00 00 	jmpq	*4042(%rip)
10000510e:	ff 25 cc 0f 00 00 	jmpq	*4044(%rip)
100005114:	ff 25 ce 0f 00 00 	jmpq	*4046(%rip)
10000511a:	ff 25 d0 0f 00 00 	jmpq	*4048(%rip)
100005120:	ff 25 d2 0f 00 00 	jmpq	*4050(%rip)
100005126:	ff 25 d4 0f 00 00 	jmpq	*4052(%rip)
10000512c:	ff 25 d6 0f 00 00 	jmpq	*4054(%rip)
100005132:	ff 25 d8 0f 00 00 	jmpq	*4056(%rip)
100005138:	ff 25 da 0f 00 00 	jmpq	*4058(%rip)
10000513e:	ff 25 dc 0f 00 00 	jmpq	*4060(%rip)
100005144:	ff 25 de 0f 00 00 	jmpq	*4062(%rip)
10000514a:	ff 25 e0 0f 00 00 	jmpq	*4064(%rip)
100005150:	ff 25 e2 0f 00 00 	jmpq	*4066(%rip)
100005156:	ff 25 e4 0f 00 00 	jmpq	*4068(%rip)
10000515c:	ff 25 e6 0f 00 00 	jmpq	*4070(%rip)
100005162:	ff 25 e8 0f 00 00 	jmpq	*4072(%rip)
100005168:	ff 25 ea 0f 00 00 	jmpq	*4074(%rip)
10000516e:	ff 25 ec 0f 00 00 	jmpq	*4076(%rip)
100005174:	ff 25 ee 0f 00 00 	jmpq	*4078(%rip)
10000517a:	ff 25 f0 0f 00 00 	jmpq	*4080(%rip)
100005180:	ff 25 f2 0f 00 00 	jmpq	*4082(%rip)
100005186:	ff 25 f4 0f 00 00 	jmpq	*4084(%rip)
10000518c:	ff 25 f6 0f 00 00 	jmpq	*4086(%rip)
100005192:	ff 25 f8 0f 00 00 	jmpq	*4088(%rip)
100005198:	ff 25 fa 0f 00 00 	jmpq	*4090(%rip)
10000519e:	ff 25 fc 0f 00 00 	jmpq	*4092(%rip)
1000051a4:	ff 25 fe 0f 00 00 	jmpq	*4094(%rip)
1000051aa:	ff 25 00 10 00 00 	jmpq	*4096(%rip)
1000051b0:	ff 25 02 10 00 00 	jmpq	*4098(%rip)
1000051b6:	ff 25 04 10 00 00 	jmpq	*4100(%rip)
1000051bc:	ff 25 06 10 00 00 	jmpq	*4102(%rip)
1000051c2:	ff 25 08 10 00 00 	jmpq	*4104(%rip)
1000051c8:	ff 25 0a 10 00 00 	jmpq	*4106(%rip)
1000051ce:	ff 25 0c 10 00 00 	jmpq	*4108(%rip)
1000051d4:	ff 25 0e 10 00 00 	jmpq	*4110(%rip)
1000051da:	ff 25 10 10 00 00 	jmpq	*4112(%rip)
1000051e0:	ff 25 12 10 00 00 	jmpq	*4114(%rip)
1000051e6:	ff 25 14 10 00 00 	jmpq	*4116(%rip)
1000051ec:	ff 25 16 10 00 00 	jmpq	*4118(%rip)
Disassembly of section __TEXT,__stub_helper:
__stub_helper:
1000051f4:	4c 8d 1d 0d 0e 00 00 	leaq	3597(%rip), %r11
1000051fb:	41 53 	pushq	%r11
1000051fd:	ff 25 fd 0d 00 00 	jmpq	*3581(%rip)
100005203:	90 	nop
100005204:	68 16 00 00 00 	pushq	$22
100005209:	e9 e6 ff ff ff 	jmp	-26 <__stub_helper>
10000520e:	68 5d 00 00 00 	pushq	$93
100005213:	e9 dc ff ff ff 	jmp	-36 <__stub_helper>
100005218:	68 8b 00 00 00 	pushq	$139
10000521d:	e9 d2 ff ff ff 	jmp	-46 <__stub_helper>
100005222:	68 b9 00 00 00 	pushq	$185
100005227:	e9 c8 ff ff ff 	jmp	-56 <__stub_helper>
10000522c:	68 de 00 00 00 	pushq	$222
100005231:	e9 be ff ff ff 	jmp	-66 <__stub_helper>
100005236:	68 32 01 00 00 	pushq	$306
10000523b:	e9 b4 ff ff ff 	jmp	-76 <__stub_helper>
100005240:	68 82 01 00 00 	pushq	$386
100005245:	e9 aa ff ff ff 	jmp	-86 <__stub_helper>
10000524a:	68 d2 01 00 00 	pushq	$466
10000524f:	e9 a0 ff ff ff 	jmp	-96 <__stub_helper>
100005254:	68 19 02 00 00 	pushq	$537
100005259:	e9 96 ff ff ff 	jmp	-106 <__stub_helper>
10000525e:	68 55 02 00 00 	pushq	$597
100005263:	e9 8c ff ff ff 	jmp	-116 <__stub_helper>
100005268:	68 92 02 00 00 	pushq	$658
10000526d:	e9 82 ff ff ff 	jmp	-126 <__stub_helper>
100005272:	68 d0 02 00 00 	pushq	$720
100005277:	e9 78 ff ff ff 	jmp	-136 <__stub_helper>
10000527c:	68 10 03 00 00 	pushq	$784
100005281:	e9 6e ff ff ff 	jmp	-146 <__stub_helper>
100005286:	68 56 03 00 00 	pushq	$854
10000528b:	e9 64 ff ff ff 	jmp	-156 <__stub_helper>
100005290:	68 99 03 00 00 	pushq	$921
100005295:	e9 5a ff ff ff 	jmp	-166 <__stub_helper>
10000529a:	68 d5 03 00 00 	pushq	$981
10000529f:	e9 50 ff ff ff 	jmp	-176 <__stub_helper>
1000052a4:	68 13 04 00 00 	pushq	$1043
1000052a9:	e9 46 ff ff ff 	jmp	-186 <__stub_helper>
1000052ae:	68 51 04 00 00 	pushq	$1105
1000052b3:	e9 3c ff ff ff 	jmp	-196 <__stub_helper>
1000052b8:	68 72 04 00 00 	pushq	$1138
1000052bd:	e9 32 ff ff ff 	jmp	-206 <__stub_helper>
1000052c2:	68 8f 04 00 00 	pushq	$1167
1000052c7:	e9 28 ff ff ff 	jmp	-216 <__stub_helper>
1000052cc:	68 cf 04 00 00 	pushq	$1231
1000052d1:	e9 1e ff ff ff 	jmp	-226 <__stub_helper>
1000052d6:	68 f2 04 00 00 	pushq	$1266
1000052db:	e9 14 ff ff ff 	jmp	-236 <__stub_helper>
1000052e0:	68 15 05 00 00 	pushq	$1301
1000052e5:	e9 0a ff ff ff 	jmp	-246 <__stub_helper>
1000052ea:	68 4c 05 00 00 	pushq	$1356
1000052ef:	e9 00 ff ff ff 	jmp	-256 <__stub_helper>
1000052f4:	68 67 05 00 00 	pushq	$1383
1000052f9:	e9 f6 fe ff ff 	jmp	-266 <__stub_helper>
1000052fe:	68 8f 05 00 00 	pushq	$1423
100005303:	e9 ec fe ff ff 	jmp	-276 <__stub_helper>
100005308:	68 b0 05 00 00 	pushq	$1456
10000530d:	e9 e2 fe ff ff 	jmp	-286 <__stub_helper>
100005312:	68 ca 05 00 00 	pushq	$1482
100005317:	e9 d8 fe ff ff 	jmp	-296 <__stub_helper>
10000531c:	68 e8 05 00 00 	pushq	$1512
100005321:	e9 ce fe ff ff 	jmp	-306 <__stub_helper>
100005326:	68 00 06 00 00 	pushq	$1536
10000532b:	e9 c4 fe ff ff 	jmp	-316 <__stub_helper>
100005330:	68 00 00 00 00 	pushq	$0
100005335:	e9 ba fe ff ff 	jmp	-326 <__stub_helper>
10000533a:	68 7f 05 00 00 	pushq	$1407
10000533f:	e9 b0 fe ff ff 	jmp	-336 <__stub_helper>
100005344:	68 14 06 00 00 	pushq	$1556
100005349:	e9 a6 fe ff ff 	jmp	-346 <__stub_helper>
10000534e:	68 27 06 00 00 	pushq	$1575
100005353:	e9 9c fe ff ff 	jmp	-356 <__stub_helper>
100005358:	68 40 06 00 00 	pushq	$1600
10000535d:	e9 92 fe ff ff 	jmp	-366 <__stub_helper>
100005362:	68 52 06 00 00 	pushq	$1618
100005367:	e9 88 fe ff ff 	jmp	-376 <__stub_helper>
10000536c:	68 61 06 00 00 	pushq	$1633
100005371:	e9 7e fe ff ff 	jmp	-386 <__stub_helper>
100005376:	68 70 06 00 00 	pushq	$1648
10000537b:	e9 74 fe ff ff 	jmp	-396 <__stub_helper>
100005380:	68 7e 06 00 00 	pushq	$1662
100005385:	e9 6a fe ff ff 	jmp	-406 <__stub_helper>
10000538a:	68 8c 06 00 00 	pushq	$1676
10000538f:	e9 60 fe ff ff 	jmp	-416 <__stub_helper>
100005394:	68 9b 06 00 00 	pushq	$1691
100005399:	e9 56 fe ff ff 	jmp	-426 <__stub_helper>
10000539e:	68 aa 06 00 00 	pushq	$1706
1000053a3:	e9 4c fe ff ff 	jmp	-436 <__stub_helper>
1000053a8:	68 b9 06 00 00 	pushq	$1721
1000053ad:	e9 42 fe ff ff 	jmp	-446 <__stub_helper>
1000053b2:	68 c9 06 00 00 	pushq	$1737
1000053b7:	e9 38 fe ff ff 	jmp	-456 <__stub_helper>
1000053bc:	68 d8 06 00 00 	pushq	$1752
1000053c1:	e9 2e fe ff ff 	jmp	-466 <__stub_helper>
1000053c6:	68 e8 06 00 00 	pushq	$1768
1000053cb:	e9 24 fe ff ff 	jmp	-476 <__stub_helper>
1000053d0:	68 f7 06 00 00 	pushq	$1783
1000053d5:	e9 1a fe ff ff 	jmp	-486 <__stub_helper>
